
Discarded input sections

 .data          0x0000000000000000        0x0 arch/arm/cpu/armv8/start.o
 .bss           0x0000000000000000        0x0 arch/arm/cpu/armv8/start.o
 .text.sdelay   0x0000000000000000        0xc arch/arm/cpu/armv8/built-in.o
 .text.timer_read_counter
                0x0000000000000000        0xc arch/arm/cpu/armv8/built-in.o
 .text.usec2ticks
                0x0000000000000000       0x44 arch/arm/cpu/armv8/built-in.o
 .text.timer_get_boot_us
                0x0000000000000000       0x28 arch/arm/cpu/armv8/built-in.o
 .text.set_one_region
                0x0000000000000000       0xd8 arch/arm/cpu/armv8/built-in.o
 .text.arch_get_page_table
                0x0000000000000000       0x20 arch/arm/cpu/armv8/built-in.o
 .text.mmu_set_region_dcache_behaviour
                0x0000000000000000       0xa8 arch/arm/cpu/armv8/built-in.o
 .text.mmu_change_region_attr
                0x0000000000000000       0xe8 arch/arm/cpu/armv8/built-in.o
 .text.enable_caches
                0x0000000000000000       0x14 arch/arm/cpu/armv8/built-in.o
 .text.__asm_switch_ttbr
                0x0000000000000000       0xe0 arch/arm/cpu/armv8/built-in.o
 .text.armv8_switch_to_el1
                0x0000000000000000       0xd0 arch/arm/cpu/armv8/built-in.o
 .text.psci_system_reset
                0x0000000000000000       0x20 arch/arm/cpu/armv8/built-in.o
 .text.psci_system_reset2
                0x0000000000000000       0x2c arch/arm/cpu/armv8/built-in.o
 .text.psci_system_off
                0x0000000000000000       0x20 arch/arm/cpu/armv8/built-in.o
 .rodata.set_one_region.str1.1
                0x0000000000000000       0x2e arch/arm/cpu/armv8/built-in.o
 .rodata.arch_get_page_table.str1.1
                0x0000000000000000       0x1e arch/arm/cpu/armv8/built-in.o
 .rodata.mmu_set_region_dcache_behaviour.str1.1
                0x0000000000000000       0x20 arch/arm/cpu/armv8/built-in.o
 .eh_frame      0x0000000000000000      0x56c arch/arm/cpu/armv8/built-in.o
 .data          0x0000000000000000        0x0 arch/arm/cpu/armv8/built-in.o
 .bss           0x0000000000000000        0x0 arch/arm/cpu/armv8/built-in.o
 .text.board_quiesce_devices
                0x0000000000000000        0x4 arch/arm/lib/built-in.o
 .text.armv7_boot_nonsec_default
                0x0000000000000000        0x8 arch/arm/lib/built-in.o
 .text.enable_caches
                0x0000000000000000        0xc arch/arm/lib/built-in.o
 .text.invalidate_dcache_range
                0x0000000000000000        0x4 arch/arm/lib/built-in.o
 .text.flush_dcache_range
                0x0000000000000000        0x4 arch/arm/lib/built-in.o
 .text.flush_dcache_all
                0x0000000000000000        0xc arch/arm/lib/built-in.o
 .text.check_cache_range
                0x0000000000000000       0x3c arch/arm/lib/built-in.o
 .text.fdt_psci
                0x0000000000000000        0x8 arch/arm/lib/built-in.o
 .rodata.enable_caches.str1.1
                0x0000000000000000       0x1d arch/arm/lib/built-in.o
 .rodata.check_cache_range.str1.1
                0x0000000000000000       0x35 arch/arm/lib/built-in.o
 .eh_frame      0x0000000000000000      0x438 arch/arm/lib/built-in.o
 .data          0x0000000000000000        0x0 arch/arm/lib/built-in.o
 .__efi_runtime_rel_start
                0x0000000000000000        0x0 arch/arm/lib/built-in.o
 .__efi_runtime_rel_stop
                0x0000000000000000        0x0 arch/arm/lib/built-in.o
 .__efi_runtime_start
                0x0000000000000000        0x0 arch/arm/lib/built-in.o
 .__efi_runtime_stop
                0x0000000000000000        0x0 arch/arm/lib/built-in.o
 .__end         0x0000000000000000        0x0 arch/arm/lib/built-in.o
 .__secure_end  0x0000000000000000        0x0 arch/arm/lib/built-in.o
 .__secure_stack_end
                0x0000000000000000        0x0 arch/arm/lib/built-in.o
 .__secure_stack_start
                0x0000000000000000        0x0 arch/arm/lib/built-in.o
 .__secure_start
                0x0000000000000000        0x0 arch/arm/lib/built-in.o
 .bss           0x0000000000000000        0x0 arch/arm/lib/built-in.o
 .text.imx_iomux_set_gpr_register
                0x0000000000000000       0x4c arch/arm/mach-imx/built-in.o
 .text.force_idle_bus
                0x0000000000000000      0x1dc arch/arm/mach-imx/built-in.o
 .text.setup_i2c
                0x0000000000000000       0xc8 arch/arm/mach-imx/built-in.o
 .text.cpu_eth_init
                0x0000000000000000        0x4 arch/arm/mach-imx/built-in.o
 .text.cpu_mmc_init
                0x0000000000000000        0x4 arch/arm/mach-imx/built-in.o
 .text.mxs_wait_mask_set
                0x0000000000000000       0x58 arch/arm/mach-imx/built-in.o
 .text.mxs_wait_mask_clr
                0x0000000000000000       0x58 arch/arm/mach-imx/built-in.o
 .text.mxs_reset_block
                0x0000000000000000       0xbc arch/arm/mach-imx/built-in.o
 .text.configure_tzc380
                0x0000000000000000        0x4 arch/arm/mach-imx/built-in.o
 .text.call_imx_sip_ret2
                0x0000000000000000       0x40 arch/arm/mach-imx/built-in.o
 .text.enable_tzc380
                0x0000000000000000      0x174 arch/arm/mach-imx/built-in.o
 .text.check_fdt_new_path
                0x0000000000000000       0x24 arch/arm/mach-imx/built-in.o
 .text.disable_gpu_nodes
                0x0000000000000000       0x28 arch/arm/mach-imx/built-in.o
 .text.disable_npu_nodes
                0x0000000000000000       0x28 arch/arm/mach-imx/built-in.o
 .text.disable_isp_nodes
                0x0000000000000000       0x34 arch/arm/mach-imx/built-in.o
 .text.disable_dsp_nodes
                0x0000000000000000       0x28 arch/arm/mach-imx/built-in.o
 .text.enable_display_clk.part.0
                0x0000000000000000      0x148 arch/arm/mach-imx/built-in.o
 .text.enable_i2c_clk
                0x0000000000000000       0x3c arch/arm/mach-imx/built-in.o
 .text.intpll_configure
                0x0000000000000000      0x1bc arch/arm/mach-imx/built-in.o
 .text.mxs_set_lcdclk
                0x0000000000000000       0x7c arch/arm/mach-imx/built-in.o
 .text.enable_display_clk
                0x0000000000000000       0x18 arch/arm/mach-imx/built-in.o
 .text.init_wdog_clk
                0x0000000000000000       0x60 arch/arm/mach-imx/built-in.o
 .text.init_clk_usdhc
                0x0000000000000000       0xac arch/arm/mach-imx/built-in.o
 .text.init_clk_ecspi
                0x0000000000000000       0xac arch/arm/mach-imx/built-in.o
 .text.init_nand_clk
                0x0000000000000000       0x34 arch/arm/mach-imx/built-in.o
 .text.clock_init
                0x0000000000000000      0x1d8 arch/arm/mach-imx/built-in.o
 .text.init_clk_fspi
                0x0000000000000000       0x30 arch/arm/mach-imx/built-in.o
 .text.set_clk_enet
                0x0000000000000000       0x94 arch/arm/mach-imx/built-in.o
 .text.imx_get_fecclk
                0x0000000000000000        0x8 arch/arm/mach-imx/built-in.o
 .text.imx_get_eqos_csr_clk
                0x0000000000000000        0x4 arch/arm/mach-imx/built-in.o
 .rodata.force_idle_bus.str1.1
                0x0000000000000000       0x53 arch/arm/mach-imx/built-in.o
 .rodata.setup_i2c.str1.1
                0x0000000000000000       0x18 arch/arm/mach-imx/built-in.o
 .rodata.__func__.8321
                0x0000000000000000        0xf arch/arm/mach-imx/built-in.o
 .rodata.check_fdt_new_path.str1.1
                0x0000000000000000        0x7 arch/arm/mach-imx/built-in.o
 .rodata.disable_gpu_nodes.str1.1
                0x0000000000000000        0xe arch/arm/mach-imx/built-in.o
 .rodata.disable_npu_nodes.str1.1
                0x0000000000000000       0x10 arch/arm/mach-imx/built-in.o
 .rodata.disable_isp_nodes.str1.1
                0x0000000000000000       0x50 arch/arm/mach-imx/built-in.o
 .rodata.disable_dsp_nodes.str1.1
                0x0000000000000000        0xe arch/arm/mach-imx/built-in.o
 .rodata.enable_display_clk.part.0.str1.1
                0x0000000000000000       0x1a arch/arm/mach-imx/built-in.o
 .rodata.intpll_configure
                0x0000000000000000        0x6 arch/arm/mach-imx/built-in.o
 .rodata.mxs_set_lcdclk.str1.1
                0x0000000000000000       0x1a arch/arm/mach-imx/built-in.o
 .rodata.init_clk_usdhc.str1.1
                0x0000000000000000       0x15 arch/arm/mach-imx/built-in.o
 .rodata.init_clk_ecspi.str1.1
                0x0000000000000000       0x15 arch/arm/mach-imx/built-in.o
 .rodata.imx8mm_fracpll_tbl
                0x0000000000000000       0xc8 arch/arm/mach-imx/built-in.o
 .eh_frame      0x0000000000000000      0xcc8 arch/arm/mach-imx/built-in.o
 .data          0x0000000000000000        0x0 arch/arm/mach-imx/built-in.o
 .bss           0x0000000000000000        0x0 arch/arm/mach-imx/built-in.o
 .text          0x0000000000000000        0x0 board/variscite/imx8mm_var_dart/built-in.o
 .text.var_eeprom_read_header
                0x0000000000000000       0x5c board/variscite/imx8mm_var_dart/built-in.o
 .text.var_eeprom_get_storage
                0x0000000000000000       0x40 board/variscite/imx8mm_var_dart/built-in.o
 .text.var_get_som_rev
                0x0000000000000000       0x14 board/variscite/imx8mm_var_dart/built-in.o
 .eh_frame      0x0000000000000000      0x328 board/variscite/imx8mm_var_dart/built-in.o
 .data          0x0000000000000000        0x0 board/variscite/imx8mm_var_dart/built-in.o
 .bss           0x0000000000000000        0x0 board/variscite/imx8mm_var_dart/built-in.o
 .text          0x0000000000000000        0x0 cmd/built-in.o
 .text.invalidate_icache_all
                0x0000000000000000        0xc cmd/built-in.o
 .text.flush_dcache_all
                0x0000000000000000        0xc cmd/built-in.o
 .text.name_to_gpio
                0x0000000000000000       0x1c cmd/built-in.o
 .text.i2c_init_board
                0x0000000000000000        0x4 cmd/built-in.o
 .text.from_env
                0x0000000000000000       0x3c cmd/built-in.o
 .rodata.invalidate_icache_all.str1.1
                0x0000000000000000       0x33 cmd/built-in.o
 .rodata.flush_dcache_all.str1.1
                0x0000000000000000       0x2e cmd/built-in.o
 .rodata.from_env.str1.1
                0x0000000000000000       0x22 cmd/built-in.o
 .eh_frame      0x0000000000000000     0x2b40 cmd/built-in.o
 .data          0x0000000000000000        0x0 cmd/built-in.o
 .bss           0x0000000000000000        0x0 cmd/built-in.o
 .text          0x0000000000000000        0x0 common/built-in.o
 .text.board_init_f_init_stack_protection_addr
                0x0000000000000000        0x4 common/built-in.o
 .text.board_init_f_init_stack_protection
                0x0000000000000000        0x4 common/built-in.o
 .text.hash_progressive_lookup_algo
                0x0000000000000000       0x7c common/built-in.o
 .text.hash_parse_string
                0x0000000000000000       0x7c common/built-in.o
 .text.hash_block
                0x0000000000000000       0x88 common/built-in.o
 .text.unset_local_var
                0x0000000000000000       0xb8 common/built-in.o
 .text.arch_cpu_init
                0x0000000000000000        0x8 common/built-in.o
 .text.dram_init_banksize
                0x0000000000000000       0x34 common/built-in.o
 .text.arch_cpu_init_dm
                0x0000000000000000        0x8 common/built-in.o
 .text.coloured_LED_init
                0x0000000000000000        0x4 common/built-in.o
 .text.red_led_on
                0x0000000000000000        0x4 common/built-in.o
 .text.red_led_off
                0x0000000000000000        0x4 common/built-in.o
 .text.green_led_on
                0x0000000000000000        0x4 common/built-in.o
 .text.green_led_off
                0x0000000000000000        0x4 common/built-in.o
 .text.yellow_led_on
                0x0000000000000000        0x4 common/built-in.o
 .text.yellow_led_off
                0x0000000000000000        0x4 common/built-in.o
 .text.blue_led_on
                0x0000000000000000        0x4 common/built-in.o
 .text.blue_led_off
                0x0000000000000000        0x4 common/built-in.o
 .text.arch_reserve_stacks
                0x0000000000000000        0x8 common/built-in.o
 .text.board_flash_wp_on
                0x0000000000000000        0x8 common/built-in.o
 .text.fixup_cpu
                0x0000000000000000        0x8 common/built-in.o
 .text.board_quiesce_devices
                0x0000000000000000        0x4 common/built-in.o
 .text.switch_to_non_secure_mode
                0x0000000000000000        0x4 common/built-in.o
 .text.arch_preboot_os
                0x0000000000000000        0x4 common/built-in.o
 .text.fdt_read_prop
                0x0000000000000000       0x54 common/built-in.o
 .text.fdt_getprop_u32_default_node
                0x0000000000000000       0x4c common/built-in.o
 .text.fdt_getprop_u32_default
                0x0000000000000000       0x5c common/built-in.o
 .text.do_fixup_by_path_u32
                0x0000000000000000       0x28 common/built-in.o
 .text.do_fixup_by_prop
                0x0000000000000000       0xc8 common/built-in.o
 .text.do_fixup_by_prop_u32
                0x0000000000000000       0x28 common/built-in.o
 .text.do_fixup_by_compat
                0x0000000000000000       0xa8 common/built-in.o
 .text.do_fixup_by_compat_u32
                0x0000000000000000       0x28 common/built-in.o
 .text.fdt_set_usable_memory
                0x0000000000000000      0x10c common/built-in.o
 .text.fdt_record_loadable
                0x0000000000000000      0x174 common/built-in.o
 .text.fdt_del_node_and_alias
                0x0000000000000000       0x5c common/built-in.o
 .text.fdt_translate_dma_address
                0x0000000000000000        0xc common/built-in.o
 .text.fdt_node_offset_by_compat_reg
                0x0000000000000000       0xa0 common/built-in.o
 .text.fdt_alloc_phandle
                0x0000000000000000       0x6c common/built-in.o
 .text.fdt_set_phandle
                0x0000000000000000       0x68 common/built-in.o
 .text.fdt_create_phandle
                0x0000000000000000       0x78 common/built-in.o
 .text.fdt_set_node_status
                0x0000000000000000       0xdc common/built-in.o
 .text.fdt_set_status_by_alias
                0x0000000000000000       0x40 common/built-in.o
 .text.fdt_verify_alias_address
                0x0000000000000000       0xdc common/built-in.o
 .text.fdt_get_base_address
                0x0000000000000000       0x4c common/built-in.o
 .text.fdt_read_range
                0x0000000000000000      0x154 common/built-in.o
 .text.fdt_setup_simplefb_node
                0x0000000000000000      0x1f8 common/built-in.o
 .text.fdt_fixup_display
                0x0000000000000000       0xe8 common/built-in.o
 .text.mdio_register_seq
                0x0000000000000000       0x48 common/built-in.o
 .text.mdio_get_list_head
                0x0000000000000000        0xc common/built-in.o
 .text.usb_set_protocol
                0x0000000000000000       0x4c common/built-in.o
 .text.usb_set_idle
                0x0000000000000000       0x4c common/built-in.o
 .text.usb_get_report
                0x0000000000000000       0x5c common/built-in.o
 .text.usb_get_class_descriptor
                0x0000000000000000       0x5c common/built-in.o
 .text.board_usb_init
                0x0000000000000000        0x8 common/built-in.o
 .text.board_usb_cleanup
                0x0000000000000000        0x8 common/built-in.o
 .text.usb_hub_probe
                0x0000000000000000       0x54 common/built-in.o
 .text.iomux_printdevs
                0x0000000000000000       0x7c common/built-in.o
 .text.splash_screen_prepare
                0x0000000000000000        0x8 common/built-in.o
 .text.cli_simple_parse_line
                0x0000000000000000       0x9c common/built-in.o
 .text.cli_simple_process_macros
                0x0000000000000000      0x208 common/built-in.o
 .text.cli_simple_run_command
                0x0000000000000000      0x150 common/built-in.o
 .text.cli_simple_loop
                0x0000000000000000       0x90 common/built-in.o
 .text.cli_simple_run_command_list
                0x0000000000000000       0x74 common/built-in.o
 .text.fgetc    0x0000000000000000       0x44 common/built-in.o
 .text.ftstc    0x0000000000000000       0x14 common/built-in.o
 .text.fputc    0x0000000000000000       0x14 common/built-in.o
 .text.fprintf  0x0000000000000000       0x8c common/built-in.o
 .text.console_announce_r
                0x0000000000000000       0x9c common/built-in.o
 .text.valloc   0x0000000000000000        0xc common/built-in.o
 .text.pvalloc  0x0000000000000000       0x10 common/built-in.o
 .text.cfree    0x0000000000000000        0x4 common/built-in.o
 .text.malloc_usable_size
                0x0000000000000000       0x40 common/built-in.o
 .text.mallopt  0x0000000000000000       0x58 common/built-in.o
 .text.malloc_simple_info
                0x0000000000000000       0x10 common/built-in.o
 .text.genimg_get_short_name
                0x0000000000000000       0x28 common/built-in.o
 .text.genimg_get_cat_name
                0x0000000000000000       0x78 common/built-in.o
 .text.genimg_get_cat_short_name
                0x0000000000000000       0x78 common/built-in.o
 .text.genimg_get_cat_count
                0x0000000000000000       0x1c common/built-in.o
 .text.genimg_get_cat_desc
                0x0000000000000000       0x1c common/built-in.o
 .text.genimg_get_type_short_name
                0x0000000000000000       0x10 common/built-in.o
 .text.genimg_get_comp_short_name
                0x0000000000000000       0x10 common/built-in.o
 .text.genimg_get_os_short_name
                0x0000000000000000       0x10 common/built-in.o
 .text.genimg_get_arch_short_name
                0x0000000000000000       0x10 common/built-in.o
 .text.genimg_get_kernel_addr
                0x0000000000000000       0x20 common/built-in.o
 .text.android_image_get_kernel_v3
                0x0000000000000000      0x224 common/built-in.o
 .text.android_image_get_dtb_img_addr
                0x0000000000000000      0x174 common/built-in.o
 .text.android_image_check_header_v3
                0x0000000000000000       0x58 common/built-in.o
 .text.android_image_get_dtbo
                0x0000000000000000      0x178 common/built-in.o
 .text.android_image_get_dtb_by_index
                0x0000000000000000      0x11c common/built-in.o
 .text.android_image_print_dtb_contents
                0x0000000000000000      0x1b8 common/built-in.o
 .text.image_arm64
                0x0000000000000000       0x18 common/built-in.o
 .text.android_dt_check_header
                0x0000000000000000       0x18 common/built-in.o
 .text.android_dt_get_fdt_by_index
                0x0000000000000000       0x7c common/built-in.o
 .text.android_dt_print_contents
                0x0000000000000000      0x23c common/built-in.o
 .text.arch_fixup_fdt
                0x0000000000000000        0x8 common/built-in.o
 .text.fit_get_subimage_count
                0x0000000000000000       0x60 common/built-in.o
 .text.fit_get_timestamp
                0x0000000000000000       0x5c common/built-in.o
 .text.fit_image_get_data_size_unciphered
                0x0000000000000000       0x48 common/built-in.o
 .text.fit_image_cipher_get_algo
                0x0000000000000000        0x4 common/built-in.o
 .text.fit_set_timestamp
                0x0000000000000000       0x44 common/built-in.o
 .text.fit_conf_find_compat
                0x0000000000000000      0x1f4 common/built-in.o
 .text.fit_conf_get_prop_node_count
                0x0000000000000000        0x4 common/built-in.o
 .text.get_ram_size
                0x0000000000000000       0xf4 common/built-in.o
 .text.get_effective_memsize
                0x0000000000000000        0x8 common/built-in.o
 .text.stdio_init
                0x0000000000000000       0x1c common/built-in.o
 .text.run_command_repeatable
                0x0000000000000000       0x20 common/built-in.o
 .text.cmd_discard_repeatable
                0x0000000000000000       0x1c common/built-in.o
 .rodata.fdt_set_usable_memory.str1.1
                0x0000000000000000       0x41 common/built-in.o
 .rodata.fdt_record_loadable.str1.1
                0x0000000000000000       0x2e common/built-in.o
 .rodata.fdt_translate_dma_address.str1.1
                0x0000000000000000        0xb common/built-in.o
 .rodata.fdt_set_phandle.str1.1
                0x0000000000000000       0x16 common/built-in.o
 .rodata.fdt_create_phandle.str1.1
                0x0000000000000000       0x1a common/built-in.o
 .rodata.fdt_set_node_status.str1.1
                0x0000000000000000       0x3a common/built-in.o
 .rodata.fdt_set_node_status
                0x0000000000000000        0x4 common/built-in.o
 .rodata.fdt_verify_alias_address.str1.1
                0x0000000000000000       0xcc common/built-in.o
 .rodata.fdt_read_range.str1.1
                0x0000000000000000        0xf common/built-in.o
 .rodata.fdt_setup_simplefb_node.str1.1
                0x0000000000000000       0x2c common/built-in.o
 .rodata.fdt_fixup_display.str1.1
                0x0000000000000000       0x1c common/built-in.o
 .rodata.__func__.7574
                0x0000000000000000       0x16 common/built-in.o
 .rodata.__func__.7614
                0x0000000000000000       0x14 common/built-in.o
 .rodata.mdio_register_seq.str1.1
                0x0000000000000000        0x6 common/built-in.o
 .rodata.iomux_printdevs.str1.1
                0x0000000000000000        0x6 common/built-in.o
 .rodata.cli_simple_parse_line.str1.1
                0x0000000000000000       0x1f common/built-in.o
 .rodata.cli_simple_run_command.str1.1
                0x0000000000000000       0x16 common/built-in.o
 .rodata.cli_simple_loop.str1.1
                0x0000000000000000       0x17 common/built-in.o
 .rodata.mallopt
                0x0000000000000000        0x4 common/built-in.o
 .rodata.genimg_get_short_name.str1.1
                0x0000000000000000        0x8 common/built-in.o
 .rodata.table_info
                0x0000000000000000       0x60 common/built-in.o
 .rodata.unknown_str.8446
                0x0000000000000000        0x9 common/built-in.o
 .rodata.android_image_get_dtb_img_addr.str1.1
                0x0000000000000000       0x6c common/built-in.o
 .rodata.android_image_check_header_v3.str1.1
                0x0000000000000000        0x9 common/built-in.o
 .rodata.android_image_get_dtbo.str1.1
                0x0000000000000000       0x50 common/built-in.o
 .rodata.android_image_get_dtb_by_index.str1.1
                0x0000000000000000       0x4f common/built-in.o
 .rodata.android_image_print_dtb_contents.str1.1
                0x0000000000000000       0xe3 common/built-in.o
 .rodata.android_dt_get_fdt_by_index.str1.1
                0x0000000000000000       0x2b common/built-in.o
 .rodata.android_dt_print_contents.str1.1
                0x0000000000000000      0x1f8 common/built-in.o
 .rodata.fit_get_timestamp.str1.1
                0x0000000000000000        0xa common/built-in.o
 .rodata.fit_image_get_data_size_unciphered.str1.1
                0x0000000000000000       0x15 common/built-in.o
 .rodata.fit_conf_find_compat.str1.1
                0x0000000000000000        0xb common/built-in.o
 .eh_frame      0x0000000000000000     0x4900 common/built-in.o
 .data          0x0000000000000000        0x0 common/built-in.o
 .bss           0x0000000000000000        0x0 common/built-in.o
 .bss.lastcommand.7352
                0x0000000000000000      0x801 common/built-in.o
 .bss.image_save_addr
                0x0000000000000000        0x8 common/built-in.o
 .bss.image_save_size
                0x0000000000000000        0x8 common/built-in.o
 .bss.msg.8447  0x0000000000000000       0x1e common/built-in.o
 .text          0x0000000000000000        0x0 disk/built-in.o
 .text.part_get_info_by_name_type
                0x0000000000000000       0x8c disk/built-in.o
 .text.part_get_info_by_name
                0x0000000000000000        0x8 disk/built-in.o
 .text.part_get_info_by_dev_and_name_or_num
                0x0000000000000000      0x104 disk/built-in.o
 .text.is_valid_dos_buf
                0x0000000000000000       0x1c disk/built-in.o
 .text.write_mbr_partition
                0x0000000000000000       0x80 disk/built-in.o
 .text.write_mbr_and_gpt_partitions
                0x0000000000000000      0x45c disk/built-in.o
 .rodata.part_get_info_by_dev_and_name_or_num.str1.1
                0x0000000000000000       0x54 disk/built-in.o
 .rodata.write_mbr_partition.str1.1
                0x0000000000000000       0x2d disk/built-in.o
 .rodata.__func__.7314
                0x0000000000000000       0x14 disk/built-in.o
 .rodata.__func__.7562
                0x0000000000000000       0x1d disk/built-in.o
 .eh_frame      0x0000000000000000      0x798 disk/built-in.o
 .data          0x0000000000000000        0x0 disk/built-in.o
 .bss           0x0000000000000000        0x0 disk/built-in.o
 .text          0x0000000000000000        0x0 drivers/built-in.o
 .text.clk_get_by_index_nodev
                0x0000000000000000       0x54 drivers/built-in.o
 .text.clk_get_by_name_nodev
                0x0000000000000000       0x50 drivers/built-in.o
 .text.clk_get_optional_nodev
                0x0000000000000000       0x20 drivers/built-in.o
 .text.clk_disable_bulk
                0x0000000000000000       0x60 drivers/built-in.o
 .text.clk_is_match
                0x0000000000000000       0x64 drivers/built-in.o
 .text.devm_clk_get
                0x0000000000000000       0x60 drivers/built-in.o
 .text.devm_clk_get_optional
                0x0000000000000000       0x20 drivers/built-in.o
 .text.devm_clk_put
                0x0000000000000000        0x4 drivers/built-in.o
 .text.clk_register_mux_table
                0x0000000000000000        0x4 drivers/built-in.o
 .text.clk_gate_is_enabled
                0x0000000000000000       0x68 drivers/built-in.o
 .text.imx_clk_pllv3
                0x0000000000000000      0x108 drivers/built-in.o
 .text.imx_clk_pfd
                0x0000000000000000       0x88 drivers/built-in.o
 .text._device_find_global_by_ofnode
                0x0000000000000000       0x64 drivers/built-in.o
 .text.device_bind_ofnode
                0x0000000000000000       0x10 drivers/built-in.o
 .text.device_get_device_tail.part.0
                0x0000000000000000       0x2c drivers/built-in.o
 .text.device_get_child
                0x0000000000000000       0x40 drivers/built-in.o
 .text.device_get_child_count
                0x0000000000000000       0x2c drivers/built-in.o
 .text.device_find_child_by_seq
                0x0000000000000000       0x58 drivers/built-in.o
 .text.device_get_child_by_seq
                0x0000000000000000       0x50 drivers/built-in.o
 .text.device_find_child_by_of_offset
                0x0000000000000000       0x44 drivers/built-in.o
 .text.device_get_child_by_of_offset
                0x0000000000000000       0x30 drivers/built-in.o
 .text.device_find_global_by_ofnode
                0x0000000000000000       0x30 drivers/built-in.o
 .text.device_get_global_by_ofnode
                0x0000000000000000       0x34 drivers/built-in.o
 .text.device_find_first_inactive_child
                0x0000000000000000       0x54 drivers/built-in.o
 .text.device_find_first_child_by_uclass
                0x0000000000000000       0x4c drivers/built-in.o
 .text.device_find_child_by_name
                0x0000000000000000       0x68 drivers/built-in.o
 .text.device_first_child_err
                0x0000000000000000       0x34 drivers/built-in.o
 .text.device_next_child_err
                0x0000000000000000       0x3c drivers/built-in.o
 .text.device_first_child_ofdata_err
                0x0000000000000000       0x44 drivers/built-in.o
 .text.device_next_child_ofdata_err
                0x0000000000000000       0x4c drivers/built-in.o
 .text.device_has_children
                0x0000000000000000       0x14 drivers/built-in.o
 .text.device_set_name
                0x0000000000000000       0x44 drivers/built-in.o
 .text.dev_disable_by_path
                0x0000000000000000       0x18 drivers/built-in.o
 .text.dev_enable_by_path
                0x0000000000000000       0x1c drivers/built-in.o
 .text.devfdt_get_addr_name
                0x0000000000000000       0x50 drivers/built-in.o
 .text.devfdt_get_addr_size_name
                0x0000000000000000       0x58 drivers/built-in.o
 .text.devfdt_remap_addr_name
                0x0000000000000000       0x20 drivers/built-in.o
 .text.devfdt_map_physmem
                0x0000000000000000       0x20 drivers/built-in.o
 .text.devfdt_get_addr_pci
                0x0000000000000000        0x4 drivers/built-in.o
 .text.dm_fixup_for_gd_move
                0x0000000000000000       0x20 drivers/built-in.o
 .text.dm_uninit
                0x0000000000000000       0x2c drivers/built-in.o
 .text.uclass_destroy
                0x0000000000000000       0x98 drivers/built-in.o
 .text.uclass_get_name
                0x0000000000000000       0x30 drivers/built-in.o
 .text.uclass_get_by_name
                0x0000000000000000       0x54 drivers/built-in.o
 .text.uclass_find_next_free_req_seq
                0x0000000000000000       0x64 drivers/built-in.o
 .text.uclass_find_device_by_of_offset
                0x0000000000000000       0x78 drivers/built-in.o
 .text.uclass_get_device_by_driver
                0x0000000000000000       0x7c drivers/built-in.o
 .text.uclass_get_device_by_of_offset
                0x0000000000000000       0x38 drivers/built-in.o
 .text.uclass_first_device_drvdata
                0x0000000000000000       0x80 drivers/built-in.o
 .text.list_count_items
                0x0000000000000000       0x28 drivers/built-in.o
 .text.pci_get_devfn
                0x0000000000000000       0x44 drivers/built-in.o
 .text.simple_bus_translate
                0x0000000000000000       0x50 drivers/built-in.o
 .text.regmap_init_mem_index
                0x0000000000000000      0x13c drivers/built-in.o
 .text.regmap_get_range
                0x0000000000000000       0x24 drivers/built-in.o
 .text.regmap_uninit
                0x0000000000000000       0x18 drivers/built-in.o
 .text.regmap_raw_read_range
                0x0000000000000000       0xe0 drivers/built-in.o
 .text.regmap_raw_read
                0x0000000000000000       0x14 drivers/built-in.o
 .text.regmap_read
                0x0000000000000000        0x8 drivers/built-in.o
 .text.regmap_raw_write_range
                0x0000000000000000       0xe4 drivers/built-in.o
 .text.regmap_raw_write
                0x0000000000000000       0x14 drivers/built-in.o
 .text.regmap_write
                0x0000000000000000       0x20 drivers/built-in.o
 .text.regmap_update_bits
                0x0000000000000000       0x4c drivers/built-in.o
 .text.syscon_probe_by_ofnode
                0x0000000000000000       0x98 drivers/built-in.o
 .text.syscon_get_regmap
                0x0000000000000000       0x3c drivers/built-in.o
 .text.syscon_regmap_lookup_by_phandle
                0x0000000000000000       0x8c drivers/built-in.o
 .text.syscon_get_by_driver_data
                0x0000000000000000       0x14 drivers/built-in.o
 .text.syscon_get_regmap_by_driver_data
                0x0000000000000000       0x30 drivers/built-in.o
 .text.syscon_get_first_range
                0x0000000000000000       0x28 drivers/built-in.o
 .text.syscon_node_to_regmap
                0x0000000000000000       0x54 drivers/built-in.o
 .text.ofnode_read_fmap_entry
                0x0000000000000000      0x104 drivers/built-in.o
 .text.ofnode_decode_region
                0x0000000000000000       0x5c drivers/built-in.o
 .text.ofnode_decode_memory_region
                0x0000000000000000      0x118 drivers/built-in.o
 .text.ofnode_read_s32_default
                0x0000000000000000       0x20 drivers/built-in.o
 .text.ofnode_read_u64
                0x0000000000000000       0x5c drivers/built-in.o
 .text.ofnode_read_u64_default
                0x0000000000000000       0x20 drivers/built-in.o
 .text.decode_timing_property
                0x0000000000000000       0x78 drivers/built-in.o
 .text.ofnode_get_by_phandle
                0x0000000000000000       0x20 drivers/built-in.o
 .text.ofnode_read_string_index
                0x0000000000000000       0x48 drivers/built-in.o
 .text.ofnode_read_string_count
                0x0000000000000000       0x10 drivers/built-in.o
 .text.ofnode_read_chosen_prop
                0x0000000000000000       0x34 drivers/built-in.o
 .text.ofnode_read_chosen_string
                0x0000000000000000        0x8 drivers/built-in.o
 .text.ofnode_get_chosen_node
                0x0000000000000000       0x28 drivers/built-in.o
 .text.ofnode_decode_display_timing
                0x0000000000000000      0x2e8 drivers/built-in.o
 .text.ofnode_is_available
                0x0000000000000000       0x24 drivers/built-in.o
 .text.ofnode_get_addr_size
                0x0000000000000000       0x14 drivers/built-in.o
 .text.ofnode_read_pci_addr
                0x0000000000000000       0xac drivers/built-in.o
 .text.ofnode_read_pci_vendev
                0x0000000000000000      0x104 drivers/built-in.o
 .text.ofnode_get_addr_size_index
                0x0000000000000000       0x68 drivers/built-in.o
 .text.ofnode_get_addr_index
                0x0000000000000000       0x18 drivers/built-in.o
 .text.ofnode_get_addr
                0x0000000000000000        0x8 drivers/built-in.o
 .text.ofnode_read_resource
                0x0000000000000000       0x68 drivers/built-in.o
 .text.ofnode_read_resource_byname
                0x0000000000000000       0x4c drivers/built-in.o
 .text.ofnode_translate_address
                0x0000000000000000       0x10 drivers/built-in.o
 .text.ofnode_translate_dma_address
                0x0000000000000000       0x10 drivers/built-in.o
 .text.ofnode_by_compatible
                0x0000000000000000       0x2c drivers/built-in.o
 .text.ofnode_by_prop_value
                0x0000000000000000       0x34 drivers/built-in.o
 .text.ofnode_write_prop
                0x0000000000000000        0x8 drivers/built-in.o
 .text.ofnode_write_string
                0x0000000000000000        0x8 drivers/built-in.o
 .text.ofnode_set_enabled
                0x0000000000000000        0x8 drivers/built-in.o
 .text.sysreset_get_last
                0x0000000000000000       0x20 drivers/built-in.o
 .text.sysreset_get_last_walk
                0x0000000000000000       0x3c drivers/built-in.o
 .text.reset_cpu
                0x0000000000000000       0x10 drivers/built-in.o
 .text.reset_misc
                0x0000000000000000       0x3c drivers/built-in.o
 .text.create_keymap
                0x0000000000000000       0xa0 drivers/built-in.o
 .text.key_matrix_decode
                0x0000000000000000       0xdc drivers/built-in.o
 .text.key_matrix_decode_fdt
                0x0000000000000000       0xb4 drivers/built-in.o
 .text.key_matrix_init
                0x0000000000000000       0x50 drivers/built-in.o
 .text.pinctrl_gpio_get_pinctrl_and_offset.isra.0
                0x0000000000000000       0x90 drivers/built-in.o
 .text.pinctrl_gpio_request
                0x0000000000000000       0x4c drivers/built-in.o
 .text.pinctrl_gpio_free
                0x0000000000000000       0x4c drivers/built-in.o
 .text.pinctrl_request
                0x0000000000000000       0x20 drivers/built-in.o
 .text.pinctrl_request_noflags
                0x0000000000000000        0x8 drivers/built-in.o
 .text.pinctrl_get_periph_id
                0x0000000000000000       0x20 drivers/built-in.o
 .text.pinctrl_get_gpio_mux
                0x0000000000000000       0x20 drivers/built-in.o
 .text.pinctrl_generic_set_state_subnode
                0x0000000000000000      0x294 drivers/built-in.o
 .text.pinctrl_generic_set_state
                0x0000000000000000       0x6c drivers/built-in.o
 .text.blk_get_by_device
                0x0000000000000000       0x5c drivers/built-in.o
 .text.blk_unbind_all
                0x0000000000000000       0xa8 drivers/built-in.o
 .text.do_job   0x0000000000000000       0xd0 drivers/built-in.o
 .text.jr_reset
                0x0000000000000000       0xb0 drivers/built-in.o
 .text.secmem_set_cmd_1
                0x0000000000000000       0x20 drivers/built-in.o
 .text.caam_decap_blob
                0x0000000000000000       0xd8 drivers/built-in.o
 .text.caam_gen_blob
                0x0000000000000000       0xf4 drivers/built-in.o
 .text.caam_hwrng
                0x0000000000000000       0xa8 drivers/built-in.o
 .text.caam_open
                0x0000000000000000      0x44c drivers/built-in.o
 .text.fastboot_set_reboot_flag
                0x0000000000000000       0x10 drivers/built-in.o
 .text.fastboot_get_progress_callback
                0x0000000000000000        0xc drivers/built-in.o
 .text.fastboot_set_progress_callback
                0x0000000000000000        0xc drivers/built-in.o
 .text.process_erase_mmc
                0x0000000000000000      0x194 drivers/built-in.o
 .text.read_from_partition_multi
                0x0000000000000000      0x1f0 drivers/built-in.o
 .text.fastboot_flash_find_index
                0x0000000000000000       0x44 drivers/built-in.o
 .text.fastboot_flash_get_ptn
                0x0000000000000000       0x24 drivers/built-in.o
 .text.fastboot_flash_get_ptn_count
                0x0000000000000000        0xc drivers/built-in.o
 .text.fuse_bank_physical
                0x0000000000000000        0x4 drivers/built-in.o
 .text.fuse_word_physical
                0x0000000000000000        0x8 drivers/built-in.o
 .text.mmc_voltage_to_mv
                0x0000000000000000       0x20 drivers/built-in.o
 .text.cpu_mmc_init
                0x0000000000000000        0x8 drivers/built-in.o
 .text.board_mmc_init
                0x0000000000000000        0x8 drivers/built-in.o
 .text.mmc_set_preinit
                0x0000000000000000        0x8 drivers/built-in.o
 .text.mmc_init_device
                0x0000000000000000       0x4c drivers/built-in.o
 .text.mmc_get_next_devnum
                0x0000000000000000        0x8 drivers/built-in.o
 .text.mmc_unbind
                0x0000000000000000       0x34 drivers/built-in.o
 .text.esdhc_status_fixup
                0x0000000000000000        0x8 drivers/built-in.o
 .text.fdt_fixup_esdhc
                0x0000000000000000       0x54 drivers/built-in.o
 .text.init_clk_usdhc
                0x0000000000000000        0x4 drivers/built-in.o
 .text.rtc_month_days
                0x0000000000000000       0x4c drivers/built-in.o
 .text.rtc_to_tm
                0x0000000000000000      0x128 drivers/built-in.o
 .text.reset_get_by_index_tail.isra.0.part.0
                0x0000000000000000       0x90 drivers/built-in.o
 .text.reset_get_by_index
                0x0000000000000000       0x54 drivers/built-in.o
 .text.reset_get_by_index_nodev
                0x0000000000000000       0x54 drivers/built-in.o
 .text.reset_get_by_name
                0x0000000000000000       0x54 drivers/built-in.o
 .text.reset_request
                0x0000000000000000       0x18 drivers/built-in.o
 .text.reset_free
                0x0000000000000000       0x18 drivers/built-in.o
 .text.reset_assert
                0x0000000000000000       0x18 drivers/built-in.o
 .text.reset_assert_bulk
                0x0000000000000000       0x48 drivers/built-in.o
 .text.reset_deassert
                0x0000000000000000       0x18 drivers/built-in.o
 .text.reset_deassert_bulk
                0x0000000000000000       0x48 drivers/built-in.o
 .text.reset_status
                0x0000000000000000       0x18 drivers/built-in.o
 .text.reset_release_all
                0x0000000000000000       0x68 drivers/built-in.o
 .text.reset_get_bulk
                0x0000000000000000       0xc4 drivers/built-in.o
 .text.reset_get_bulk_nodev
                0x0000000000000000       0xc0 drivers/built-in.o
 .text.nxp_tmu_arch_init
                0x0000000000000000        0x4 drivers/built-in.o
 .rodata.imx_clk_pllv3
                0x0000000000000000        0x5 drivers/built-in.o
 .rodata.devfdt_get_addr_name.str1.1
                0x0000000000000000        0xa drivers/built-in.o
 .rodata.pci_get_devfn.str1.1
                0x0000000000000000        0x4 drivers/built-in.o
 .rodata.ofnode_read_fmap_entry.str1.1
                0x0000000000000000       0x32 drivers/built-in.o
 .rodata.ofnode_decode_memory_region.str1.1
                0x0000000000000000       0x2d drivers/built-in.o
 .rodata.ofnode_read_chosen_prop.str1.1
                0x0000000000000000        0x8 drivers/built-in.o
 .rodata.ofnode_decode_display_timing.str1.1
                0x0000000000000000       0xca drivers/built-in.o
 .rodata.ofnode_read_pci_vendev.str1.1
                0x0000000000000000       0x1c drivers/built-in.o
 .rodata.ofnode_get_addr_size_index.str1.1
                0x0000000000000000        0x4 drivers/built-in.o
 .rodata.ofnode_read_resource_byname.str1.1
                0x0000000000000000        0xa drivers/built-in.o
 .rodata.key_matrix_decode_fdt.str1.1
                0x0000000000000000       0x1d drivers/built-in.o
 .rodata.pinctrl_gpio_get_pinctrl_and_offset.isra.0.str1.1
                0x0000000000000000        0xc drivers/built-in.o
 .rodata.pinctrl_generic_set_state_subnode.str1.1
                0x0000000000000000       0x15 drivers/built-in.o
 .rodata.jr_reset.str1.1
                0x0000000000000000       0x34 drivers/built-in.o
 .rodata.caam_decap_blob.str1.1
                0x0000000000000000       0x23 drivers/built-in.o
 .rodata.caam_gen_blob.str1.1
                0x0000000000000000       0x23 drivers/built-in.o
 .rodata.caam_hwrng.str1.1
                0x0000000000000000       0x21 drivers/built-in.o
 .rodata.caam_open.str1.1
                0x0000000000000000      0x113 drivers/built-in.o
 .rodata.rng_inst_load_keys
                0x0000000000000000       0x10 drivers/built-in.o
 .rodata.rng_inst_sh0_desc
                0x0000000000000000        0x8 drivers/built-in.o
 .rodata.rng_inst_sh1_desc
                0x0000000000000000       0x10 drivers/built-in.o
 .rodata.process_erase_mmc.str1.1
                0x0000000000000000       0x60 drivers/built-in.o
 .rodata.read_from_partition_multi.str1.1
                0x0000000000000000       0x47 drivers/built-in.o
 .rodata.fastboot_flash_find_index.str1.1
                0x0000000000000000       0x24 drivers/built-in.o
 .rodata.CSWTCH.120
                0x0000000000000000        0xa drivers/built-in.o
 .rodata.rtc_days_in_month
                0x0000000000000000        0xc drivers/built-in.o
 .rodata.reset_get_by_index.str1.1
                0x0000000000000000       0x14 drivers/built-in.o
 .rodata.reset_get_by_name.str1.1
                0x0000000000000000        0xc drivers/built-in.o
 .eh_frame      0x0000000000000000     0x5418 drivers/built-in.o
 .data.g_jrdata
                0x0000000000000000      0x220 drivers/built-in.o
 .data.skeymod  0x0000000000000000       0x10 drivers/built-in.o
 .bss           0x0000000000000000        0x0 drivers/built-in.o
 .text          0x0000000000000000        0x0 drivers/gpio/built-in.o
 .text.gpio_hog_lookup_name
                0x0000000000000000        0x8 drivers/gpio/built-in.o
 .text.gpio_requestf
                0x0000000000000000       0x78 drivers/gpio/built-in.o
 .text.dm_gpio_get_open_drain
                0x0000000000000000       0x60 drivers/gpio/built-in.o
 .text.dm_gpio_set_open_drain
                0x0000000000000000       0x6c drivers/gpio/built-in.o
 .text.dm_gpio_set_dir
                0x0000000000000000        0x8 drivers/gpio/built-in.o
 .text.gpio_set_value
                0x0000000000000000       0x34 drivers/gpio/built-in.o
 .text.gpio_claim_vector
                0x0000000000000000       0xac drivers/gpio/built-in.o
 .text.gpio_get_values_as_int
                0x0000000000000000       0x68 drivers/gpio/built-in.o
 .text.dm_gpio_get_values_as_int
                0x0000000000000000       0x74 drivers/gpio/built-in.o
 .text.gpio_get_list_count
                0x0000000000000000       0x24 drivers/gpio/built-in.o
 .text.gpio_get_number
                0x0000000000000000       0x24 drivers/gpio/built-in.o
 .text.gpio_dev_request_index
                0x0000000000000000       0x54 drivers/gpio/built-in.o
 .rodata.dm_gpio_get_open_drain.str1.1
                0x0000000000000000        0xf drivers/gpio/built-in.o
 .rodata.dm_gpio_set_open_drain.str1.1
                0x0000000000000000        0xf drivers/gpio/built-in.o
 .eh_frame      0x0000000000000000      0x840 drivers/gpio/built-in.o
 .data          0x0000000000000000        0x0 drivers/gpio/built-in.o
 .bss           0x0000000000000000        0x0 drivers/gpio/built-in.o
 .text          0x0000000000000000        0x0 drivers/i2c/built-in.o
 .text.i2c_dump_msgs
                0x0000000000000000       0xac drivers/i2c/built-in.o
 .text.dm_i2c_xfer
                0x0000000000000000       0x50 drivers/i2c/built-in.o
 .text.dm_i2c_reg_read
                0x0000000000000000       0x24 drivers/i2c/built-in.o
 .text.dm_i2c_reg_write
                0x0000000000000000       0x20 drivers/i2c/built-in.o
 .text.i2c_get_chip_for_busnum
                0x0000000000000000       0x68 drivers/i2c/built-in.o
 .text.i2c_set_chip_addr_offset_mask
                0x0000000000000000       0x28 drivers/i2c/built-in.o
 .text.i2c_get_chip_addr_offset_mask
                0x0000000000000000       0x18 drivers/i2c/built-in.o
 .text.__enable_i2c_clk
                0x0000000000000000        0x8 drivers/i2c/built-in.o
 .rodata.i2c_dump_msgs.str1.1
                0x0000000000000000       0x1b drivers/i2c/built-in.o
 .eh_frame      0x0000000000000000      0x668 drivers/i2c/built-in.o
 .data          0x0000000000000000        0x0 drivers/i2c/built-in.o
 .bss           0x0000000000000000        0x0 drivers/i2c/built-in.o
 .text          0x0000000000000000        0x0 drivers/net/built-in.o
 .text.imx_get_fecclk
                0x0000000000000000        0x8 drivers/net/built-in.o
 .text.init_clk_fec
                0x0000000000000000        0x4 drivers/net/built-in.o
 .eh_frame      0x0000000000000000      0x2d0 drivers/net/built-in.o
 .data          0x0000000000000000        0x0 drivers/net/built-in.o
 .bss           0x0000000000000000        0x0 drivers/net/built-in.o
 .text          0x0000000000000000        0x0 drivers/net/phy/built-in.o
 .text.phy_set_supported
                0x0000000000000000       0x58 drivers/net/phy/built-in.o
 .text.miiphy_reset
                0x0000000000000000       0x30 drivers/net/phy/built-in.o
 .text.board_phy_config
                0x0000000000000000       0x1c drivers/net/phy/built-in.o
 .text.phy_shutdown
                0x0000000000000000       0x2c drivers/net/phy/built-in.o
 .eh_frame      0x0000000000000000      0x414 drivers/net/phy/built-in.o
 .data          0x0000000000000000        0x0 drivers/net/phy/built-in.o
 .bss           0x0000000000000000        0x0 drivers/net/phy/built-in.o
 .text          0x0000000000000000        0x0 drivers/power/regulator/built-in.o
 .text.regulator_show
                0x0000000000000000       0x9c drivers/power/regulator/built-in.o
 .text.regulator_set_suspend_value
                0x0000000000000000       0x90 drivers/power/regulator/built-in.o
 .text.regulator_get_suspend_value
                0x0000000000000000       0x40 drivers/power/regulator/built-in.o
 .text.regulator_set_enable_if_allowed
                0x0000000000000000       0x20 drivers/power/regulator/built-in.o
 .text.regulator_set_suspend_enable
                0x0000000000000000       0x48 drivers/power/regulator/built-in.o
 .text.regulator_get_suspend_enable
                0x0000000000000000       0x40 drivers/power/regulator/built-in.o
 .text.regulator_get_by_devname
                0x0000000000000000       0x10 drivers/power/regulator/built-in.o
 .text.regulator_autoset
                0x0000000000000000       0xc8 drivers/power/regulator/built-in.o
 .text.regulator_autoset_by_name
                0x0000000000000000       0x3c drivers/power/regulator/built-in.o
 .text.regulator_list_autoset
                0x0000000000000000       0xa0 drivers/power/regulator/built-in.o
 .text.regulators_enable_boot_on
                0x0000000000000000       0x84 drivers/power/regulator/built-in.o
 .rodata.regulator_show.str1.1
                0x0000000000000000       0x36 drivers/power/regulator/built-in.o
 .eh_frame      0x0000000000000000      0x688 drivers/power/regulator/built-in.o
 .data          0x0000000000000000        0x0 drivers/power/regulator/built-in.o
 .bss           0x0000000000000000        0x0 drivers/power/regulator/built-in.o
 .text          0x0000000000000000        0x0 drivers/serial/built-in.o
 .text.serial_reinit_all
                0x0000000000000000       0x34 drivers/serial/built-in.o
 .eh_frame      0x0000000000000000      0x358 drivers/serial/built-in.o
 .data          0x0000000000000000        0x0 drivers/serial/built-in.o
 .bss           0x0000000000000000        0x0 drivers/serial/built-in.o
 .text          0x0000000000000000        0x0 drivers/spi/built-in.o
 .text.spi_set_wordlen
                0x0000000000000000       0x38 drivers/spi/built-in.o
 .text.spi_do_alloc_slave
                0x0000000000000000       0x6c drivers/spi/built-in.o
 .rodata.spi_set_wordlen.str1.1
                0x0000000000000000       0x19 drivers/spi/built-in.o
 .eh_frame      0x0000000000000000       0x64 drivers/spi/built-in.o
 .data          0x0000000000000000        0x0 drivers/spi/built-in.o
 .bss           0x0000000000000000        0x0 drivers/spi/built-in.o
 .comment       0x0000000000000000       0x12 drivers/spi/built-in.o
 .note.GNU-stack
                0x0000000000000000        0x0 drivers/spi/built-in.o
 .debug_aranges
                0x0000000000000000       0x40 drivers/spi/built-in.o
 .debug_info    0x0000000000000000      0xd79 drivers/spi/built-in.o
 .debug_abbrev  0x0000000000000000      0x28d drivers/spi/built-in.o
 .debug_line    0x0000000000000000      0x24f drivers/spi/built-in.o
 .debug_str     0x0000000000000000      0xb22 drivers/spi/built-in.o
 .debug_loc     0x0000000000000000      0x278 drivers/spi/built-in.o
 .debug_ranges  0x0000000000000000       0x30 drivers/spi/built-in.o
 .text          0x0000000000000000        0x0 drivers/usb/common/built-in.o
 .text.usb_get_maximum_speed
                0x0000000000000000       0x88 drivers/usb/common/built-in.o
 .rodata.usb_get_maximum_speed.str1.1
                0x0000000000000000       0x2b drivers/usb/common/built-in.o
 .rodata.speed_names
                0x0000000000000000       0x30 drivers/usb/common/built-in.o
 .eh_frame      0x0000000000000000       0x6c drivers/usb/common/built-in.o
 .data          0x0000000000000000        0x0 drivers/usb/common/built-in.o
 .bss           0x0000000000000000        0x0 drivers/usb/common/built-in.o
 .text          0x0000000000000000        0x0 drivers/usb/gadget/built-in.o
 .text.usb_gadget_config_buf
                0x0000000000000000       0xa4 drivers/usb/gadget/built-in.o
 .text.dfu_usb_get_reset
                0x0000000000000000       0x1c drivers/usb/gadget/built-in.o
 .text.udc_irq_reset
                0x0000000000000000       0x30 drivers/usb/gadget/built-in.o
 .text.ci_udc_check_bus_active
                0x0000000000000000      0x1ec drivers/usb/gadget/built-in.o
 .text.usb_function_deactivate
                0x0000000000000000       0x60 drivers/usb/gadget/built-in.o
 .text.usb_function_activate
                0x0000000000000000       0x50 drivers/usb/gadget/built-in.o
 .text.usb_string_ids_tab
                0x0000000000000000       0x38 drivers/usb/gadget/built-in.o
 .text.usb_string_ids_n
                0x0000000000000000       0x2c drivers/usb/gadget/built-in.o
 .text.board_usb_init
                0x0000000000000000        0x8 drivers/usb/gadget/built-in.o
 .text.board_usb_cleanup
                0x0000000000000000        0x8 drivers/usb/gadget/built-in.o
 .eh_frame      0x0000000000000000     0x10f8 drivers/usb/gadget/built-in.o
 .data          0x0000000000000000        0x0 drivers/usb/gadget/built-in.o
 .bss           0x0000000000000000        0x0 drivers/usb/gadget/built-in.o
 .text          0x0000000000000000        0x0 drivers/usb/gadget/udc/built-in.o
 .text.usb_gadget_map_request
                0x0000000000000000       0x5c drivers/usb/gadget/udc/built-in.o
 .text.usb_gadget_unmap_request
                0x0000000000000000       0x28 drivers/usb/gadget/udc/built-in.o
 .text.usb_gadget_giveback_request
                0x0000000000000000        0xc drivers/usb/gadget/udc/built-in.o
 .text.usb_gadget_set_state
                0x0000000000000000        0x8 drivers/usb/gadget/udc/built-in.o
 .text.usb_gadget_udc_reset
                0x0000000000000000       0x2c drivers/usb/gadget/udc/built-in.o
 .eh_frame      0x0000000000000000      0x21c drivers/usb/gadget/udc/built-in.o
 .data          0x0000000000000000        0x0 drivers/usb/gadget/udc/built-in.o
 .bss           0x0000000000000000        0x0 drivers/usb/gadget/udc/built-in.o
 .text          0x0000000000000000        0x0 drivers/usb/host/built-in.o
 .text.create_int_queue
                0x0000000000000000       0x40 drivers/usb/host/built-in.o
 .text.poll_int_queue
                0x0000000000000000       0x30 drivers/usb/host/built-in.o
 .text.destroy_int_queue
                0x0000000000000000       0x30 drivers/usb/host/built-in.o
 .text.usb_setup_ehci_gadget
                0x0000000000000000       0x7c drivers/usb/host/built-in.o
 .text.usb_remove_ehci_gadget
                0x0000000000000000       0x48 drivers/usb/host/built-in.o
 .text.usb_detect_change
                0x0000000000000000       0xa8 drivers/usb/host/built-in.o
 .text.ehci_setup_phy
                0x0000000000000000        0x8 drivers/usb/host/built-in.o
 .text.ehci_shutdown_phy
                0x0000000000000000        0x8 drivers/usb/host/built-in.o
 .text.board_usb_phy_mode
                0x0000000000000000        0x4 drivers/usb/host/built-in.o
 .text.board_ehci_power
                0x0000000000000000        0x8 drivers/usb/host/built-in.o
 .eh_frame      0x0000000000000000      0x8b4 drivers/usb/host/built-in.o
 .data          0x0000000000000000        0x0 drivers/usb/host/built-in.o
 .bss           0x0000000000000000        0x0 drivers/usb/host/built-in.o
 .text          0x0000000000000000        0x0 drivers/usb/imx/built-in.o
 .text.usb_phy_mode
                0x0000000000000000       0x24 drivers/usb/imx/built-in.o
 .eh_frame      0x0000000000000000       0x60 drivers/usb/imx/built-in.o
 .data          0x0000000000000000        0x0 drivers/usb/imx/built-in.o
 .bss           0x0000000000000000        0x0 drivers/usb/imx/built-in.o
 .text          0x0000000000000000        0x0 env/built-in.o
 .text.env_erase
                0x0000000000000000       0x94 env/built-in.o
 .text.env_flags_parse_varaccess_from_binflags
                0x0000000000000000       0x60 env/built-in.o
 .text.mmc_get_env_dev
                0x0000000000000000        0x8 env/built-in.o
 .rodata.env_erase.str1.1
                0x0000000000000000       0x1e env/built-in.o
 .rodata.env_flags_parse_varaccess_from_binflags.str1.1
                0x0000000000000000       0x2c env/built-in.o
 .eh_frame      0x0000000000000000      0x630 env/built-in.o
 .data          0x0000000000000000        0x0 env/built-in.o
 .bss           0x0000000000000000        0x0 env/built-in.o
 .text          0x0000000000000000        0x0 fs/built-in.o
 .text.fs_get_type_name
                0x0000000000000000       0x20 fs/built-in.o
 .text.fs_uuid  0x0000000000000000       0x2c fs/built-in.o
 .text.do_fs_uuid
                0x0000000000000000       0xa0 fs/built-in.o
 .text.print_revoke_blks
                0x0000000000000000       0x70 fs/built-in.o
 .text.fat_register_device
                0x0000000000000000       0x80 fs/built-in.o
 .text.file_fat_read
                0x0000000000000000       0x2c fs/built-in.o
 .rodata.print_revoke_blks.str1.1
                0x0000000000000000       0x25 fs/built-in.o
 .rodata.fat_register_device.str1.1
                0x0000000000000000       0x2b fs/built-in.o
 .eh_frame      0x0000000000000000     0x1984 fs/built-in.o
 .data          0x0000000000000000        0x0 fs/built-in.o
 .bss           0x0000000000000000        0x0 fs/built-in.o
 .bss.ext4fs_symlinknest
                0x0000000000000000        0x4 fs/built-in.o
 .text          0x0000000000000000        0x0 lib/built-in.o
 .text.efi_serialize_load_option
                0x0000000000000000       0xf4 lib/built-in.o
 .text.indent_string
                0x0000000000000000       0x40 lib/built-in.o
 .text.__efi_nesting
                0x0000000000000000        0xc lib/built-in.o
 .text.__efi_nesting_inc
                0x0000000000000000       0x14 lib/built-in.o
 .text.__efi_nesting_dec
                0x0000000000000000       0x14 lib/built-in.o
 .text.form_callback
                0x0000000000000000       0x1c lib/built-in.o
 .text.extract_config_access
                0x0000000000000000       0x20 lib/built-in.o
 .text.route_config_access
                0x0000000000000000       0x20 lib/built-in.o
 .text.invalidate_icache_all
                0x0000000000000000        0x4 lib/built-in.o
 .text.efi_reset_system_init
                0x0000000000000000        0x8 lib/built-in.o
 .text.efi_add_runtime_mmio
                0x0000000000000000       0x8c lib/built-in.o
 .text.LzmaDec_InitDicAndState
                0x0000000000000000       0x28 lib/built-in.o
 .text.LzmaDec_DecodeToBuf
                0x0000000000000000      0x124 lib/built-in.o
 .text.LzmaDec_Free
                0x0000000000000000       0x38 lib/built-in.o
 .text.LzmaDec_Allocate
                0x0000000000000000       0xbc lib/built-in.o
 .text.fdt_nop_property
                0x0000000000000000       0x48 lib/built-in.o
 .text.fdt_nop_node
                0x0000000000000000       0x68 lib/built-in.o
 .text.fdt_sw_probe_
                0x0000000000000000       0x38 lib/built-in.o
 .text.fdt_grab_space_
                0x0000000000000000       0x58 lib/built-in.o
 .text.fdt_add_string_
                0x0000000000000000       0xa4 lib/built-in.o
 .text.fdt_sw_probe_struct_
                0x0000000000000000       0x30 lib/built-in.o
 .text.fdt_create_with_flags
                0x0000000000000000       0x8c lib/built-in.o
 .text.fdt_create
                0x0000000000000000        0x8 lib/built-in.o
 .text.fdt_resize
                0x0000000000000000       0xfc lib/built-in.o
 .text.fdt_add_reservemap_entry
                0x0000000000000000       0x74 lib/built-in.o
 .text.fdt_finish_reservemap
                0x0000000000000000       0x2c lib/built-in.o
 .text.fdt_begin_node
                0x0000000000000000       0x7c lib/built-in.o
 .text.fdt_end_node
                0x0000000000000000       0x44 lib/built-in.o
 .text.fdt_property_placeholder
                0x0000000000000000      0x104 lib/built-in.o
 .text.fdt_property
                0x0000000000000000       0x50 lib/built-in.o
 .text.fdt_finish
                0x0000000000000000      0x11c lib/built-in.o
 .text.fdt_set_name
                0x0000000000000000       0xac lib/built-in.o
 .text.fdt_appendprop
                0x0000000000000000       0xf0 lib/built-in.o
 .text.fdt_create_empty_tree
                0x0000000000000000       0x78 lib/built-in.o
 .text.fdt_appendprop_addrrange
                0x0000000000000000      0x12c lib/built-in.o
 .text.fdt_get_property_by_offset
                0x0000000000000000       0x28 lib/built-in.o
 .text.fdt_generate_phandle
                0x0000000000000000       0x4c lib/built-in.o
 .text.fdt_get_alias
                0x0000000000000000       0x34 lib/built-in.o
 .text.fdt_node_offset_by_prop_value
                0x0000000000000000       0xb4 lib/built-in.o
 .text.fdt_node_offset_by_compatible
                0x0000000000000000       0x84 lib/built-in.o
 .text.fdt_check_full
                0x0000000000000000       0xfc lib/built-in.o
 .text.fdt_add_region
                0x0000000000000000       0x78 lib/built-in.o
 .text.fdt_find_regions
                0x0000000000000000      0x354 lib/built-in.o
 .text.fdt_add_alias_regions
                0x0000000000000000      0x1b0 lib/built-in.o
 .text.fdt_next_region
                0x0000000000000000      0x4e0 lib/built-in.o
 .text.fdt_first_region
                0x0000000000000000       0x2c lib/built-in.o
 .text.u16_strncmp
                0x0000000000000000       0x34 lib/built-in.o
 .text.u16_strnlen
                0x0000000000000000       0x24 lib/built-in.o
 .text.u16_strcpy
                0x0000000000000000       0x20 lib/built-in.o
 .text.crc7     0x0000000000000000       0x30 lib/built-in.o
 .text.crc8     0x0000000000000000       0x48 lib/built-in.o
 .text.fdtdec_get_uint
                0x0000000000000000       0x40 lib/built-in.o
 .text.ldiv     0x0000000000000000       0x2c lib/built-in.o
 .text.byteReverse
                0x0000000000000000        0x4 lib/built-in.o
 .text.md5      0x0000000000000000       0x64 lib/built-in.o
 .text.add_ip_checksums
                0x0000000000000000       0x3c lib/built-in.o
 .text.rc4_encode
                0x0000000000000000       0xd8 lib/built-in.o
 .text.sha1_csum
                0x0000000000000000       0x48 lib/built-in.o
 .text.sha1_hmac
                0x0000000000000000      0x144 lib/built-in.o
 .text.sha1_self_test
                0x0000000000000000        0x8 lib/built-in.o
 .text.sha256_hmac
                0x0000000000000000      0x144 lib/built-in.o
 .text.inflateInit_
                0x0000000000000000       0x10 lib/built-in.o
 .text.fdtdec_get_compatible
                0x0000000000000000       0x10 lib/built-in.o
 .text.fdtdec_get_uint64
                0x0000000000000000       0x44 lib/built-in.o
 .text.get_next_memory_node
                0x0000000000000000       0x68 lib/built-in.o
 .text.fdtdec_lookup
                0x0000000000000000       0x68 lib/built-in.o
 .text.fdtdec_next_compatible
                0x0000000000000000       0x10 lib/built-in.o
 .text.fdtdec_next_compatible_subnode
                0x0000000000000000       0x7c lib/built-in.o
 .text.fdtdec_next_alias
                0x0000000000000000       0xac lib/built-in.o
 .text.fdtdec_add_aliases_for_id
                0x0000000000000000      0x25c lib/built-in.o
 .text.fdtdec_find_aliases_for_id
                0x0000000000000000       0x60 lib/built-in.o
 .text.fdtdec_get_chosen_prop
                0x0000000000000000       0x44 lib/built-in.o
 .text.fdtdec_get_chosen_node
                0x0000000000000000       0x3c lib/built-in.o
 .text.fdtdec_check_fdt
                0x0000000000000000       0x18 lib/built-in.o
 .text.decode_timing_property
                0x0000000000000000       0x8c lib/built-in.o
 .text.fdtdec_locate_array
                0x0000000000000000       0x28 lib/built-in.o
 .text.fdtdec_get_child_count
                0x0000000000000000       0x44 lib/built-in.o
 .text.fdtdec_get_byte_array
                0x0000000000000000       0x48 lib/built-in.o
 .text.fdtdec_get_config_bool
                0x0000000000000000       0x54 lib/built-in.o
 .text.fdt_get_named_resource
                0x0000000000000000       0x64 lib/built-in.o
 .text.fdtdec_decode_display_timing
                0x0000000000000000      0x304 lib/built-in.o
 .text.fdtdec_setup_mem_size_base_fdt
                0x0000000000000000       0x68 lib/built-in.o
 .text.fdtdec_setup_mem_size_base
                0x0000000000000000        0x8 lib/built-in.o
 .text.fdtdec_setup_memory_banksize_fdt
                0x0000000000000000      0x100 lib/built-in.o
 .text.fdtdec_setup_memory_banksize
                0x0000000000000000        0x8 lib/built-in.o
 .text.fdtdec_set_ethernet_mac_address
                0x0000000000000000       0xc0 lib/built-in.o
 .text.fdtdec_add_reserved_memory
                0x0000000000000000      0x36c lib/built-in.o
 .text.fdtdec_get_carveout
                0x0000000000000000       0xd8 lib/built-in.o
 .text.fdtdec_set_carveout
                0x0000000000000000       0x88 lib/built-in.o
 .text.fdtdec_decode_ram_size
                0x0000000000000000      0x270 lib/built-in.o
 .text.print_freq
                0x0000000000000000      0x138 lib/built-in.o
 .text.iter_div_u64_rem
                0x0000000000000000       0x28 lib/built-in.o
 .text.copy_from_user
                0x0000000000000000       0x18 lib/built-in.o
 .text.get_mem  0x0000000000000000       0x2c lib/built-in.o
 .text.kmem_cache_alloc
                0x0000000000000000       0x14 lib/built-in.o
 .text.kmemdup  0x0000000000000000       0x4c lib/built-in.o
 .text.lmb_init
                0x0000000000000000        0xc lib/built-in.o
 .text.lmb_is_reserved
                0x0000000000000000       0x4c lib/built-in.o
 .text.board_lmb_reserve
                0x0000000000000000        0x4 lib/built-in.o
 .text.arch_lmb_reserve
                0x0000000000000000        0x4 lib/built-in.o
 .text.membuff_purge
                0x0000000000000000        0xc lib/built-in.o
 .text.membuff_putraw
                0x0000000000000000       0xb4 lib/built-in.o
 .text.membuff_putbyte
                0x0000000000000000       0x3c lib/built-in.o
 .text.membuff_getraw
                0x0000000000000000       0x80 lib/built-in.o
 .text.membuff_getbyte
                0x0000000000000000       0x3c lib/built-in.o
 .text.membuff_peekbyte
                0x0000000000000000       0x3c lib/built-in.o
 .text.membuff_get
                0x0000000000000000       0x90 lib/built-in.o
 .text.membuff_put
                0x0000000000000000       0x88 lib/built-in.o
 .text.membuff_isempty
                0x0000000000000000       0x10 lib/built-in.o
 .text.membuff_avail
                0x0000000000000000       0x54 lib/built-in.o
 .text.membuff_size
                0x0000000000000000       0x10 lib/built-in.o
 .text.membuff_makecontig
                0x0000000000000000       0xa4 lib/built-in.o
 .text.membuff_free
                0x0000000000000000       0x3c lib/built-in.o
 .text.membuff_readline
                0x0000000000000000       0xa8 lib/built-in.o
 .text.membuff_extend_by
                0x0000000000000000       0xe0 lib/built-in.o
 .text.membuff_init
                0x0000000000000000       0x10 lib/built-in.o
 .text.membuff_new
                0x0000000000000000       0x48 lib/built-in.o
 .text.membuff_uninit
                0x0000000000000000        0xc lib/built-in.o
 .text.membuff_dispose
                0x0000000000000000       0x28 lib/built-in.o
 .text.strchrnul
                0x0000000000000000       0x20 lib/built-in.o
 .text.strcspn  0x0000000000000000       0x38 lib/built-in.o
 .text.strndup  0x0000000000000000       0x60 lib/built-in.o
 .text.strswab  0x0000000000000000       0x3c lib/built-in.o
 .text.memscan  0x0000000000000000       0x24 lib/built-in.o
 .text.memchr_inv
                0x0000000000000000       0xe8 lib/built-in.o
 .text.table_compute_checksum
                0x0000000000000000       0x2c lib/built-in.o
 .text.get_ticks
                0x0000000000000000       0x44 lib/built-in.o
 .text.timer_init
                0x0000000000000000        0x8 lib/built-in.o
 .text.get_timer_us
                0x0000000000000000       0x40 lib/built-in.o
 .text.print_hex_dump
                0x0000000000000000        0x4 lib/built-in.o
 .text.print_hex_dump_bytes
                0x0000000000000000        0x4 lib/built-in.o
 .text.panic_str
                0x0000000000000000       0x10 lib/built-in.o
 .text.scnprintf
                0x0000000000000000       0x50 lib/built-in.o
 .text.print_grouped_ull
                0x0000000000000000       0x90 lib/built-in.o
 .text.str2off  0x0000000000000000       0x50 lib/built-in.o
 .text.str2long
                0x0000000000000000       0x50 lib/built-in.o
 .text.strmhz   0x0000000000000000       0x6c lib/built-in.o
 .rodata.indent_string.str1.1
                0x0000000000000000       0x15 lib/built-in.o
 .rodata.efi_guid_event_group_ready_to_boot
                0x0000000000000000       0x10 lib/built-in.o
 .rodata.efi_guid_event_group_virtual_address_change
                0x0000000000000000       0x10 lib/built-in.o
 .rodata.efi_guid_hii_config_access_protocol
                0x0000000000000000       0x10 lib/built-in.o
 .rodata.efi_hii_config_access
                0x0000000000000000       0x18 lib/built-in.o
 .rodata.efi_u_boot_guid
                0x0000000000000000       0x10 lib/built-in.o
 .rodata.fdt_create_empty_tree.str1.1
                0x0000000000000000        0x1 lib/built-in.o
 .rodata.fdt_check_full
                0x0000000000000000        0x9 lib/built-in.o
 .rodata.fdt_find_regions
                0x0000000000000000       0x12 lib/built-in.o
 .rodata.fdt_add_alias_regions.str1.1
                0x0000000000000000        0x8 lib/built-in.o
 .rodata.fdt_next_region
                0x0000000000000000       0x12 lib/built-in.o
 .rodata.crc7_syndrome_table
                0x0000000000000000      0x100 lib/built-in.o
 .rodata.sha1_der_prefix
                0x0000000000000000        0xf lib/built-in.o
 .rodata.sha256_der_prefix
                0x0000000000000000       0x13 lib/built-in.o
 .rodata.z_errmsg
                0x0000000000000000       0x50 lib/built-in.o
 .rodata.get_next_memory_node.str1.1
                0x0000000000000000       0x13 lib/built-in.o
 .rodata.fdtdec_next_alias.str1.1
                0x0000000000000000        0x7 lib/built-in.o
 .rodata.fdtdec_get_chosen_prop.str1.1
                0x0000000000000000        0x8 lib/built-in.o
 .rodata.fdtdec_decode_display_timing.str1.1
                0x0000000000000000       0xca lib/built-in.o
 .rodata.fdtdec_setup_mem_size_base_fdt.str1.1
                0x0000000000000000        0xc lib/built-in.o
 .rodata.fdtdec_set_ethernet_mac_address.str1.1
                0x0000000000000000       0x1b lib/built-in.o
 .rodata.fdtdec_add_reserved_memory.str1.1
                0x0000000000000000       0x5a lib/built-in.o
 .rodata.fdtdec_decode_ram_size.str1.1
                0x0000000000000000       0x21 lib/built-in.o
 .rodata.compat_names
                0x0000000000000000      0x118 lib/built-in.o
 .rodata.names.7469
                0x0000000000000000        0x3 lib/built-in.o
 .rodata.hex_asc_upper
                0x0000000000000000       0x11 lib/built-in.o
 .rodata.print_grouped_ull.str1.1
                0x0000000000000000        0xb lib/built-in.o
 .rodata.strmhz.str1.1
                0x0000000000000000        0xb lib/built-in.o
 .eh_frame      0x0000000000000000     0x7410 lib/built-in.o
 .data          0x0000000000000000        0x0 lib/built-in.o
 .data.cur      0x0000000000000000        0x4 lib/built-in.o
 .data.current  0x0000000000000000        0x8 lib/built-in.o
 .bss           0x0000000000000000        0x0 lib/built-in.o
 .bss.nesting_level
                0x0000000000000000        0x4 lib/built-in.o
 .text          0x0000000000000000        0x0 net/built-in.o
 .text.eth_init_state_only
                0x0000000000000000       0x38 net/built-in.o
 .text.net_get_udp_handler
                0x0000000000000000        0xc net/built-in.o
 .text.net_set_arp_handler
                0x0000000000000000       0x18 net/built-in.o
 .text.random_port
                0x0000000000000000       0x20 net/built-in.o
 .text.vlan_to_string
                0x0000000000000000       0x44 net/built-in.o
 .text.env_get_vlan
                0x0000000000000000       0x14 net/built-in.o
 .rodata.vlan_to_string.str1.1
                0x0000000000000000        0x8 net/built-in.o
 .eh_frame      0x0000000000000000     0x1134 net/built-in.o
 .data          0x0000000000000000        0x0 net/built-in.o
 .data.tftp_timeout_ms
                0x0000000000000000        0x8 net/built-in.o
 .bss           0x0000000000000000        0x0 net/built-in.o
 .bss.net_busy_flag
                0x0000000000000000        0x4 net/built-in.o

Memory Configuration

Name             Origin             Length             Attributes
*default*        0x0000000000000000 0xffffffffffffffff

Linker script and memory map

Address of section .text set to 0x40200000
                0x0000000000000000                . = 0x0
                0x0000000000000000                . = ALIGN (0x8)

.text           0x0000000040200000      0x114
 *(.__image_copy_start)
 .__image_copy_start
                0x0000000040200000        0x0 arch/arm/lib/built-in.o
                0x0000000040200000                __image_copy_start
 arch/arm/cpu/armv8/start.o(.text*)
 .text          0x0000000040200000      0x114 arch/arm/cpu/armv8/start.o
                0x0000000040200000                _start
                0x0000000040200008                _TEXT_BASE
                0x0000000040200010                _end_ofs
                0x0000000040200018                _bss_start_ofs
                0x0000000040200020                _bss_end_ofs
                0x000000004020002c                save_boot_params_ret
                0x000000004020008c                apply_core_errata
                0x00000000402000d4                smp_kick_all_cpus
                0x00000000402000d8                c_runtime_cpu_setup

.efi_runtime    0x0000000040200118      0xa58
                0x0000000040200118                __efi_runtime_start = .
 *(.text.efi_runtime*)
 .text.efi_runtime
                0x0000000040200118       0x58 arch/arm/cpu/armv8/built-in.o
                0x0000000040200118                __arm_smccc_smc
                0x0000000040200144                __arm_smccc_hvc
 .text.efi_runtime
                0x0000000040200170       0xd4 drivers/built-in.o
                0x0000000040200170                invoke_psci_fn
                0x00000000402001ec                efi_reset_system
 .text.efi_runtime
                0x0000000040200244      0x228 lib/built-in.o
                0x0000000040200248                efi_get_time
                0x0000000040200250                efi_set_time
                0x0000000040200270                efi_update_capsule
                0x0000000040200278                efi_query_capsule_caps
                0x0000000040200328                efi_update_table_header_crc32
                0x0000000040200374                efi_query_variable_info
                0x000000004020037c                crc32_no_comp
                0x0000000040200450                crc32
 .text.efi_runtime_detach
                0x000000004020046c       0x34 lib/built-in.o
                0x000000004020046c                efi_runtime_detach
 .text.efi_runtime_relocate
                0x00000000402004a0      0x128 lib/built-in.o
                0x00000000402004a0                efi_runtime_relocate
 *(.rodata.efi_runtime*)
 .rodata.efi_runtime_relocate.str1.1
                0x00000000402005c8       0x4e lib/built-in.o
 *(.data.efi_runtime*)
 *fill*         0x0000000040200616        0x2 
 .data.efi_runtime
                0x0000000040200618        0x4 drivers/built-in.o
                0x0000000040200618                psci_method
 *fill*         0x000000004020061c        0x4 
 .data.efi_runtime
                0x0000000040200620      0x540 lib/built-in.o
                0x0000000040200620                efi_events
                0x0000000040200630                systab
                0x00000000402006d8                efi_runtime_services
 .data.efi_runtime_mmio
                0x0000000040200b60       0x10 lib/built-in.o
                0x0000000040200b60                efi_runtime_mmio
                0x0000000040200b70                __efi_runtime_stop = .

.text_rest      0x0000000040201000    0x74a04
 *(.text*)
 .text          0x0000000040201000      0x390 arch/arm/cpu/armv8/built-in.o
                0x0000000040201000                vectors
 .text.board_cleanup_before_linux
                0x0000000040201390        0x4 arch/arm/cpu/armv8/built-in.o
                0x0000000040201390                board_cleanup_before_linux
 .text.cleanup_before_linux
                0x0000000040201394       0x2c arch/arm/cpu/armv8/built-in.o
                0x0000000040201394                cleanup_before_linux
 .text.get_tbclk
                0x00000000402013c0        0x8 arch/arm/cpu/armv8/built-in.o
                0x00000000402013c0                get_tbclk
 .text.get_ticks
                0x00000000402013c8       0x10 arch/arm/cpu/armv8/built-in.o
                0x00000000402013c8                get_ticks
 .text.count_required_pts
                0x00000000402013d8       0xf8 arch/arm/cpu/armv8/built-in.o
 .text.create_table
                0x00000000402014d0       0x70 arch/arm/cpu/armv8/built-in.o
 .text.split_block
                0x0000000040201540       0x90 arch/arm/cpu/armv8/built-in.o
 .text.get_tcr  0x00000000402015d0       0xe4 arch/arm/cpu/armv8/built-in.o
                0x00000000402015d0                get_tcr
 .text.find_pte
                0x00000000402016b4       0x8c arch/arm/cpu/armv8/built-in.o
 .text.get_page_table_size
                0x0000000040201740       0x48 arch/arm/cpu/armv8/built-in.o
                0x0000000040201740                get_page_table_size
 .text.setup_pgtables
                0x0000000040201788      0x16c arch/arm/cpu/armv8/built-in.o
                0x0000000040201788                setup_pgtables
 .text.mmu_setup
                0x00000000402018f4      0x13c arch/arm/cpu/armv8/built-in.o
                0x00000000402018f4                mmu_setup
 .text.invalidate_dcache_all
                0x0000000040201a30       0x14 arch/arm/cpu/armv8/built-in.o
                0x0000000040201a30                invalidate_dcache_all
 .text.flush_dcache_all
                0x0000000040201a44       0x14 arch/arm/cpu/armv8/built-in.o
                0x0000000040201a44                flush_dcache_all
 .text.invalidate_dcache_range
                0x0000000040201a58        0x4 arch/arm/cpu/armv8/built-in.o
                0x0000000040201a58                invalidate_dcache_range
 .text.flush_dcache_range
                0x0000000040201a5c        0x4 arch/arm/cpu/armv8/built-in.o
                0x0000000040201a5c                flush_dcache_range
 .text.dcache_enable
                0x0000000040201a60      0x110 arch/arm/cpu/armv8/built-in.o
                0x0000000040201a60                dcache_enable
 .text.dcache_disable
                0x0000000040201b70       0x84 arch/arm/cpu/armv8/built-in.o
                0x0000000040201b70                dcache_disable
 .text.dcache_status
                0x0000000040201bf4       0x34 arch/arm/cpu/armv8/built-in.o
                0x0000000040201bf4                dcache_status
 .text.icache_disable
                0x0000000040201c28       0x64 arch/arm/cpu/armv8/built-in.o
                0x0000000040201c28                icache_disable
 .text.icache_status
                0x0000000040201c8c       0x34 arch/arm/cpu/armv8/built-in.o
                0x0000000040201c8c                icache_status
 .text.invalidate_icache_all
                0x0000000040201cc0       0x14 arch/arm/cpu/armv8/built-in.o
                0x0000000040201cc0                invalidate_icache_all
 .text.icache_enable
                0x0000000040201cd4       0x74 arch/arm/cpu/armv8/built-in.o
                0x0000000040201cd4                icache_enable
 .text.entry_non_secure
                0x0000000040201d48       0x28 arch/arm/cpu/armv8/built-in.o
 .text.switch_to_non_secure_mode
                0x0000000040201d70       0x54 arch/arm/cpu/armv8/built-in.o
                0x0000000040201d70                switch_to_non_secure_mode
 .text.__asm_dcache_level
                0x0000000040201dc4       0x64 arch/arm/cpu/armv8/built-in.o
                0x0000000040201dc4                __asm_dcache_level
 .text.__asm_dcache_all
                0x0000000040201e28       0x60 arch/arm/cpu/armv8/built-in.o
                0x0000000040201e28                __asm_dcache_all
 .text.__asm_flush_dcache_all
                0x0000000040201e88        0x8 arch/arm/cpu/armv8/built-in.o
                0x0000000040201e88                __asm_flush_dcache_all
 .text.__asm_invalidate_dcache_all
                0x0000000040201e90        0x8 arch/arm/cpu/armv8/built-in.o
                0x0000000040201e90                __asm_invalidate_dcache_all
 .text.__asm_flush_dcache_range
                0x0000000040201e98       0x34 arch/arm/cpu/armv8/built-in.o
                0x0000000040201e98                __asm_flush_dcache_range
 .text.__asm_invalidate_dcache_range
                0x0000000040201ecc       0x30 arch/arm/cpu/armv8/built-in.o
                0x0000000040201ecc                __asm_invalidate_dcache_range
 .text.__asm_invalidate_icache_all
                0x0000000040201efc        0xc arch/arm/cpu/armv8/built-in.o
                0x0000000040201efc                __asm_invalidate_icache_all
 .text.__asm_invalidate_l3_dcache
                0x0000000040201f08        0x8 arch/arm/cpu/armv8/built-in.o
                0x0000000040201f08                __asm_invalidate_l3_dcache
 .text.__asm_flush_l3_dcache
                0x0000000040201f10        0x8 arch/arm/cpu/armv8/built-in.o
                0x0000000040201f10                __asm_flush_l3_dcache
 .text.__asm_invalidate_l3_icache
                0x0000000040201f18        0x8 arch/arm/cpu/armv8/built-in.o
                0x0000000040201f18                __asm_invalidate_l3_icache
 .text.__asm_invalidate_tlb_all
                0x0000000040201f20       0x4c arch/arm/cpu/armv8/built-in.o
                0x0000000040201f20                __asm_invalidate_tlb_all
 *fill*         0x0000000040201f6c        0x4 
 .text.armv8_switch_to_el2
                0x0000000040201f70       0xb8 arch/arm/cpu/armv8/built-in.o
                0x0000000040201f70                armv8_switch_to_el2
 .text.armv8_el2_to_aarch32
                0x0000000040202028        0x4 arch/arm/cpu/armv8/built-in.o
                0x0000000040202028                armv8_el2_to_aarch32
 .text.smc_call
                0x000000004020202c       0x44 arch/arm/cpu/armv8/built-in.o
                0x000000004020202c                smc_call
 .text          0x0000000040202070      0x158 arch/arm/lib/built-in.o
                0x0000000040202070                _main
                0x00000000402020f0                relocate_code
 .text.setjmp   0x00000000402021c8       0x28 arch/arm/lib/built-in.o
                0x00000000402021c8                setjmp
 .text.longjmp  0x00000000402021f0       0x2c arch/arm/lib/built-in.o
                0x00000000402021f0                longjmp
 .text.arch_fixup_fdt
                0x000000004020221c       0x50 arch/arm/lib/built-in.o
                0x000000004020221c                arch_fixup_fdt
 .text.arch_lmb_reserve
                0x000000004020226c       0x84 arch/arm/lib/built-in.o
                0x000000004020226c                arch_lmb_reserve
 .text.setup_board_tags
                0x00000000402022f0        0x4 arch/arm/lib/built-in.o
                0x00000000402022f0                setup_board_tags
 .text.board_prep_linux
                0x00000000402022f4        0x4 arch/arm/lib/built-in.o
                0x00000000402022f4                board_prep_linux
 .text.boot_prep_linux
                0x00000000402022f8      0x100 arch/arm/lib/built-in.o
 .text.update_os_arch_secondary_cores
                0x00000000402023f8        0x4 arch/arm/lib/built-in.o
                0x00000000402023f8                update_os_arch_secondary_cores
 .text.boot_jump_linux
                0x00000000402023fc       0xc0 arch/arm/lib/built-in.o
 .text.do_bootm_linux
                0x00000000402024bc       0x7c arch/arm/lib/built-in.o
                0x00000000402024bc                do_bootm_linux
 .text.boot_prep_vxworks
                0x0000000040202538       0x50 arch/arm/lib/built-in.o
                0x0000000040202538                boot_prep_vxworks
 .text.boot_jump_vxworks
                0x0000000040202588       0x10 arch/arm/lib/built-in.o
                0x0000000040202588                boot_jump_vxworks
 .text.booti_setup
                0x0000000040202598       0xb8 arch/arm/lib/built-in.o
                0x0000000040202598                booti_setup
 .text.arch_reserve_stacks
                0x0000000040202650       0x10 arch/arm/lib/built-in.o
                0x0000000040202650                arch_reserve_stacks
 .text.interrupt_init
                0x0000000040202660        0x8 arch/arm/lib/built-in.o
                0x0000000040202660                interrupt_init
 .text.enable_interrupts
                0x0000000040202668        0x4 arch/arm/lib/built-in.o
                0x0000000040202668                enable_interrupts
 .text.disable_interrupts
                0x000000004020266c        0x8 arch/arm/lib/built-in.o
                0x000000004020266c                disable_interrupts
 .text.show_regs
                0x0000000040202674      0x108 arch/arm/lib/built-in.o
                0x0000000040202674                show_regs
 .text.do_bad_sync
                0x000000004020277c       0x44 arch/arm/lib/built-in.o
                0x000000004020277c                do_bad_sync
 .text.do_bad_irq
                0x00000000402027c0       0x44 arch/arm/lib/built-in.o
                0x00000000402027c0                do_bad_irq
 .text.do_bad_fiq
                0x0000000040202804       0x44 arch/arm/lib/built-in.o
                0x0000000040202804                do_bad_fiq
 .text.do_bad_error
                0x0000000040202848       0x44 arch/arm/lib/built-in.o
                0x0000000040202848                do_bad_error
 .text.do_sync  0x000000004020288c       0x44 arch/arm/lib/built-in.o
                0x000000004020288c                do_sync
 .text.do_irq   0x00000000402028d0       0x44 arch/arm/lib/built-in.o
                0x00000000402028d0                do_irq
 .text.do_fiq   0x0000000040202914       0x44 arch/arm/lib/built-in.o
                0x0000000040202914                do_fiq
 .text.do_error
                0x0000000040202958       0x44 arch/arm/lib/built-in.o
                0x0000000040202958                do_error
 .text.flush_cache
                0x000000004020299c        0x8 arch/arm/lib/built-in.o
                0x000000004020299c                flush_cache
 *fill*         0x00000000402029a4       0x5c 
 .text          0x0000000040202a00      0x298 arch/arm/mach-imx/built-in.o
                0x0000000040202a00                lowlevel_init
                0x0000000040202b00                rom_pointer
                0x0000000040202c00                save_boot_params
                0x0000000040202c4c                restore_boot_params
 .text.imx_iomux_v3_setup_pad
                0x0000000040202c98       0xc4 arch/arm/mach-imx/built-in.o
                0x0000000040202c98                imx_iomux_v3_setup_pad
 .text.imx_iomux_v3_setup_multiple_pads
                0x0000000040202d5c       0x44 arch/arm/mach-imx/built-in.o
                0x0000000040202d5c                imx_iomux_v3_setup_multiple_pads
 .text.arch_auxiliary_core_up
                0x0000000040202da0       0x74 arch/arm/mach-imx/built-in.o
                0x0000000040202da0                arch_auxiliary_core_up
 .text.arch_auxiliary_core_check_up
                0x0000000040202e14       0x2c arch/arm/mach-imx/built-in.o
                0x0000000040202e14                arch_auxiliary_core_check_up
 .text.do_bootaux
                0x0000000040202e40       0xa0 arch/arm/mach-imx/built-in.o
 .text.board_mmc_get_env_dev
                0x0000000040202ee0        0x4 arch/arm/mach-imx/built-in.o
                0x0000000040202ee0                board_mmc_get_env_dev
 .text.mmc_get_env_dev
                0x0000000040202ee4       0x48 arch/arm/mach-imx/built-in.o
                0x0000000040202ee4                mmc_get_env_dev
 .text.imx_get_mac_from_fuse
                0x0000000040202f2c      0x180 arch/arm/mach-imx/built-in.o
                0x0000000040202f2c                imx_get_mac_from_fuse
 .text.get_imx_reset_cause
                0x00000000402030ac       0x28 arch/arm/mach-imx/built-in.o
                0x00000000402030ac                get_imx_reset_cause
 .text.get_reset_cause
                0x00000000402030d4       0xec arch/arm/mach-imx/built-in.o
 .text.get_reboot_reason
                0x00000000402031c0       0x38 arch/arm/mach-imx/built-in.o
                0x00000000402031c0                get_reboot_reason
 .text.get_imx_type
                0x00000000402031f8      0x220 arch/arm/mach-imx/built-in.o
                0x00000000402031f8                get_imx_type
 .text.arch_preboot_os
                0x0000000040203418        0x4 arch/arm/mach-imx/built-in.o
                0x0000000040203418                arch_preboot_os
 .text.get_cpu_speed_grade_hz
                0x000000004020341c      0x2cc arch/arm/mach-imx/built-in.o
                0x000000004020341c                get_cpu_speed_grade_hz
 .text.get_cpu_temp_grade
                0x00000000402036e8       0xfc arch/arm/mach-imx/built-in.o
                0x00000000402036e8                get_cpu_temp_grade
 .text.print_cpuinfo
                0x00000000402037e4      0x164 arch/arm/mach-imx/built-in.o
                0x00000000402037e4                print_cpuinfo
 .text.get_boot_device
                0x0000000040203948       0x94 arch/arm/mach-imx/built-in.o
                0x0000000040203948                get_boot_device
 .text.set_dt_val
                0x00000000402039dc       0x3c arch/arm/mach-imx/built-in.o
 .text.board_lmb_reserve
                0x0000000040203a18       0x6c arch/arm/mach-imx/built-in.o
                0x0000000040203a18                board_lmb_reserve
 .text.imx_sec_init
                0x0000000040203a84        0x4 arch/arm/mach-imx/built-in.o
                0x0000000040203a84                imx_sec_init
 .text.add_dt_path_subnode
                0x0000000040203a88       0x48 arch/arm/mach-imx/built-in.o
                0x0000000040203a88                add_dt_path_subnode
 .text.add_res_mem_dt_node
                0x0000000040203ad0      0x1dc arch/arm/mach-imx/built-in.o
                0x0000000040203ad0                add_res_mem_dt_node
 .text.ft_add_optee_node
                0x0000000040203cac      0x1ac arch/arm/mach-imx/built-in.o
                0x0000000040203cac                ft_add_optee_node
 .text.call_imx_sip
                0x0000000040203e58       0x28 arch/arm/mach-imx/built-in.o
                0x0000000040203e58                call_imx_sip
 .text.select   0x0000000040203e80       0x34 arch/arm/mach-imx/built-in.o
 .text.get_clk_root_target
                0x0000000040203eb4       0x8c arch/arm/mach-imx/built-in.o
 .text.clock_get_target_val
                0x0000000040203f40       0x68 arch/arm/mach-imx/built-in.o
                0x0000000040203f40                clock_get_target_val
 .text.clock_set_target_val
                0x0000000040203fa8       0x64 arch/arm/mach-imx/built-in.o
                0x0000000040203fa8                clock_set_target_val
 .text.clock_root_enabled
                0x000000004020400c       0x74 arch/arm/mach-imx/built-in.o
                0x000000004020400c                clock_root_enabled
 .text.clock_enable
                0x0000000040204080       0x4c arch/arm/mach-imx/built-in.o
                0x0000000040204080                clock_enable
 .text.clock_get_prediv
                0x00000000402040cc       0x84 arch/arm/mach-imx/built-in.o
                0x00000000402040cc                clock_get_prediv
 .text.clock_get_postdiv
                0x0000000040204150       0xa4 arch/arm/mach-imx/built-in.o
                0x0000000040204150                clock_get_postdiv
 .text.clock_get_src
                0x00000000402041f4       0x70 arch/arm/mach-imx/built-in.o
                0x00000000402041f4                clock_get_src
 .text.get_cpu_variant_type
                0x0000000040204264      0x16c arch/arm/mach-imx/built-in.o
 .text.disable_fdt_nodes
                0x00000000402043d0      0x104 arch/arm/mach-imx/built-in.o
 .text.disable_cpu_nodes
                0x00000000402044d4       0xe0 arch/arm/mach-imx/built-in.o
 .text.timer_init
                0x00000000402045b4       0x10 arch/arm/mach-imx/built-in.o
                0x00000000402045b4                timer_init
 .text.set_wdog_reset
                0x00000000402045c4       0x18 arch/arm/mach-imx/built-in.o
                0x00000000402045c4                set_wdog_reset
 .text.enable_caches
                0x00000000402045dc       0x98 arch/arm/mach-imx/built-in.o
                0x00000000402045dc                enable_caches
 .text.get_cpu_rev
                0x0000000040204674       0xbc arch/arm/mach-imx/built-in.o
                0x0000000040204674                get_cpu_rev
 .text.arch_cpu_init_dm
                0x0000000040204730       0x4c arch/arm/mach-imx/built-in.o
                0x0000000040204730                arch_cpu_init_dm
 .text.arch_cpu_init
                0x000000004020477c       0x7c arch/arm/mach-imx/built-in.o
                0x000000004020477c                arch_cpu_init
 .text.is_usb_boot
                0x00000000402047f8       0x1c arch/arm/mach-imx/built-in.o
                0x00000000402047f8                is_usb_boot
 .text.get_board_serial
                0x0000000040204814       0x1c arch/arm/mach-imx/built-in.o
                0x0000000040204814                get_board_serial
 .text.board_quiesce_devices
                0x0000000040204830        0x4 arch/arm/mach-imx/built-in.o
                0x0000000040204830                board_quiesce_devices
 .text.disable_vpu_nodes
                0x0000000040204834      0x180 arch/arm/mach-imx/built-in.o
                0x0000000040204834                disable_vpu_nodes
 .text.ft_system_setup
                0x00000000402049b4       0xbc arch/arm/mach-imx/built-in.o
                0x00000000402049b4                ft_system_setup
 .text.arch_misc_init
                0x0000000040204a70       0x60 arch/arm/mach-imx/built-in.o
                0x0000000040204a70                arch_misc_init
 .text.imx8m_usb_power
                0x0000000040204ad0       0x48 arch/arm/mach-imx/built-in.o
                0x0000000040204ad0                imx8m_usb_power
 .text.nxp_tmu_arch_init
                0x0000000040204b18      0x118 arch/arm/mach-imx/built-in.o
                0x0000000040204b18                nxp_tmu_arch_init
 .text.decode_intpll
                0x0000000040204c30      0x1b4 arch/arm/mach-imx/built-in.o
 .text.decode_fracpll
                0x0000000040204de4      0x130 arch/arm/mach-imx/built-in.o
 .text.get_root_src_clk
                0x0000000040204f14       0x94 arch/arm/mach-imx/built-in.o
 .text.get_root_clk
                0x0000000040204fa8       0x80 arch/arm/mach-imx/built-in.o
 .text.enable_ocotp_clk
                0x0000000040205028       0x10 arch/arm/mach-imx/built-in.o
                0x0000000040205028                enable_ocotp_clk
 .text.init_uart_clk
                0x0000000040205038       0xc8 arch/arm/mach-imx/built-in.o
                0x0000000040205038                init_uart_clk
 .text.get_arm_core_clk
                0x0000000040205100       0x30 arch/arm/mach-imx/built-in.o
                0x0000000040205100                get_arm_core_clk
 .text.mxc_get_clock
                0x0000000040205130       0xbc arch/arm/mach-imx/built-in.o
                0x0000000040205130                mxc_get_clock
 .text.do_mscale_showclocks
                0x00000000402051ec      0x24c arch/arm/mach-imx/built-in.o
                0x00000000402051ec                do_mscale_showclocks
 .text.imx_get_uartclk
                0x0000000040205438        0x8 arch/arm/mach-imx/built-in.o
                0x0000000040205438                imx_get_uartclk
 .text.enable_usboh3_clk
                0x0000000040205440       0x5c arch/arm/mach-imx/built-in.o
                0x0000000040205440                enable_usboh3_clk
 .text.var_eeprom_get_mac
                0x000000004020549c       0x60 board/variscite/imx8mm_var_dart/built-in.o
                0x000000004020549c                var_eeprom_get_mac
 .text.var_eeprom_get_dram_size
                0x00000000402054fc       0x50 board/variscite/imx8mm_var_dart/built-in.o
                0x00000000402054fc                var_eeprom_get_dram_size
 .text.var_eeprom_print_prod_info
                0x000000004020554c      0x100 board/variscite/imx8mm_var_dart/built-in.o
                0x000000004020554c                var_eeprom_print_prod_info
 .text.var_carrier_eeprom_read
                0x000000004020564c       0x60 board/variscite/imx8mm_var_dart/built-in.o
                0x000000004020564c                var_carrier_eeprom_read
 .text.var_carrier_eeprom_is_valid
                0x00000000402056ac       0x9c board/variscite/imx8mm_var_dart/built-in.o
                0x00000000402056ac                var_carrier_eeprom_is_valid
 .text.var_carrier_eeprom_get_revision
                0x0000000040205748       0x4c board/variscite/imx8mm_var_dart/built-in.o
                0x0000000040205748                var_carrier_eeprom_get_revision
 .text.get_board_id
                0x0000000040205794       0x68 board/variscite/imx8mm_var_dart/built-in.o
                0x0000000040205794                get_board_id
 .text.board_early_init_f
                0x00000000402057fc       0x74 board/variscite/imx8mm_var_dart/built-in.o
                0x00000000402057fc                board_early_init_f
 .text.board_usb_init
                0x0000000040205870       0x1c board/variscite/imx8mm_var_dart/built-in.o
                0x0000000040205870                board_usb_init
 .text.board_usb_cleanup
                0x000000004020588c       0x1c board/variscite/imx8mm_var_dart/built-in.o
                0x000000004020588c                board_usb_cleanup
 .text.board_init
                0x00000000402058a8       0x18 board/variscite/imx8mm_var_dart/built-in.o
                0x00000000402058a8                board_init
 .text.board_late_init
                0x00000000402058c0      0x1b4 board/variscite/imx8mm_var_dart/built-in.o
                0x00000000402058c0                board_late_init
 .text.mmc_map_to_kernel_blk
                0x0000000040205a74        0x4 board/variscite/imx8mm_var_dart/built-in.o
                0x0000000040205a74                mmc_map_to_kernel_blk
 .text.board_late_mmc_env_init
                0x0000000040205a78       0x88 board/variscite/imx8mm_var_dart/built-in.o
                0x0000000040205a78                board_late_mmc_env_init
 .text.board_phy_config
                0x0000000040205b00       0xd4 board/variscite/imx8mm_var_dart/built-in.o
                0x0000000040205b00                board_phy_config
 .text.var_setup_mac
                0x0000000040205bd4       0xa0 board/variscite/imx8mm_var_dart/built-in.o
                0x0000000040205bd4                var_setup_mac
 .text.dram_init_banksize
                0x0000000040205c74       0xe8 board/variscite/imx8mm_var_dart/built-in.o
                0x0000000040205c74                dram_init_banksize
 .text.dram_init
                0x0000000040205d5c       0x6c board/variscite/imx8mm_var_dart/built-in.o
                0x0000000040205d5c                dram_init
 .text.get_effective_memsize
                0x0000000040205dc8       0x38 board/variscite/imx8mm_var_dart/built-in.o
                0x0000000040205dc8                get_effective_memsize
 .text.do_go_exec
                0x0000000040205e00       0x20 cmd/built-in.o
                0x0000000040205e00                do_go_exec
 .text.do_go    0x0000000040205e20       0x88 cmd/built-in.o
 .text.do_bootm
                0x0000000040205ea8      0x104 cmd/built-in.o
                0x0000000040205ea8                do_bootm
 .text.do_bootd
                0x0000000040205fac       0x2c cmd/built-in.o
                0x0000000040205fac                do_bootd
 .text.image_info
                0x0000000040205fd8      0x148 cmd/built-in.o
 .text.do_iminfo
                0x0000000040206120       0x7c cmd/built-in.o
 .text.bootm_maybe_autostart
                0x000000004020619c       0x74 cmd/built-in.o
                0x000000004020619c                bootm_maybe_autostart
 .text.do_help  0x0000000040206210       0x44 cmd/built-in.o
 .text.do_version
                0x0000000040206254       0x40 cmd/built-in.o
 .text.blk_common_cmd
                0x0000000040206294      0x330 cmd/built-in.o
                0x0000000040206294                blk_common_cmd
 .text.image_source_script
                0x00000000402065c4      0x204 cmd/built-in.o
                0x00000000402065c4                image_source_script
 .text.do_source
                0x00000000402067c8       0x78 cmd/built-in.o
 .text.print_num
                0x0000000040206840       0x18 cmd/built-in.o
 .text.do_bdinfo
                0x0000000040206858      0x134 cmd/built-in.o
 .text.do_blkcache
                0x000000004020698c       0x84 cmd/built-in.o
 .text.blkc_configure
                0x0000000040206a10       0x78 cmd/built-in.o
 .text.blkc_show
                0x0000000040206a88       0x34 cmd/built-in.o
 .text.efi_reserve_memory
                0x0000000040206abc       0x60 cmd/built-in.o
 .text.do_bootefi_exec
                0x0000000040206b1c      0x1c4 cmd/built-in.o
 .text.efi_install_fdt
                0x0000000040206ce0      0x364 cmd/built-in.o
                0x0000000040206ce0                efi_install_fdt
 .text.efi_run_image
                0x0000000040207044       0xe8 cmd/built-in.o
                0x0000000040207044                efi_run_image
 .text.do_bootefi
                0x000000004020712c      0x124 cmd/built-in.o
 .text.efi_set_bootdev
                0x0000000040207250       0xa4 cmd/built-in.o
                0x0000000040207250                efi_set_bootdev
 .text.do_booti
                0x00000000402072f4      0x118 cmd/built-in.o
                0x00000000402072f4                do_booti
 .text.parse_argv
                0x000000004020740c       0x68 cmd/built-in.o
 .text.do_icache
                0x0000000040207474       0x98 cmd/built-in.o
 .text.do_dcache
                0x000000004020750c       0x98 cmd/built-in.o
 .text.show_clks
                0x00000000402075a4      0x128 cmd/built-in.o
 .text.do_clk   0x00000000402076cc       0x84 cmd/built-in.o
 .text.soc_clk_dump
                0x0000000040207750       0x50 cmd/built-in.o
                0x0000000040207750                soc_clk_dump
 .text.do_clk_dump
                0x00000000402077a0       0x2c cmd/built-in.o
 .text.do_coninfo
                0x00000000402077cc       0xdc cmd/built-in.o
 .text.do_dm_dump_devres
                0x00000000402078a8        0x8 cmd/built-in.o
 .text.do_dm    0x00000000402078b0       0x94 cmd/built-in.o
 .text.do_dm_dump_drivers
                0x0000000040207944       0x18 cmd/built-in.o
 .text.do_dm_dump_uclass
                0x000000004020795c       0x18 cmd/built-in.o
 .text.do_dm_dump_all
                0x0000000040207974       0x18 cmd/built-in.o
 .text.do_echo  0x000000004020798c       0xd4 cmd/built-in.o
 .text.load_elf_image_phdr
                0x0000000040207a60      0x130 cmd/built-in.o
 .text.valid_elf_image
                0x0000000040207b90       0x58 cmd/built-in.o
                0x0000000040207b90                valid_elf_image
 .text.do_bootelf
                0x0000000040207be8      0x290 cmd/built-in.o
                0x0000000040207be8                do_bootelf
 .text.do_bootvx
                0x0000000040207e78      0x334 cmd/built-in.o
                0x0000000040207e78                do_bootvx
 .text.do_exit  0x00000000402081ac       0x40 cmd/built-in.o
 .text.do_ext4_size
                0x00000000402081ec        0x8 cmd/built-in.o
                0x00000000402081ec                do_ext4_size
 .text.do_ext4_load
                0x00000000402081f4        0x8 cmd/built-in.o
                0x00000000402081f4                do_ext4_load
 .text.do_ext4_ls
                0x00000000402081fc        0x8 cmd/built-in.o
                0x00000000402081fc                do_ext4_ls
 .text.do_ext4_write
                0x0000000040208204        0x8 cmd/built-in.o
                0x0000000040208204                do_ext4_write
 .text.do_fat_size
                0x000000004020820c        0x8 cmd/built-in.o
                0x000000004020820c                do_fat_size
 .text.do_fat_fsload
                0x0000000040208214        0x8 cmd/built-in.o
                0x0000000040208214                do_fat_fsload
 .text.do_fat_ls
                0x000000004020821c        0x8 cmd/built-in.o
 .text.do_fat_fsinfo
                0x0000000040208224       0x94 cmd/built-in.o
 .text.do_fat_fswrite
                0x00000000402082b8      0x148 cmd/built-in.o
 .text.do_fat_rm
                0x0000000040208400        0x8 cmd/built-in.o
 .text.do_fat_mkdir
                0x0000000040208408        0x8 cmd/built-in.o
 .text.fdt_valid
                0x0000000040208410       0xcc cmd/built-in.o
 .text.is_printable_string
                0x00000000402084dc       0x84 cmd/built-in.o
 .text.print_data
                0x0000000040208560      0x1bc cmd/built-in.o
 .text.set_working_fdt_addr
                0x000000004020871c       0x18 cmd/built-in.o
                0x000000004020871c                set_working_fdt_addr
 .text.do_fdt   0x0000000040208734     0x1018 cmd/built-in.o
 .text.do_size_wrapper
                0x000000004020974c        0x8 cmd/built-in.o
 .text.do_load_wrapper
                0x0000000040209754        0x8 cmd/built-in.o
 .text.do_save_wrapper
                0x000000004020975c        0x8 cmd/built-in.o
 .text.do_ls_wrapper
                0x0000000040209764        0x8 cmd/built-in.o
 .text.do_ln_wrapper
                0x000000004020976c        0x8 cmd/built-in.o
 .text.do_fstype_wrapper
                0x0000000040209774        0x4 cmd/built-in.o
 .text.strtou32
                0x0000000040209778       0x54 cmd/built-in.o
 .text.do_fuse  0x00000000402097cc      0x360 cmd/built-in.o
 .text.gpio_get_description
                0x0000000040209b2c       0xdc cmd/built-in.o
 .text.do_gpio  0x0000000040209c08      0x38c cmd/built-in.o
 .text.do_i2c   0x0000000040209f94       0x84 cmd/built-in.o
 .text.i2c_get_cur_bus
                0x000000004020a018       0x38 cmd/built-in.o
 .text.do_i2c_bus_speed
                0x000000004020a050       0xb0 cmd/built-in.o
 .text.do_i2c_reset
                0x000000004020a100       0x38 cmd/built-in.o
 .text.i2c_get_cur_bus_chip
                0x000000004020a138       0x40 cmd/built-in.o
 .text.do_i2c_probe
                0x000000004020a178       0xcc cmd/built-in.o
 .text.do_i2c_bus_num
                0x000000004020a244       0xb4 cmd/built-in.o
 .text.show_bus
                0x000000004020a2f8       0x98 cmd/built-in.o
 .text.do_i2c_olen
                0x000000004020a390       0xbc cmd/built-in.o
 .text.do_i2c_flags
                0x000000004020a44c       0xcc cmd/built-in.o
 .text.do_i2c_show_bus
                0x000000004020a518       0xc0 cmd/built-in.o
 .text.get_alen.constprop.0
                0x000000004020a5d8       0x38 cmd/built-in.o
 .text.do_i2c_crc
                0x000000004020a610      0x17c cmd/built-in.o
 .text.mod_i2c_mem.isra.0.part.0
                0x000000004020a78c      0x248 cmd/built-in.o
 .text.do_i2c_nm
                0x000000004020a9d4       0x1c cmd/built-in.o
 .text.do_i2c_md
                0x000000004020a9f0      0x238 cmd/built-in.o
 .text.do_i2c_read
                0x000000004020ac28      0x104 cmd/built-in.o
 .text.do_i2c_mw
                0x000000004020ad2c      0x140 cmd/built-in.o
 .text.do_i2c_write
                0x000000004020ae6c      0x1d0 cmd/built-in.o
 .text.do_i2c_loop
                0x000000004020b03c      0x150 cmd/built-in.o
 .text.do_i2c_mm
                0x000000004020b18c       0x1c cmd/built-in.o
 .text.evalexp  0x000000004020b1a8       0xa8 cmd/built-in.o
 .text.evalstr  0x000000004020b250       0x5c cmd/built-in.o
 .text.binary_test
                0x000000004020b2ac      0x198 cmd/built-in.o
 .text.do_itest
                0x000000004020b444       0x8c cmd/built-in.o
 .text.bin_data_init
                0x000000004020b4d0       0x1c cmd/built-in.o
 .text.k_data_save
                0x000000004020b4ec       0x34 cmd/built-in.o
 .text.k_data_restore
                0x000000004020b520       0x34 cmd/built-in.o
 .text.getcxmodem
                0x000000004020b554       0x24 cmd/built-in.o
 .text.load_serial_ymodem
                0x000000004020b578       0xf0 cmd/built-in.o
 .text.bin_data_char
                0x000000004020b668       0x28 cmd/built-in.o
 .text.chk1.constprop.0
                0x000000004020b690       0x34 cmd/built-in.o
 .text.s1_sendpacket.constprop.0
                0x000000004020b6c4       0x5c cmd/built-in.o
 .text.load_serial
                0x000000004020b720      0x1d4 cmd/built-in.o
 .text.do_load_serial
                0x000000004020b8f4       0xe0 cmd/built-in.o
 .text.do_load_serial_bin
                0x000000004020b9d4      0x79c cmd/built-in.o
 .text.do_mem_md
                0x000000004020c170       0xf4 cmd/built-in.o
 .text.do_mem_base
                0x000000004020c264       0x4c cmd/built-in.o
 .text.do_mem_crc
                0x000000004020c2b0       0x30 cmd/built-in.o
 .text.do_mem_mtest
                0x000000004020c2e0      0x230 cmd/built-in.o
 .text.do_mem_loop
                0x000000004020c510      0x128 cmd/built-in.o
 .text.do_mem_cmp
                0x000000004020c638      0x1a4 cmd/built-in.o
 .text.mod_mem.isra.0.part.0
                0x000000004020c7dc      0x1b4 cmd/built-in.o
 .text.do_mem_mm
                0x000000004020c990       0x1c cmd/built-in.o
 .text.do_mem_mw
                0x000000004020c9ac      0x108 cmd/built-in.o
 .text.do_mem_cp
                0x000000004020cab4       0xc0 cmd/built-in.o
 .text.do_random
                0x000000004020cb74      0x118 cmd/built-in.o
 .text.do_mem_nm
                0x000000004020cc8c       0x1c cmd/built-in.o
 .text.extract_range
                0x000000004020cca8       0xfc cmd/built-in.o
 .text.dump_field
                0x000000004020cda4       0x68 cmd/built-in.o
 .text.do_mii   0x000000004020ce0c      0x850 cmd/built-in.o
 .text.do_mdio  0x000000004020d65c      0x708 cmd/built-in.o
 .text.do_sleep
                0x000000004020dd64       0xe8 cmd/built-in.o
 .text.do_mmcops
                0x000000004020de4c       0xe8 cmd/built-in.o
 .text.init_mmc_device
                0x000000004020df34       0x84 cmd/built-in.o
 .text.do_mmc_rst_func
                0x000000004020dfb8       0xa8 cmd/built-in.o
 .text.do_mmc_rescan
                0x000000004020e060       0x28 cmd/built-in.o
 .text.do_mmc_partconf
                0x000000004020e088      0x110 cmd/built-in.o
 .text.do_mmc_bootbus
                0x000000004020e198       0xc8 cmd/built-in.o
 .text.do_mmc_hwpartition
                0x000000004020e260      0x4e8 cmd/built-in.o
 .text.do_mmc_list
                0x000000004020e748       0x1c cmd/built-in.o
 .text.do_mmc_dev
                0x000000004020e764      0x14c cmd/built-in.o
 .text.do_mmcinfo
                0x000000004020e8b0      0x3b4 cmd/built-in.o
 .text.do_mmc_setdsr
                0x000000004020ec64       0xbc cmd/built-in.o
 .text.do_mmc_boot_resize
                0x000000004020ed20       0xe0 cmd/built-in.o
 .text.do_mmc_part
                0x000000004020ee00       0x64 cmd/built-in.o
 .text.do_mmc_erase
                0x000000004020ee64      0x104 cmd/built-in.o
 .text.do_mmc_write
                0x000000004020ef68      0x124 cmd/built-in.o
 .text.do_mmc_read
                0x000000004020f08c       0xfc cmd/built-in.o
 .text.netboot_common
                0x000000004020f188      0x2bc cmd/built-in.o
 .text.do_bootp
                0x000000004020f444        0xc cmd/built-in.o
 .text.do_dhcp  0x000000004020f450        0xc cmd/built-in.o
 .text.do_nfs   0x000000004020f45c        0xc cmd/built-in.o
 .text.do_tftpb
                0x000000004020f468       0x58 cmd/built-in.o
                0x000000004020f468                do_tftpb
 .text.do_ping  0x000000004020f4c0       0x7c cmd/built-in.o
 .text.do_pinmux
                0x000000004020f53c       0x80 cmd/built-in.o
 .text.do_list  0x000000004020f5bc      0x148 cmd/built-in.o
 .text.show_pinmux
                0x000000004020f704       0xec cmd/built-in.o
 .text.do_status
                0x000000004020f7f0      0x3b0 cmd/built-in.o
 .text.do_dev   0x000000004020fba0      0x150 cmd/built-in.o
 .text.do_raw_read
                0x000000004020fcf0      0x18c cmd/built-in.o
                0x000000004020fcf0                do_raw_read
 .text.substitute
                0x000000004020fe7c      0x118 cmd/built-in.o
 .text.get_arg  0x000000004020ff94       0x70 cmd/built-in.o
 .text.regex_sub.part.0
                0x0000000040210004      0x2c4 cmd/built-in.o
 .text.do_setexpr
                0x00000000402102c8      0x1a4 cmd/built-in.o
 .text.do_false
                0x000000004021046c        0x8 cmd/built-in.o
 .text.do_true  0x0000000040210474        0x8 cmd/built-in.o
 .text.do_test  0x000000004021047c      0x35c cmd/built-in.o
 .text.do_unzip
                0x00000000402107d8       0xbc cmd/built-in.o
 .text.do_gzwrite
                0x0000000040210894      0x118 cmd/built-in.o
 .text.do_lzmadec
                0x00000000402109ac       0xbc cmd/built-in.o
 .text.usb_get_class_desc
                0x0000000040210a68       0xac cmd/built-in.o
 .text.usb_display_class_sub
                0x0000000040210b14      0x18c cmd/built-in.o
 .text.usb_display_desc
                0x0000000040210ca0      0x14c cmd/built-in.o
 .text.usb_show_tree_graph
                0x0000000040210dec      0x230 cmd/built-in.o
 .text.usb_show_subtree
                0x000000004021101c       0x38 cmd/built-in.o
 .text.usb_for_each_root_dev
                0x0000000040211054       0x68 cmd/built-in.o
 .text.usb_display_string
                0x00000000402110bc       0x4c cmd/built-in.o
 .text.usb_display_config
                0x0000000040211108      0x254 cmd/built-in.o
 .text.usb_show_info
                0x000000004021135c       0x78 cmd/built-in.o
 .text.usb_find_device
                0x00000000402113d4       0xb0 cmd/built-in.o
 .text.do_usbboot
                0x0000000040211484        0xc cmd/built-in.o
 .text.do_usb_start
                0x0000000040211490       0x30 cmd/built-in.o
 .text.usb_show_tree
                0x00000000402114c0        0xc cmd/built-in.o
                0x00000000402114c0                usb_show_tree
 .text.do_usb   0x00000000402114cc      0x3ec cmd/built-in.o
 .text.common_diskboot
                0x00000000402118b8      0x2a4 cmd/built-in.o
                0x00000000402118b8                common_diskboot
 .text.do_fastboot
                0x0000000040211b5c      0x204 cmd/built-in.o
 .text.ums_fini
                0x0000000040211d60       0x70 cmd/built-in.o
 .text.ums_write_sector
                0x0000000040211dd0       0x20 cmd/built-in.o
 .text.ums_read_sector
                0x0000000040211df0       0x20 cmd/built-in.o
 .text.do_usb_mass_storage
                0x0000000040211e10      0x340 cmd/built-in.o
 .text.do_imgextract
                0x0000000040212150      0x3bc cmd/built-in.o
 .text.del_gpt_info
                0x000000004021250c       0x48 cmd/built-in.o
 .text.extract_val
                0x0000000040212554       0xa0 cmd/built-in.o
 .text.calc_parts_list_len
                0x00000000402125f4       0xa4 cmd/built-in.o
 .text.extract_env
                0x0000000040212698       0xf8 cmd/built-in.o
 .text.get_gpt_info
                0x0000000040212790      0x12c cmd/built-in.o
 .text.create_gpt_partitions_list.isra.0
                0x00000000402128bc      0x148 cmd/built-in.o
 .text.set_gpt_info.isra.0
                0x0000000040212a04      0x3fc cmd/built-in.o
 .text.print_gpt_info
                0x0000000040212e00       0xec cmd/built-in.o
 .text.do_gpt   0x0000000040212eec      0x664 cmd/built-in.o
 .text.do_regulator
                0x0000000040213550       0x80 cmd/built-in.o
 .text.failure  0x00000000402135d0       0x2c cmd/built-in.o
 .text.constraint
                0x00000000402135fc       0x88 cmd/built-in.o
 .text.curr_dev_and_platdata
                0x0000000040213684       0xa0 cmd/built-in.o
 .text.do_disable
                0x0000000040213724       0x68 cmd/built-in.o
 .text.do_enable
                0x000000004021378c       0x68 cmd/built-in.o
 .text.do_mode  0x00000000402137f4       0xd0 cmd/built-in.o
 .text.do_current
                0x00000000402138c4      0x104 cmd/built-in.o
 .text.do_value
                0x00000000402139c8      0x140 cmd/built-in.o
 .text.do_info  0x0000000040213b08      0x1d4 cmd/built-in.o
 .text.do_env_delete
                0x0000000040213cdc       0xc4 cmd/built-in.o
 .text.do_env_save
                0x0000000040213da0       0x1c cmd/built-in.o
 .text.do_env   0x0000000040213dbc       0x84 cmd/built-in.o
 .text.env_print
                0x0000000040213e40       0xc4 cmd/built-in.o
 .text.do_env_print
                0x0000000040213f04       0xe0 cmd/built-in.o
 .text.do_env_import
                0x0000000040213fe4      0x28c cmd/built-in.o
 .text.do_env_default
                0x0000000040214270       0x98 cmd/built-in.o
 .text.do_env_exists
                0x0000000040214308       0x60 cmd/built-in.o
 .text._do_env_set.isra.0
                0x0000000040214368      0x1b8 cmd/built-in.o
 .text.do_env_set
                0x0000000040214520       0x20 cmd/built-in.o
 .text.env_get_id
                0x0000000040214540        0xc cmd/built-in.o
                0x0000000040214540                env_get_id
 .text.env_set  0x000000004021454c       0x58 cmd/built-in.o
                0x000000004021454c                env_set
 .text.env_set_ulong
                0x00000000402145a4       0x2c cmd/built-in.o
                0x00000000402145a4                env_set_ulong
 .text.env_set_hex
                0x00000000402145d0       0x3c cmd/built-in.o
                0x00000000402145d0                env_set_hex
 .text.do_env_export
                0x000000004021460c      0x21c cmd/built-in.o
 .text.env_match
                0x0000000040214828       0x7c cmd/built-in.o
                0x0000000040214828                env_match
 .text.env_get_f
                0x00000000402148a4       0xfc cmd/built-in.o
                0x00000000402148a4                env_get_f
 .text.env_get  0x00000000402149a0       0x70 cmd/built-in.o
                0x00000000402149a0                env_get
 .text.env_get_hex
                0x0000000040214a10       0x44 cmd/built-in.o
                0x0000000040214a10                env_get_hex
 .text.eth_env_get_enetaddr
                0x0000000040214a54       0x68 cmd/built-in.o
                0x0000000040214a54                eth_env_get_enetaddr
 .text.eth_env_set_enetaddr
                0x0000000040214abc       0x54 cmd/built-in.o
                0x0000000040214abc                eth_env_set_enetaddr
 .text.env_get_ulong
                0x0000000040214b10       0x40 cmd/built-in.o
                0x0000000040214b10                env_get_ulong
 .text.do_env_edit.part.0
                0x0000000040214b50       0xb4 cmd/built-in.o
 .text.do_env_edit
                0x0000000040214c04       0x28 cmd/built-in.o
 .text.board_init_f_alloc_reserve
                0x0000000040214c2c       0x10 common/built-in.o
                0x0000000040214c2c                board_init_f_alloc_reserve
 .text.board_init_f_init_reserve
                0x0000000040214c3c       0x30 common/built-in.o
                0x0000000040214c3c                board_init_f_init_reserve
 .text.show_boot_progress
                0x0000000040214c6c        0x8 common/built-in.o
                0x0000000040214c6c                show_boot_progress
 .text.main_loop
                0x0000000040214c74       0x4c common/built-in.o
                0x0000000040214c74                main_loop
 .text.mdelay   0x0000000040214cc0        0xc common/built-in.o
 .text.dummy    0x0000000040214ccc        0x4 common/built-in.o
 .text.get_version
                0x0000000040214cd0        0x8 common/built-in.o
                0x0000000040214cd0                get_version
 .text.jumptable_init
                0x0000000040214cd8      0x1e8 common/built-in.o
                0x0000000040214cd8                jumptable_init
 .text.hash_finish_crc32
                0x0000000040214ec0       0x38 common/built-in.o
 .text.hash_finish_crc16_ccitt
                0x0000000040214ef8       0x38 common/built-in.o
 .text.hash_update_crc32
                0x0000000040214f30       0x34 common/built-in.o
 .text.hash_init_crc32
                0x0000000040214f64       0x30 common/built-in.o
 .text.hash_init_crc16_ccitt
                0x0000000040214f94       0x30 common/built-in.o
 .text.hash_update_crc16_ccitt
                0x0000000040214fc4       0x34 common/built-in.o
 .text.hash_finish_sha256
                0x0000000040214ff8       0x48 common/built-in.o
 .text.hash_update_sha256
                0x0000000040215040       0x24 common/built-in.o
 .text.hash_init_sha256
                0x0000000040215064       0x34 common/built-in.o
 .text.hash_finish_sha1
                0x0000000040215098       0x48 common/built-in.o
 .text.hash_update_sha1
                0x00000000402150e0       0x24 common/built-in.o
 .text.hash_init_sha1
                0x0000000040215104       0x34 common/built-in.o
 .text.hash_lookup_algo
                0x0000000040215138       0x74 common/built-in.o
                0x0000000040215138                hash_lookup_algo
 .text.hash_command
                0x00000000402151ac      0x1e4 common/built-in.o
                0x00000000402151ac                hash_command
 .text.b_reset  0x0000000040215390       0x18 common/built-in.o
 .text.static_get
                0x00000000402153a8       0x1c common/built-in.o
 .text.static_peek
                0x00000000402153c4        0xc common/built-in.o
 .text.mapset   0x00000000402153d0       0x20 common/built-in.o
 .text.syntax_err
                0x00000000402153f0        0xc common/built-in.o
 .text.free_pipe_list
                0x00000000402153fc       0xf0 common/built-in.o
 .text.xmalloc  0x00000000402154ec       0x28 common/built-in.o
 .text.new_pipe
                0x0000000040215514       0x24 common/built-in.o
 .text.xrealloc
                0x0000000040215538       0x28 common/built-in.o
 .text.done_command
                0x0000000040215560       0x94 common/built-in.o
 .text.done_pipe
                0x00000000402155f4       0x58 common/built-in.o
 .text.done_word
                0x000000004021564c      0x2a0 common/built-in.o
 .text.is_assignment
                0x00000000402158ec       0x50 common/built-in.o
 .text.file_get
                0x000000004021593c      0x1e4 common/built-in.o
 .text.do_showvar
                0x0000000040215b20      0x10c common/built-in.o
 .text.b_addchr
                0x0000000040215c2c       0x94 common/built-in.o
 .text.b_addqchr
                0x0000000040215cc0       0x58 common/built-in.o
 .text.file_peek
                0x0000000040215d18        0xc common/built-in.o
 .text.get_local_var
                0x0000000040215d24       0x9c common/built-in.o
                0x0000000040215d24                get_local_var
 .text.set_local_var
                0x0000000040215dc0      0x1a0 common/built-in.o
                0x0000000040215dc0                set_local_var
 .text.insert_var_value_sub
                0x0000000040215f60      0x2b8 common/built-in.o
 .text.parse_string_outer
                0x0000000040216218       0xe4 common/built-in.o
                0x0000000040216218                parse_string_outer
 .text.run_list_real
                0x00000000402162fc      0x724 common/built-in.o
 .text.parse_stream_outer
                0x0000000040216a20      0x670 common/built-in.o
 .text.parse_file_outer
                0x0000000040217090       0x40 common/built-in.o
                0x0000000040217090                parse_file_outer
 .text.u_boot_hush_start
                0x00000000402170d0       0x58 common/built-in.o
                0x00000000402170d0                u_boot_hush_start
 .text.bootdelay_process
                0x0000000040217128      0x1a4 common/built-in.o
                0x0000000040217128                bootdelay_process
 .text.autoboot_command
                0x00000000402172cc      0x114 common/built-in.o
                0x00000000402172cc                autoboot_command
 .text.log_init
                0x00000000402173e0       0x10 common/built-in.o
 .text.display_text_info
                0x00000000402173f0        0x8 common/built-in.o
 .text.setup_mon_len
                0x00000000402173f8       0x20 common/built-in.o
 .text.reserve_round_4k
                0x0000000040217418       0x14 common/built-in.o
 .text.reserve_uboot
                0x000000004021742c       0x38 common/built-in.o
 .text.reserve_malloc
                0x0000000040217464       0x18 common/built-in.o
 .text.reserve_global_data
                0x000000004021747c       0x1c common/built-in.o
 .text.reserve_fdt
                0x0000000040217498       0x48 common/built-in.o
 .text.reserve_mmu
                0x00000000402174e0       0x4c common/built-in.o
                0x00000000402174e0                reserve_mmu
 .text.setup_reloc
                0x000000004021752c       0x48 common/built-in.o
 .text.reloc_fdt
                0x0000000040217574       0x44 common/built-in.o
 .text.reserve_board
                0x00000000402175b8       0x48 common/built-in.o
 .text.announce_dram_init
                0x0000000040217600       0x20 common/built-in.o
 .text.print_resetinfo
                0x0000000040217620       0x48 common/built-in.o
 .text.init_baud_rate
                0x0000000040217668       0x30 common/built-in.o
 .text.initf_dm
                0x0000000040217698        0x8 common/built-in.o
 .text.initf_bootstage
                0x00000000402176a0       0x1c common/built-in.o
 .text.clear_bss
                0x00000000402176bc        0x8 common/built-in.o
                0x00000000402176bc                clear_bss
 .text.setup_spl_handoff
                0x00000000402176c4        0x8 common/built-in.o
 .text.mach_cpu_init
                0x00000000402176cc        0x8 common/built-in.o
                0x00000000402176cc                mach_cpu_init
 .text.reserve_video
                0x00000000402176d4        0x8 common/built-in.o
 .text.reserve_trace
                0x00000000402176dc        0x8 common/built-in.o
 .text.setup_machine
                0x00000000402176e4        0x8 common/built-in.o
 .text.reserve_bootstage
                0x00000000402176ec        0x8 common/built-in.o
 .text.reserve_bloblist
                0x00000000402176f4        0x8 common/built-in.o
 .text.display_new_sp
                0x00000000402176fc        0x8 common/built-in.o
 .text.reloc_bootstage
                0x0000000040217704        0x8 common/built-in.o
 .text.reloc_bloblist
                0x000000004021770c        0x8 common/built-in.o
 .text.initf_console_record
                0x0000000040217714        0x8 common/built-in.o
 .text.reserve_arch
                0x000000004021771c        0x8 common/built-in.o
                0x000000004021771c                reserve_arch
 .text.checkcpu
                0x0000000040217724        0x8 common/built-in.o
                0x0000000040217724                checkcpu
 .text.board_add_ram_info
                0x000000004021772c        0x4 common/built-in.o
                0x000000004021772c                board_add_ram_info
 .text.show_dram_config
                0x0000000040217730       0x50 common/built-in.o
 .text.board_get_usable_ram_top
                0x0000000040217780       0x20 common/built-in.o
                0x0000000040217780                board_get_usable_ram_top
 .text.setup_dest_addr
                0x00000000402177a0       0x4c common/built-in.o
 .text.reserve_stacks
                0x00000000402177ec       0x1c common/built-in.o
 .text.board_init_f
                0x0000000040217808       0x7c common/built-in.o
                0x0000000040217808                board_init_f
 .text.initr_trace
                0x0000000040217884        0x8 common/built-in.o
 .text.initr_reloc
                0x000000004021788c       0x18 common/built-in.o
 .text.run_main_loop
                0x00000000402178a4       0x10 common/built-in.o
 .text.initr_check_fastboot
                0x00000000402178b4       0x18 common/built-in.o
 .text.initr_net
                0x00000000402178cc       0x24 common/built-in.o
 .text.initr_fastboot_setup
                0x00000000402178f0       0x18 common/built-in.o
 .text.initr_ethaddr
                0x0000000040217908       0x28 common/built-in.o
 .text.initr_enable_interrupts
                0x0000000040217930       0x18 common/built-in.o
 .text.initr_jumptable
                0x0000000040217948       0x18 common/built-in.o
 .text.initr_env
                0x0000000040217960       0x74 common/built-in.o
 .text.initr_mmc
                0x00000000402179d4       0x28 common/built-in.o
 .text.initr_serial
                0x00000000402179fc       0x18 common/built-in.o
 .text.initr_dm
                0x0000000040217a14       0x14 common/built-in.o
 .text.initr_bootstage
                0x0000000040217a28       0x1c common/built-in.o
 .text.initr_malloc
                0x0000000040217a44       0x28 common/built-in.o
 .text.initr_reloc_global_data
                0x0000000040217a6c       0x50 common/built-in.o
 .text.initr_caches
                0x0000000040217abc       0x18 common/built-in.o
 .text.initr_binman
                0x0000000040217ad4        0x8 common/built-in.o
 .text.initr_barrier
                0x0000000040217adc        0x8 common/built-in.o
 .text.initr_console_record
                0x0000000040217ae4        0x8 common/built-in.o
 .text.initr_dm_devices
                0x0000000040217aec        0x8 common/built-in.o
 .text.power_init_board
                0x0000000040217af4        0x8 common/built-in.o
                0x0000000040217af4                power_init_board
 .text.initr_announce
                0x0000000040217afc        0x8 common/built-in.o
 .text.cpu_secondary_init_r
                0x0000000040217b04        0x4 common/built-in.o
                0x0000000040217b04                cpu_secondary_init_r
 .text.initr_secondary_cpu
                0x0000000040217b08       0x18 common/built-in.o
 .text.board_init_r
                0x0000000040217b20       0x70 common/built-in.o
                0x0000000040217b20                board_init_r
 .text.checkboard
                0x0000000040217b90        0x8 common/built-in.o
                0x0000000040217b90                checkboard
 .text.show_board_info
                0x0000000040217b98       0x3c common/built-in.o
                0x0000000040217b98                show_board_info
 .text.bootm_find_images
                0x0000000040217bd4       0xcc common/built-in.o
                0x0000000040217bd4                bootm_find_images
 .text.bootm_disable_interrupts
                0x0000000040217ca0       0x28 common/built-in.o
                0x0000000040217ca0                bootm_disable_interrupts
 .text.do_bootm_states
                0x0000000040217cc8      0x948 common/built-in.o
                0x0000000040217cc8                do_bootm_states
 .text.copy_args
                0x0000000040218610       0x6c common/built-in.o
 .text.do_bootm_rtems
                0x000000004021867c       0x60 common/built-in.o
 .text.do_bootm_vxworks
                0x00000000402186dc      0x204 common/built-in.o
                0x00000000402186dc                do_bootm_vxworks
 .text.do_bootm_efi
                0x00000000402188e0       0xbc common/built-in.o
 .text.do_bootm_plan9
                0x000000004021899c       0xc0 common/built-in.o
 .text.do_bootm_standalone
                0x0000000040218a5c       0x74 common/built-in.o
 .text.do_bootm_qnxelf
                0x0000000040218ad0       0x8c common/built-in.o
 .text.do_bootm_netbsd
                0x0000000040218b5c      0x120 common/built-in.o
 .text.board_preboot_os
                0x0000000040218c7c        0x4 common/built-in.o
                0x0000000040218c7c                board_preboot_os
 .text.boot_selected_os
                0x0000000040218c80       0x7c common/built-in.o
                0x0000000040218c80                boot_selected_os
 .text.bootm_os_get_boot_func
                0x0000000040218cfc       0x10 common/built-in.o
                0x0000000040218cfc                bootm_os_get_boot_func
 .text.of_bus_default_map
                0x0000000040218d0c       0xa8 common/built-in.o
 .text.fdt_pack_reg
                0x0000000040218db4       0xd8 common/built-in.o
 .text.of_bus_default_translate
                0x0000000040218e8c       0xb8 common/built-in.o
 .text.fdt_support_default_count_cells
                0x0000000040218f44       0x70 common/built-in.o
                0x0000000040218f44                fdt_support_default_count_cells
 .text.__of_translate_address
                0x0000000040218fb4      0x270 common/built-in.o
 .text.fdt_find_and_setprop
                0x0000000040219224       0x94 common/built-in.o
                0x0000000040219224                fdt_find_and_setprop
 .text.fdt_find_or_add_subnode
                0x00000000402192b8       0x74 common/built-in.o
                0x00000000402192b8                fdt_find_or_add_subnode
 .text.fdt_root
                0x000000004021932c       0x98 common/built-in.o
                0x000000004021932c                fdt_root
 .text.fdt_initrd
                0x00000000402193c4      0x1b4 common/built-in.o
                0x00000000402193c4                fdt_initrd
 .text.fdt_chosen
                0x0000000040219578       0xbc common/built-in.o
                0x0000000040219578                fdt_chosen
 .text.do_fixup_by_path
                0x0000000040219634       0x4c common/built-in.o
                0x0000000040219634                do_fixup_by_path
 .text.fdt_fixup_memory_banks
                0x0000000040219680      0x188 common/built-in.o
                0x0000000040219680                fdt_fixup_memory_banks
 .text.fdt_fixup_memory
                0x0000000040219808       0x24 common/built-in.o
                0x0000000040219808                fdt_fixup_memory
 .text.fdt_fixup_ethernet
                0x000000004021982c      0x1ac common/built-in.o
                0x000000004021982c                fdt_fixup_ethernet
 .text.fdt_shrink_to_minimum
                0x00000000402199d8       0xdc common/built-in.o
                0x00000000402199d8                fdt_shrink_to_minimum
 .text.fdt_increase_size
                0x0000000040219ab4       0x14 common/built-in.o
                0x0000000040219ab4                fdt_increase_size
 .text.fdt_translate_address
                0x0000000040219ac8        0xc common/built-in.o
                0x0000000040219ac8                fdt_translate_address
 .text.fdt_overlay_apply_verbose
                0x0000000040219ad4       0x80 common/built-in.o
                0x0000000040219ad4                fdt_overlay_apply_verbose
 .text.miiphy_get_dev_by_name
                0x0000000040219b54       0x68 common/built-in.o
                0x0000000040219b54                miiphy_get_dev_by_name
 .text.miiphy_init
                0x0000000040219bbc       0x1c common/built-in.o
                0x0000000040219bbc                miiphy_init
 .text.mdio_alloc
                0x0000000040219bd8       0x3c common/built-in.o
                0x0000000040219bd8                mdio_alloc
 .text.mdio_free
                0x0000000040219c14        0x4 common/built-in.o
                0x0000000040219c14                mdio_free
 .text.mdio_register
                0x0000000040219c18       0x8c common/built-in.o
                0x0000000040219c18                mdio_register
 .text.mdio_unregister
                0x0000000040219ca4       0x30 common/built-in.o
                0x0000000040219ca4                mdio_unregister
 .text.mdio_list_devices
                0x0000000040219cd4       0xc8 common/built-in.o
                0x0000000040219cd4                mdio_list_devices
 .text.miiphy_set_current_dev
                0x0000000040219d9c       0x48 common/built-in.o
                0x0000000040219d9c                miiphy_set_current_dev
 .text.miiphy_get_active_dev
                0x0000000040219de4       0x60 common/built-in.o
 .text.mdio_get_current_dev
                0x0000000040219e44        0xc common/built-in.o
                0x0000000040219e44                mdio_get_current_dev
 .text.mdio_phydev_for_ethname
                0x0000000040219e50       0xa0 common/built-in.o
                0x0000000040219e50                mdio_phydev_for_ethname
 .text.miiphy_get_current_dev
                0x0000000040219ef0       0x14 common/built-in.o
                0x0000000040219ef0                miiphy_get_current_dev
 .text.miiphy_read
                0x0000000040219f04       0x5c common/built-in.o
                0x0000000040219f04                miiphy_read
 .text.miiphy_write
                0x0000000040219f60       0x60 common/built-in.o
                0x0000000040219f60                miiphy_write
 .text.miiphy_listdev
                0x0000000040219fc0       0x90 common/built-in.o
                0x0000000040219fc0                miiphy_listdev
 .text.miiphy_info
                0x000000004021a050       0xa0 common/built-in.o
                0x000000004021a050                miiphy_info
 .text.miiphy_is_1000base_x
                0x000000004021a0f0       0x40 common/built-in.o
                0x000000004021a0f0                miiphy_is_1000base_x
 .text.miiphy_speed
                0x000000004021a130      0x11c common/built-in.o
                0x000000004021a130                miiphy_speed
 .text.miiphy_duplex
                0x000000004021a24c      0x140 common/built-in.o
                0x000000004021a24c                miiphy_duplex
 .text.usb_set_maxpacket_ep
                0x000000004021a38c       0x84 common/built-in.o
 .text.usb_int_msg
                0x000000004021a410        0x4 common/built-in.o
                0x000000004021a410                usb_int_msg
 .text.usb_control_msg
                0x000000004021a414       0xa0 common/built-in.o
                0x000000004021a414                usb_control_msg
 .text.usb_get_descriptor
                0x000000004021a4b4       0x5c common/built-in.o
 .text.get_descriptor_len
                0x000000004021a510       0xa4 common/built-in.o
 .text.usb_setup_descriptor
                0x000000004021a5b4       0xec common/built-in.o
 .text.usb_get_string
                0x000000004021a6a0       0xa4 common/built-in.o
 .text.usb_string_sub
                0x000000004021a744      0x114 common/built-in.o
 .text.usb_bulk_msg
                0x000000004021a858       0x80 common/built-in.o
                0x000000004021a858                usb_bulk_msg
 .text.usb_maxpacket
                0x000000004021a8d8       0x1c common/built-in.o
                0x000000004021a8d8                usb_maxpacket
 .text.usb_clear_halt
                0x000000004021a8f4       0x9c common/built-in.o
                0x000000004021a8f4                usb_clear_halt
 .text.usb_get_configuration_len
                0x000000004021a990       0x78 common/built-in.o
                0x000000004021a990                usb_get_configuration_len
 .text.usb_get_configuration_no
                0x000000004021aa08       0x40 common/built-in.o
                0x000000004021aa08                usb_get_configuration_no
 .text.usb_set_interface
                0x000000004021aa48       0xb0 common/built-in.o
                0x000000004021aa48                usb_set_interface
 .text.usb_string
                0x000000004021aaf8      0x118 common/built-in.o
                0x000000004021aaf8                usb_string
 .text.usb_select_config
                0x000000004021ac10      0x4b8 common/built-in.o
                0x000000004021ac10                usb_select_config
 .text.usb_setup_device
                0x000000004021b0c8      0x114 common/built-in.o
                0x000000004021b0c8                usb_setup_device
 .text.usb_device_has_child_on_port
                0x000000004021b1dc        0x8 common/built-in.o
                0x000000004021b1dc                usb_device_has_child_on_port
 .text.usb_find_usb2_hub_address_port
                0x000000004021b1e4       0x90 common/built-in.o
                0x000000004021b1e4                usb_find_usb2_hub_address_port
 .text.usb_set_port_feature
                0x000000004021b274       0x4c common/built-in.o
 .text.usb_clear_port_feature
                0x000000004021b2c0       0x4c common/built-in.o
 .text.usb_get_hub_descriptor
                0x000000004021b30c       0x64 common/built-in.o
 .text.usb_hub_reset_devices
                0x000000004021b370        0x4 common/built-in.o
                0x000000004021b370                usb_hub_reset_devices
 .text.usb_hub_is_root_hub
                0x000000004021b374       0x20 common/built-in.o
                0x000000004021b374                usb_hub_is_root_hub
 .text.usb_get_port_status
                0x000000004021b394       0xc8 common/built-in.o
                0x000000004021b394                usb_get_port_status
 .text.usb_hub_port_connect_change
                0x000000004021b45c      0x180 common/built-in.o
                0x000000004021b45c                usb_hub_port_connect_change
 .text.usb_hub_configure
                0x000000004021b5dc      0x5a4 common/built-in.o
 .text.usb_hub_scan
                0x000000004021bb80       0x14 common/built-in.o
                0x000000004021bb80                usb_hub_scan
 .text.usb_hub_post_probe
                0x000000004021bb94        0x4 common/built-in.o
 .text.usb_stor_irq
                0x000000004021bb98       0x18 common/built-in.o
 .text.usb_stor_BBB_reset
                0x000000004021bbb0       0xec common/built-in.o
 .text.usb_stor_CB_reset
                0x000000004021bc9c       0xd4 common/built-in.o
 .text.usb_stor_BBB_clear_endpt_stall.isra.0
                0x000000004021bd70       0x4c common/built-in.o
 .text.usb_stor_BBB_transport
                0x000000004021bdbc      0x248 common/built-in.o
 .text.usb_stor_CB_comdat
                0x000000004021c004      0x1ec common/built-in.o
 .text.usb_stor_CBI_get_status.isra.0
                0x000000004021c1f0       0xd4 common/built-in.o
 .text.usb_stor_CB_transport
                0x000000004021c2c4      0x1f4 common/built-in.o
 .text.usb_request_sense.constprop.0
                0x000000004021c4b8       0x8c common/built-in.o
 .text.usb_stor_read
                0x000000004021c544      0x19c common/built-in.o
 .text.usb_stor_write
                0x000000004021c6e0      0x19c common/built-in.o
 .text.usb_stor_info
                0x000000004021c87c       0x88 common/built-in.o
                0x000000004021c87c                usb_stor_info
 .text.usb_stor_reset
                0x000000004021c904        0xc common/built-in.o
                0x000000004021c904                usb_stor_reset
 .text.usb_stor_scan
                0x000000004021c910       0x4c common/built-in.o
                0x000000004021c910                usb_stor_scan
 .text.usb_storage_probe
                0x000000004021c95c      0x25c common/built-in.o
                0x000000004021c95c                usb_storage_probe
 .text.usb_stor_get_info
                0x000000004021cbb8      0x2e4 common/built-in.o
                0x000000004021cbb8                usb_stor_get_info
 .text.usb_mass_storage_probe
                0x000000004021ce9c      0x18c common/built-in.o
 .text.iomux_doenv
                0x000000004021d028      0x1cc common/built-in.o
                0x000000004021d028                iomux_doenv
 .text.delete_char.part.0
                0x000000004021d1f4       0xfc common/built-in.o
 .text.cread_add_char
                0x000000004021d2f0      0x100 common/built-in.o
 .text.cli_readline_into_buffer
                0x000000004021d3f0      0x8c8 common/built-in.o
                0x000000004021d3f0                cli_readline_into_buffer
 .text.cli_readline
                0x000000004021dcb8       0x14 common/built-in.o
                0x000000004021dcb8                cli_readline
 .text.console_tstc
                0x000000004021dccc       0xa8 common/built-in.o
 .text.console_putc
                0x000000004021dd74       0x70 common/built-in.o
 .text.console_puts
                0x000000004021dde4       0x70 common/built-in.o
 .text.on_console
                0x000000004021de54       0xc0 common/built-in.o
 .text.serial_printf
                0x000000004021df14       0x88 common/built-in.o
                0x000000004021df14                serial_printf
 .text.puts     0x000000004021df9c       0x28 common/built-in.o
                0x000000004021df9c                puts
 .text.putc     0x000000004021dfc4       0x2c common/built-in.o
                0x000000004021dfc4                putc
 .text.console_getc.isra.0
                0x000000004021dff0       0x30 common/built-in.o
 .text.tstc     0x000000004021e020       0x24 common/built-in.o
                0x000000004021e020                tstc
 .text.getc     0x000000004021e044       0x4c common/built-in.o
                0x000000004021e044                getc
 .text.fputs    0x000000004021e090       0x10 common/built-in.o
                0x000000004021e090                fputs
 .text.ctrlc    0x000000004021e0a0       0x54 common/built-in.o
                0x000000004021e0a0                ctrlc
 .text.confirm_yesno
                0x000000004021e0f4       0xd8 common/built-in.o
                0x000000004021e0f4                confirm_yesno
 .text.disable_ctrlc
                0x000000004021e1cc       0x14 common/built-in.o
                0x000000004021e1cc                disable_ctrlc
 .text.had_ctrlc
                0x000000004021e1e0        0xc common/built-in.o
                0x000000004021e1e0                had_ctrlc
 .text.clear_ctrlc
                0x000000004021e1ec        0xc common/built-in.o
                0x000000004021e1ec                clear_ctrlc
 .text.search_device
                0x000000004021e1f8       0x34 common/built-in.o
                0x000000004021e1f8                search_device
 .text.console_assign
                0x000000004021e22c       0xd8 common/built-in.o
                0x000000004021e22c                console_assign
 .text.console_init_f
                0x000000004021e304       0x10 common/built-in.o
                0x000000004021e304                console_init_f
 .text.stdio_print_current_devices
                0x000000004021e314       0xbc common/built-in.o
                0x000000004021e314                stdio_print_current_devices
 .text.console_init_r
                0x000000004021e3d0      0x1a0 common/built-in.o
                0x000000004021e3d0                console_init_r
 .text.sbrk     0x000000004021e570       0x74 common/built-in.o
                0x000000004021e570                sbrk
 .text.mem_malloc_init
                0x000000004021e5e4       0x28 common/built-in.o
                0x000000004021e5e4                mem_malloc_init
 .text.malloc_trim
                0x000000004021e60c       0xd8 common/built-in.o
                0x000000004021e60c                malloc_trim
 .text.free     0x000000004021e6e4      0x21c common/built-in.o
                0x000000004021e6e4                free
 .text.malloc   0x000000004021e900      0x62c common/built-in.o
                0x000000004021e900                malloc
 .text.calloc   0x000000004021ef2c       0xdc common/built-in.o
                0x000000004021ef2c                calloc
 .text.realloc  0x000000004021f008      0x460 common/built-in.o
                0x000000004021f008                realloc
 .text.memalign
                0x000000004021f468      0x1b0 common/built-in.o
                0x000000004021f468                memalign
 .text.initf_malloc
                0x000000004021f618       0x18 common/built-in.o
                0x000000004021f618                initf_malloc
 .text.alloc_simple
                0x000000004021f630       0x58 common/built-in.o
 .text.malloc_simple
                0x000000004021f688        0x8 common/built-in.o
                0x000000004021f688                malloc_simple
 .text.memalign_simple
                0x000000004021f690       0x10 common/built-in.o
                0x000000004021f690                memalign_simple
 .text.on_loadaddr
                0x000000004021f6a0       0x3c common/built-in.o
 .text.image_check_hcrc
                0x000000004021f6dc       0x50 common/built-in.o
                0x000000004021f6dc                image_check_hcrc
 .text.image_check_dcrc
                0x000000004021f72c       0x44 common/built-in.o
                0x000000004021f72c                image_check_dcrc
 .text.image_multi_count
                0x000000004021f770       0x20 common/built-in.o
                0x000000004021f770                image_multi_count
 .text.image_multi_getimg
                0x000000004021f790       0x84 common/built-in.o
                0x000000004021f790                image_multi_getimg
 .text.env_get_bootm_low
                0x000000004021f814       0x34 common/built-in.o
                0x000000004021f814                env_get_bootm_low
 .text.env_get_bootm_size
                0x000000004021f848       0x78 common/built-in.o
                0x000000004021f848                env_get_bootm_size
 .text.env_get_bootm_mapsize
                0x000000004021f8c0       0x30 common/built-in.o
                0x000000004021f8c0                env_get_bootm_mapsize
 .text.memmove_wd
                0x000000004021f8f0       0x10 common/built-in.o
                0x000000004021f8f0                memmove_wd
 .text.genimg_print_size
                0x000000004021f900       0x38 common/built-in.o
                0x000000004021f900                genimg_print_size
 .text.get_table_entry
                0x000000004021f938       0x20 common/built-in.o
                0x000000004021f938                get_table_entry
 .text.get_table_entry_name
                0x000000004021f958       0x28 common/built-in.o
                0x000000004021f958                get_table_entry_name
 .text.genimg_get_os_name
                0x000000004021f980       0x18 common/built-in.o
                0x000000004021f980                genimg_get_os_name
 .text.genimg_get_arch_name
                0x000000004021f998       0x18 common/built-in.o
                0x000000004021f998                genimg_get_arch_name
 .text.genimg_get_type_name
                0x000000004021f9b0       0x18 common/built-in.o
                0x000000004021f9b0                genimg_get_type_name
 .text.image_decomp
                0x000000004021f9c8      0x148 common/built-in.o
                0x000000004021f9c8                image_decomp
 .text.genimg_get_comp_name
                0x000000004021fb10       0x18 common/built-in.o
                0x000000004021fb10                genimg_get_comp_name
 .text.image_print_contents
                0x000000004021fb28      0x1c0 common/built-in.o
                0x000000004021fb28                image_print_contents
 .text.get_table_entry_id
                0x000000004021fce8       0x50 common/built-in.o
                0x000000004021fce8                get_table_entry_id
 .text.genimg_get_os_id
                0x000000004021fd38       0x18 common/built-in.o
                0x000000004021fd38                genimg_get_os_id
 .text.genimg_get_arch_id
                0x000000004021fd50       0x18 common/built-in.o
                0x000000004021fd50                genimg_get_arch_id
 .text.genimg_get_type_id
                0x000000004021fd68       0x18 common/built-in.o
                0x000000004021fd68                genimg_get_type_id
 .text.genimg_get_comp_id
                0x000000004021fd80       0x18 common/built-in.o
                0x000000004021fd80                genimg_get_comp_id
 .text.genimg_get_kernel_addr_fit
                0x000000004021fd98       0x78 common/built-in.o
                0x000000004021fd98                genimg_get_kernel_addr_fit
 .text.genimg_get_format
                0x000000004021fe10       0x5c common/built-in.o
                0x000000004021fe10                genimg_get_format
 .text.genimg_has_config
                0x000000004021fe6c       0x10 common/built-in.o
                0x000000004021fe6c                genimg_has_config
 .text.boot_get_ramdisk
                0x000000004021fe7c      0x388 common/built-in.o
                0x000000004021fe7c                boot_get_ramdisk
 .text.boot_ramdisk_high
                0x0000000040220204      0x12c common/built-in.o
                0x0000000040220204                boot_ramdisk_high
 .text.boot_get_setup
                0x0000000040220330        0x4 common/built-in.o
                0x0000000040220330                boot_get_setup
 .text.boot_get_loadable
                0x0000000040220334      0x194 common/built-in.o
                0x0000000040220334                boot_get_loadable
 .text.image_setup_linux
                0x00000000402204c8       0x60 common/built-in.o
                0x00000000402204c8                image_setup_linux
 .text.append_kernel_cmdline
                0x0000000040220528      0x348 common/built-in.o
 .text.android_image_get_kernel
                0x0000000040220870      0x2a8 common/built-in.o
                0x0000000040220870                android_image_get_kernel
 .text.android_image_check_header
                0x0000000040220b18       0x14 common/built-in.o
                0x0000000040220b18                android_image_check_header
 .text.android_image_get_end
                0x0000000040220b2c      0x130 common/built-in.o
                0x0000000040220b2c                android_image_get_end
 .text.android_image_get_kload
                0x0000000040220c5c       0x58 common/built-in.o
                0x0000000040220c5c                android_image_get_kload
 .text.android_image_get_kcomp
                0x0000000040220cb4       0x54 common/built-in.o
                0x0000000040220cb4                android_image_get_kcomp
 .text.android_image_get_ramdisk
                0x0000000040220d08      0x128 common/built-in.o
                0x0000000040220d08                android_image_get_ramdisk
 .text.android_image_get_second
                0x0000000040220e30      0x14c common/built-in.o
                0x0000000040220e30                android_image_get_second
 .text.android_print_contents
                0x0000000040220f7c      0x3ac common/built-in.o
                0x0000000040220f7c                android_print_contents
 .text.fdt_error
                0x0000000040221328       0x38 common/built-in.o
 .text.boot_fdt_reserve_region
                0x0000000040221360       0x50 common/built-in.o
 .text.boot_fdt_add_mem_rsv_regions
                0x00000000402213b0      0x104 common/built-in.o
                0x00000000402213b0                boot_fdt_add_mem_rsv_regions
 .text.boot_relocate_fdt
                0x00000000402214b4      0x1a8 common/built-in.o
                0x00000000402214b4                boot_relocate_fdt
 .text.boot_get_fdt
                0x000000004022165c      0x404 common/built-in.o
                0x000000004022165c                boot_get_fdt
 .text.ft_verify_fdt
                0x0000000040221a60        0x8 common/built-in.o
                0x0000000040221a60                ft_verify_fdt
 .text.image_setup_libfdt
                0x0000000040221a68      0x150 common/built-in.o
                0x0000000040221a68                image_setup_libfdt
 .text.fit_image_get_address
                0x0000000040221bb8       0x84 common/built-in.o
 .text.fit_parse_conf
                0x0000000040221c3c       0x78 common/built-in.o
                0x0000000040221c3c                fit_parse_conf
 .text.fit_parse_subimage
                0x0000000040221cb4       0x78 common/built-in.o
                0x0000000040221cb4                fit_parse_subimage
 .text.fit_get_desc
                0x0000000040221d2c       0x38 common/built-in.o
                0x0000000040221d2c                fit_get_desc
 .text.fit_image_get_node
                0x0000000040221d64       0x48 common/built-in.o
                0x0000000040221d64                fit_image_get_node
 .text.fit_image_get_os
                0x0000000040221dac       0x4c common/built-in.o
                0x0000000040221dac                fit_image_get_os
 .text.fit_image_get_arch
                0x0000000040221df8       0x4c common/built-in.o
                0x0000000040221df8                fit_image_get_arch
 .text.fit_image_get_type
                0x0000000040221e44       0x4c common/built-in.o
                0x0000000040221e44                fit_image_get_type
 .text.fit_image_get_comp
                0x0000000040221e90       0x4c common/built-in.o
                0x0000000040221e90                fit_image_get_comp
 .text.fit_image_get_load
                0x0000000040221edc       0x10 common/built-in.o
                0x0000000040221edc                fit_image_get_load
 .text.fit_image_get_entry
                0x0000000040221eec       0x10 common/built-in.o
                0x0000000040221eec                fit_image_get_entry
 .text.fit_image_get_data
                0x0000000040221efc       0x50 common/built-in.o
                0x0000000040221efc                fit_image_get_data
 .text.fit_image_get_data_offset
                0x0000000040221f4c       0x48 common/built-in.o
                0x0000000040221f4c                fit_image_get_data_offset
 .text.fit_image_get_data_position
                0x0000000040221f94       0x48 common/built-in.o
                0x0000000040221f94                fit_image_get_data_position
 .text.fit_image_get_data_size
                0x0000000040221fdc       0x48 common/built-in.o
                0x0000000040221fdc                fit_image_get_data_size
 .text.fit_image_get_data_and_size
                0x0000000040222024       0xac common/built-in.o
                0x0000000040222024                fit_image_get_data_and_size
 .text.fit_image_hash_get_algo
                0x00000000402220d0       0x38 common/built-in.o
                0x00000000402220d0                fit_image_hash_get_algo
 .text.fit_image_hash_get_value
                0x0000000040222108       0x50 common/built-in.o
                0x0000000040222108                fit_image_hash_get_value
 .text.fit_image_print_data
                0x0000000040222158      0x190 common/built-in.o
 .text.fit_image_print_verification_data
                0x00000000402222e8       0xbc common/built-in.o
 .text.fit_image_print
                0x00000000402223a4      0x2fc common/built-in.o
                0x00000000402223a4                fit_image_print
 .text.fit_print_contents
                0x00000000402226a0      0x454 common/built-in.o
                0x00000000402226a0                fit_print_contents
 .text.fit_get_end
                0x0000000040222af4       0x10 common/built-in.o
                0x0000000040222af4                fit_get_end
 .text.calculate_hash
                0x0000000040222b04      0x11c common/built-in.o
                0x0000000040222b04                calculate_hash
 .text.fit_image_verify_with_data
                0x0000000040222c20      0x1f4 common/built-in.o
                0x0000000040222c20                fit_image_verify_with_data
 .text.fit_image_verify
                0x0000000040222e14       0x90 common/built-in.o
                0x0000000040222e14                fit_image_verify
 .text.fit_all_image_verify
                0x0000000040222ea4      0x110 common/built-in.o
                0x0000000040222ea4                fit_all_image_verify
 .text.fit_image_check_os
                0x0000000040222fb4       0x3c common/built-in.o
                0x0000000040222fb4                fit_image_check_os
 .text.fit_image_check_arch
                0x0000000040222ff0       0x64 common/built-in.o
                0x0000000040222ff0                fit_image_check_arch
 .text.fit_image_check_type
                0x0000000040223054       0x3c common/built-in.o
                0x0000000040223054                fit_image_check_type
 .text.fit_image_check_comp
                0x0000000040223090       0x3c common/built-in.o
                0x0000000040223090                fit_image_check_comp
 .text.fit_check_format
                0x00000000402230cc       0x54 common/built-in.o
                0x00000000402230cc                fit_check_format
 .text.fit_conf_get_node
                0x0000000040223120       0xdc common/built-in.o
                0x0000000040223120                fit_conf_get_node
 .text.fit_conf_get_prop_node_index
                0x00000000402231fc       0x3c common/built-in.o
                0x00000000402231fc                fit_conf_get_prop_node_index
 .text.fit_conf_get_prop_node
                0x0000000040223238        0x8 common/built-in.o
                0x0000000040223238                fit_conf_get_prop_node
 .text.fit_get_node_from_config
                0x0000000040223240       0x54 common/built-in.o
                0x0000000040223240                fit_get_node_from_config
 .text.fit_image_load
                0x0000000040223294      0x648 common/built-in.o
                0x0000000040223294                fit_image_load
 .text.boot_get_setup_fit
                0x00000000402238dc       0x78 common/built-in.o
                0x00000000402238dc                boot_get_setup_fit
 .text.boot_get_fdt_fit
                0x0000000040223954      0x318 common/built-in.o
                0x0000000040223954                boot_get_fdt_fit
 .text.nulldev_putc
                0x0000000040223c6c        0x4 common/built-in.o
 .text.nulldev_puts
                0x0000000040223c70        0x4 common/built-in.o
 .text.nulldev_input
                0x0000000040223c74        0x8 common/built-in.o
 .text.stdio_serial_tstc
                0x0000000040223c7c        0x4 common/built-in.o
 .text.stdio_serial_getc
                0x0000000040223c80        0x4 common/built-in.o
 .text.stdio_serial_puts
                0x0000000040223c84        0x8 common/built-in.o
 .text.stdio_serial_putc
                0x0000000040223c8c        0x8 common/built-in.o
 .text.stdio_get_list
                0x0000000040223c94       0x10 common/built-in.o
                0x0000000040223c94                stdio_get_list
 .text.stdio_get_by_name
                0x0000000040223ca4       0x6c common/built-in.o
                0x0000000040223ca4                stdio_get_by_name
 .text.stdio_clone
                0x0000000040223d10       0x4c common/built-in.o
                0x0000000040223d10                stdio_clone
 .text.stdio_register_dev
                0x0000000040223d5c       0x58 common/built-in.o
                0x0000000040223d5c                stdio_register_dev
 .text.stdio_register
                0x0000000040223db4        0x8 common/built-in.o
                0x0000000040223db4                stdio_register
 .text.stdio_deregister_dev
                0x0000000040223dbc      0x120 common/built-in.o
                0x0000000040223dbc                stdio_deregister_dev
 .text.stdio_deregister
                0x0000000040223edc       0x38 common/built-in.o
                0x0000000040223edc                stdio_deregister
 .text.stdio_init_tables
                0x0000000040223f14       0x18 common/built-in.o
                0x0000000040223f14                stdio_init_tables
 .text.stdio_add_devices
                0x0000000040223f2c       0xd4 common/built-in.o
                0x0000000040223f2c                stdio_add_devices
 .text.run_command
                0x0000000040224000       0x14 common/built-in.o
                0x0000000040224000                run_command
 .text.run_command_list
                0x0000000040224014       0x90 common/built-in.o
                0x0000000040224014                run_command_list
 .text.do_run   0x00000000402240a4       0x88 common/built-in.o
                0x00000000402240a4                do_run
 .text.cli_process_fdt
                0x000000004022412c       0x50 common/built-in.o
                0x000000004022412c                cli_process_fdt
 .text.cli_secure_boot_cmd
                0x000000004022417c       0x74 common/built-in.o
                0x000000004022417c                cli_secure_boot_cmd
 .text.cli_loop
                0x00000000402241f0       0x18 common/built-in.o
                0x00000000402241f0                cli_loop
 .text.cli_init
                0x0000000040224208        0x4 common/built-in.o
                0x0000000040224208                cli_init
 .text.find_cmd_tbl
                0x000000004022420c       0xc0 common/built-in.o
                0x000000004022420c                find_cmd_tbl
 .text.find_cmd
                0x00000000402242cc       0x30 common/built-in.o
                0x00000000402242cc                find_cmd
 .text.cmd_usage
                0x00000000402242fc       0x68 common/built-in.o
                0x00000000402242fc                cmd_usage
 .text._do_help
                0x0000000040224364      0x188 common/built-in.o
                0x0000000040224364                _do_help
 .text.var_complete
                0x00000000402244ec       0x80 common/built-in.o
                0x00000000402244ec                var_complete
 .text.complete_subcmdv
                0x000000004022456c      0x1b8 common/built-in.o
                0x000000004022456c                complete_subcmdv
 .text.cmd_auto_complete
                0x0000000040224724      0x3f8 common/built-in.o
                0x0000000040224724                cmd_auto_complete
 .text.cmd_get_data_size
                0x0000000040224b1c       0x6c common/built-in.o
                0x0000000040224b1c                cmd_get_data_size
 .text.cmd_always_repeatable
                0x0000000040224b88       0x14 common/built-in.o
                0x0000000040224b88                cmd_always_repeatable
 .text.cmd_never_repeatable
                0x0000000040224b9c       0x10 common/built-in.o
                0x0000000040224b9c                cmd_never_repeatable
 .text.cmd_process
                0x0000000040224bac      0x164 common/built-in.o
                0x0000000040224bac                cmd_process
 .text.cmd_process_error
                0x0000000040224d10       0x40 common/built-in.o
                0x0000000040224d10                cmd_process_error
 .text.hex1_bin
                0x0000000040224d50       0x44 common/built-in.o
 .text.hex2_bin
                0x0000000040224d94       0x40 common/built-in.o
 .text.srec_decode
                0x0000000040224dd4      0x214 common/built-in.o
                0x0000000040224dd4                srec_decode
 .text.CYGACC_COMM_IF_GETC_TIMEOUT.isra.0
                0x0000000040224fe8       0x54 common/built-in.o
 .text.xyzModem_flush
                0x000000004022503c       0x1c common/built-in.o
 .text.xyzModem_get_hdr
                0x0000000040225058      0x200 common/built-in.o
 .text.xyzModem_stream_open
                0x0000000040225258      0x238 common/built-in.o
                0x0000000040225258                xyzModem_stream_open
 .text.xyzModem_stream_read
                0x0000000040225490      0x254 common/built-in.o
                0x0000000040225490                xyzModem_stream_read
 .text.xyzModem_stream_close
                0x00000000402256e4       0x3c common/built-in.o
                0x00000000402256e4                xyzModem_stream_close
 .text.xyzModem_stream_terminate
                0x0000000040225720       0xa4 common/built-in.o
                0x0000000040225720                xyzModem_stream_terminate
 .text.xyzModem_error
                0x00000000402257c4       0x24 common/built-in.o
                0x00000000402257c4                xyzModem_error
 .text.part_driver_lookup_type
                0x00000000402257e8       0xa4 disk/built-in.o
 .text.blk_get_dev
                0x000000004022588c       0x38 disk/built-in.o
                0x000000004022588c                blk_get_dev
 .text.dev_print
                0x00000000402258c4      0x1e4 disk/built-in.o
                0x00000000402258c4                dev_print
 .text.part_init
                0x0000000040225aa8       0x88 disk/built-in.o
                0x0000000040225aa8                part_init
 .text.part_print
                0x0000000040225b30      0x13c disk/built-in.o
                0x0000000040225b30                part_print
 .text.part_get_info
                0x0000000040225c6c       0x68 disk/built-in.o
                0x0000000040225c6c                part_get_info
 .text.part_get_info_whole_disk
                0x0000000040225cd4       0x5c disk/built-in.o
                0x0000000040225cd4                part_get_info_whole_disk
 .text.blk_get_device_by_str
                0x0000000040225d30      0x140 disk/built-in.o
                0x0000000040225d30                blk_get_device_by_str
 .text.blk_get_device_part_str
                0x0000000040225e70      0x360 disk/built-in.o
                0x0000000040225e70                blk_get_device_part_str
 .text.part_set_generic_name
                0x00000000402261d0       0x48 disk/built-in.o
                0x00000000402261d0                part_set_generic_name
 .text.test_block_type
                0x0000000040226218       0xbc disk/built-in.o
 .text.print_partition_extended
                0x00000000402262d4      0x274 disk/built-in.o
 .text.part_print_dos
                0x0000000040226548       0x3c disk/built-in.o
                0x0000000040226548                part_print_dos
 .text.part_test_dos
                0x0000000040226584       0x88 disk/built-in.o
 .text.part_get_info_extended
                0x000000004022660c      0x2cc disk/built-in.o
 .text.part_get_info_dos
                0x00000000402268d8       0x1c disk/built-in.o
                0x00000000402268d8                part_get_info_dos
 .text.print_efiname
                0x00000000402268f4       0x54 disk/built-in.o
 .text.part_test_efi
                0x0000000040226948       0xb4 disk/built-in.o
 .text.validate_gpt_header
                0x00000000402269fc      0x230 disk/built-in.o
 .text.is_gpt_valid
                0x0000000040226c2c      0x330 disk/built-in.o
 .text.is_pte_valid
                0x0000000040226f5c       0x64 disk/built-in.o
 .text.find_valid_gpt
                0x0000000040226fc0       0x84 disk/built-in.o
 .text.part_print_efi
                0x0000000040227044      0x214 disk/built-in.o
                0x0000000040227044                part_print_efi
 .text.part_get_info_efi
                0x0000000040227258      0x1e8 disk/built-in.o
                0x0000000040227258                part_get_info_efi
 .text.get_disk_guid
                0x0000000040227440       0x84 disk/built-in.o
                0x0000000040227440                get_disk_guid
 .text.write_gpt_table
                0x00000000402274c4      0x4ec disk/built-in.o
                0x00000000402274c4                write_gpt_table
 .text.gpt_fill_pte
                0x00000000402279b0      0x398 disk/built-in.o
                0x00000000402279b0                gpt_fill_pte
 .text.gpt_fill_header
                0x0000000040227d48      0x250 disk/built-in.o
                0x0000000040227d48                gpt_fill_header
 .text.gpt_restore
                0x0000000040227f98      0x150 disk/built-in.o
                0x0000000040227f98                gpt_restore
 .text.gpt_verify_headers
                0x00000000402280e8       0xa0 disk/built-in.o
                0x00000000402280e8                gpt_verify_headers
 .text.gpt_verify_partitions
                0x0000000040228188      0x1f4 disk/built-in.o
                0x0000000040228188                gpt_verify_partitions
 .text.is_valid_gpt_buf
                0x000000004022837c       0xf0 disk/built-in.o
                0x000000004022837c                is_valid_gpt_buf
 .text.write_backup_gpt_partitions
                0x000000004022846c      0x394 disk/built-in.o
                0x000000004022846c                write_backup_gpt_partitions
 .text.clk_request
                0x0000000040228800       0x30 drivers/built-in.o
                0x0000000040228800                clk_request
 .text.clk_get_by_index_tail.isra.0.part.0
                0x0000000040228830       0x94 drivers/built-in.o
 .text.clk_get_by_index
                0x00000000402288c4       0x54 drivers/built-in.o
                0x00000000402288c4                clk_get_by_index
 .text.clk_get_by_name
                0x0000000040228918       0x54 drivers/built-in.o
                0x0000000040228918                clk_get_by_name
 .text.clk_get_by_indexed_prop.isra.0
                0x000000004022896c       0x50 drivers/built-in.o
 .text.clk_free
                0x00000000402289bc       0x2c drivers/built-in.o
                0x00000000402289bc                clk_free
 .text.clk_get_rate
                0x00000000402289e8       0x34 drivers/built-in.o
                0x00000000402289e8                clk_get_rate
 .text.clk_get_parent
                0x0000000040228a1c       0x34 drivers/built-in.o
                0x0000000040228a1c                clk_get_parent
 .text.clk_get_parent_rate
                0x0000000040228a50       0x80 drivers/built-in.o
                0x0000000040228a50                clk_get_parent_rate
 .text.clk_set_rate
                0x0000000040228ad0       0x34 drivers/built-in.o
                0x0000000040228ad0                clk_set_rate
 .text.clk_set_parent
                0x0000000040228b04       0x34 drivers/built-in.o
                0x0000000040228b04                clk_set_parent
 .text.clk_set_defaults
                0x0000000040228b38      0x204 drivers/built-in.o
                0x0000000040228b38                clk_set_defaults
 .text.clk_uclass_post_probe
                0x0000000040228d3c       0x1c drivers/built-in.o
                0x0000000040228d3c                clk_uclass_post_probe
 .text.clk_get_by_id
                0x0000000040228d58       0x8c drivers/built-in.o
                0x0000000040228d58                clk_get_by_id
 .text.clk_enable
                0x0000000040228de4       0xfc drivers/built-in.o
                0x0000000040228de4                clk_enable
 .text.clk_enable_bulk
                0x0000000040228ee0       0x60 drivers/built-in.o
                0x0000000040228ee0                clk_enable_bulk
 .text.clk_disable
                0x0000000040228f40      0x100 drivers/built-in.o
                0x0000000040228f40                clk_disable
 .text.clk_release_all
                0x0000000040229040       0x7c drivers/built-in.o
                0x0000000040229040                clk_release_all
 .text.clk_get_bulk
                0x00000000402290bc       0xcc drivers/built-in.o
                0x00000000402290bc                clk_get_bulk
 .text.dummy_enable
                0x0000000040229188        0x8 drivers/built-in.o
 .text.clk_fixed_rate_get_rate
                0x0000000040229190       0x1c drivers/built-in.o
 .text.clk_fixed_rate_ofdata_to_platdata
                0x00000000402291ac       0x60 drivers/built-in.o
 .text.clk_fixed_factor_get_rate
                0x000000004022920c       0x40 drivers/built-in.o
 .text.clk_fixed_factor_ofdata_to_platdata
                0x000000004022924c       0x78 drivers/built-in.o
 .text.clk_register
                0x00000000402292c4       0xe0 drivers/built-in.o
                0x00000000402292c4                clk_register
 .text.clk_generic_get_rate
                0x00000000402293a4        0x4 drivers/built-in.o
                0x00000000402293a4                clk_generic_get_rate
 .text.clk_hw_get_name
                0x00000000402293a8        0xc drivers/built-in.o
                0x00000000402293a8                clk_hw_get_name
 .text.clk_dev_binded
                0x00000000402293b4       0x1c drivers/built-in.o
                0x00000000402293b4                clk_dev_binded
 .text.divider_recalc_rate
                0x00000000402293d0       0xa4 drivers/built-in.o
                0x00000000402293d0                divider_recalc_rate
 .text.clk_divider_recalc_rate
                0x0000000040229474       0x80 drivers/built-in.o
 .text.divider_get_val
                0x00000000402294f4      0x120 drivers/built-in.o
                0x00000000402294f4                divider_get_val
 .text.clk_divider_set_rate
                0x0000000040229614       0xec drivers/built-in.o
 .text.clk_register_divider
                0x0000000040229700       0xb8 drivers/built-in.o
                0x0000000040229700                clk_register_divider
 .text.clk_mux_val_to_index
                0x00000000402297b8       0xf8 drivers/built-in.o
                0x00000000402297b8                clk_mux_val_to_index
 .text.clk_mux_index_to_val
                0x00000000402298b0       0x30 drivers/built-in.o
                0x00000000402298b0                clk_mux_index_to_val
 .text.clk_mux_set_parent
                0x00000000402298e0      0x118 drivers/built-in.o
 .text.clk_mux_get_parent
                0x00000000402299f8       0x64 drivers/built-in.o
                0x00000000402299f8                clk_mux_get_parent
 .text.clk_hw_register_mux_table
                0x0000000040229a5c      0x1a8 drivers/built-in.o
                0x0000000040229a5c                clk_hw_register_mux_table
 .text.clk_register_mux
                0x0000000040229c04       0x34 drivers/built-in.o
                0x0000000040229c04                clk_register_mux
 .text.clk_gate_endisable
                0x0000000040229c38       0x94 drivers/built-in.o
 .text.clk_gate_disable
                0x0000000040229ccc       0x1c drivers/built-in.o
 .text.clk_gate_enable
                0x0000000040229ce8       0x1c drivers/built-in.o
 .text.clk_register_gate
                0x0000000040229d04       0xb4 drivers/built-in.o
                0x0000000040229d04                clk_register_gate
 .text.clk_factor_recalc_rate
                0x0000000040229db8       0x40 drivers/built-in.o
 .text.clk_hw_register_fixed_factor
                0x0000000040229df8       0x84 drivers/built-in.o
                0x0000000040229df8                clk_hw_register_fixed_factor
 .text.clk_register_fixed_factor
                0x0000000040229e7c        0x4 drivers/built-in.o
                0x0000000040229e7c                clk_register_fixed_factor
 .text.clk_composite_disable
                0x0000000040229e80       0x48 drivers/built-in.o
 .text.clk_composite_enable
                0x0000000040229ec8       0x44 drivers/built-in.o
 .text.clk_composite_set_rate
                0x0000000040229f0c       0x4c drivers/built-in.o
 .text.clk_composite_recalc_rate
                0x0000000040229f58       0x44 drivers/built-in.o
 .text.clk_composite_set_parent
                0x0000000040229f9c       0x4c drivers/built-in.o
 .text.clk_register_composite
                0x0000000040229fe8      0x198 drivers/built-in.o
                0x0000000040229fe8                clk_register_composite
 .text.clk_gate2_enable
                0x000000004022a180       0x50 drivers/built-in.o
 .text.clk_gate2_disable
                0x000000004022a1d0       0x44 drivers/built-in.o
 .text.clk_gate2_set_rate
                0x000000004022a214       0x38 drivers/built-in.o
 .text.clk_register_gate2
                0x000000004022a24c       0x98 drivers/built-in.o
                0x000000004022a24c                clk_register_gate2
 .text.clk_pllv3_generic_enable
                0x000000004022a2e4       0x38 drivers/built-in.o
 .text.clk_pllv3_generic_disable
                0x000000004022a31c       0x38 drivers/built-in.o
 .text.clk_pllv3_sys_get_rate
                0x000000004022a354       0x3c drivers/built-in.o
 .text.clk_pllv3_av_set_rate
                0x000000004022a390       0xc8 drivers/built-in.o
 .text.clk_pllv3_av_get_rate
                0x000000004022a458       0x6c drivers/built-in.o
 .text.clk_pllv3_generic_get_rate
                0x000000004022a4c4       0x64 drivers/built-in.o
 .text.clk_pllv3_sys_set_rate
                0x000000004022a528       0x90 drivers/built-in.o
 .text.clk_pllv3_generic_set_rate
                0x000000004022a5b8       0x98 drivers/built-in.o
 .text.clk_pfd_set_rate
                0x000000004022a650       0x94 drivers/built-in.o
 .text.clk_pfd_recalc_rate
                0x000000004022a6e4       0x58 drivers/built-in.o
 .text.imx8mm_clk_set_parent
                0x000000004022a73c       0x54 drivers/built-in.o
 .text.imx8mm_clk_set_rate
                0x000000004022a790       0x40 drivers/built-in.o
 .text.imx8mm_clk_get_rate
                0x000000004022a7d0       0x30 drivers/built-in.o
 .text.imx8mm_clk_probe
                0x000000004022a800     0x10bc drivers/built-in.o
 .text.imx8mm_clk_enable
                0x000000004022b8bc       0x28 drivers/built-in.o
 .text.imx8mm_clk_disable
                0x000000004022b8e4       0x28 drivers/built-in.o
 .text.clk_pll14xx_unprepare
                0x000000004022b90c       0x38 drivers/built-in.o
 .text.clk_pll1443x_recalc_rate
                0x000000004022b944       0x6c drivers/built-in.o
 .text.clk_pll1416x_recalc_rate
                0x000000004022b9b0       0x54 drivers/built-in.o
 .text.clk_pll14xx_wait_lock.isra.0
                0x000000004022ba04       0x70 drivers/built-in.o
 .text.clk_pll14xx_prepare
                0x000000004022ba74       0x34 drivers/built-in.o
 .text.clk_pll1443x_set_rate
                0x000000004022baa8      0x1a8 drivers/built-in.o
 .text.clk_pll1416x_set_rate
                0x000000004022bc50      0x1a8 drivers/built-in.o
 .text.imx_clk_pll14xx
                0x000000004022bdf8       0xf8 drivers/built-in.o
                0x000000004022bdf8                imx_clk_pll14xx
 .text.imx8m_clk_composite_divider_set_rate
                0x000000004022bef0      0x100 drivers/built-in.o
 .text.imx8m_clk_composite_divider_recalc_rate
                0x000000004022bff0       0x88 drivers/built-in.o
 .text.imx8m_clk_composite_flags
                0x000000004022c078      0x14c drivers/built-in.o
                0x000000004022c078                imx8m_clk_composite_flags
 .text.device_bind_common.isra.0
                0x000000004022c1c4      0x310 drivers/built-in.o
 .text.alloc_priv
                0x000000004022c4d4       0x64 drivers/built-in.o
 .text.device_bind_with_driver_data
                0x000000004022c538       0x14 drivers/built-in.o
                0x000000004022c538                device_bind_with_driver_data
 .text.device_bind
                0x000000004022c54c       0x18 drivers/built-in.o
                0x000000004022c54c                device_bind
 .text.device_bind_by_name
                0x000000004022c564       0x7c drivers/built-in.o
                0x000000004022c564                device_bind_by_name
 .text.device_ofdata_to_platdata
                0x000000004022c5e0      0x10c drivers/built-in.o
                0x000000004022c5e0                device_ofdata_to_platdata
 .text.device_probe
                0x000000004022c6ec      0x1cc drivers/built-in.o
                0x000000004022c6ec                device_probe
 .text.dev_get_platdata
                0x000000004022c8b8       0x40 drivers/built-in.o
                0x000000004022c8b8                dev_get_platdata
 .text.dev_get_parent_platdata
                0x000000004022c8f8       0x40 drivers/built-in.o
                0x000000004022c8f8                dev_get_parent_platdata
 .text.dev_get_uclass_platdata
                0x000000004022c938       0x40 drivers/built-in.o
                0x000000004022c938                dev_get_uclass_platdata
 .text.dev_get_priv
                0x000000004022c978       0x40 drivers/built-in.o
                0x000000004022c978                dev_get_priv
 .text.dev_get_uclass_priv
                0x000000004022c9b8       0x40 drivers/built-in.o
                0x000000004022c9b8                dev_get_uclass_priv
 .text.dev_get_parent_priv
                0x000000004022c9f8       0x40 drivers/built-in.o
                0x000000004022c9f8                dev_get_parent_priv
 .text.device_find_first_child
                0x000000004022ca38       0x20 drivers/built-in.o
                0x000000004022ca38                device_find_first_child
 .text.device_find_next_child
                0x000000004022ca58       0x28 drivers/built-in.o
                0x000000004022ca58                device_find_next_child
 .text.dev_get_parent
                0x000000004022ca80        0x8 drivers/built-in.o
                0x000000004022ca80                dev_get_parent
 .text.dev_get_driver_data
                0x000000004022ca88        0x8 drivers/built-in.o
                0x000000004022ca88                dev_get_driver_data
 .text.dev_get_driver_ops
                0x000000004022ca90       0x10 drivers/built-in.o
                0x000000004022ca90                dev_get_driver_ops
 .text.device_get_uclass_id
                0x000000004022caa0       0x10 drivers/built-in.o
                0x000000004022caa0                device_get_uclass_id
 .text.dev_get_uclass_name
                0x000000004022cab0       0x14 drivers/built-in.o
                0x000000004022cab0                dev_get_uclass_name
 .text.device_has_active_children
                0x000000004022cac4       0x3c drivers/built-in.o
                0x000000004022cac4                device_has_active_children
 .text.device_is_last_sibling
                0x000000004022cb00       0x24 drivers/built-in.o
                0x000000004022cb00                device_is_last_sibling
 .text.device_set_name_alloced
                0x000000004022cb24       0x10 drivers/built-in.o
                0x000000004022cb24                device_set_name_alloced
 .text.device_is_compatible
                0x000000004022cb34       0x20 drivers/built-in.o
                0x000000004022cb34                device_is_compatible
 .text.of_machine_is_compatible
                0x000000004022cb54       0x28 drivers/built-in.o
                0x000000004022cb54                of_machine_is_compatible
 .text.devfdt_get_addr_index
                0x000000004022cb7c       0xd4 drivers/built-in.o
                0x000000004022cb7c                devfdt_get_addr_index
 .text.devfdt_get_addr_size_index
                0x000000004022cc50       0x48 drivers/built-in.o
                0x000000004022cc50                devfdt_get_addr_size_index
 .text.devfdt_get_addr
                0x000000004022cc98        0x8 drivers/built-in.o
                0x000000004022cc98                devfdt_get_addr
 .text.devfdt_get_addr_ptr
                0x000000004022cca0        0x8 drivers/built-in.o
                0x000000004022cca0                devfdt_get_addr_ptr
 .text.devfdt_remap_addr_index
                0x000000004022cca8       0x20 drivers/built-in.o
                0x000000004022cca8                devfdt_remap_addr_index
 .text.devfdt_remap_addr
                0x000000004022ccc8        0x8 drivers/built-in.o
                0x000000004022ccc8                devfdt_remap_addr
 .text.lists_driver_lookup_name
                0x000000004022ccd0       0x68 drivers/built-in.o
                0x000000004022ccd0                lists_driver_lookup_name
 .text.lists_uclass_lookup
                0x000000004022cd38       0x54 drivers/built-in.o
                0x000000004022cd38                lists_uclass_lookup
 .text.lists_bind_drivers
                0x000000004022cd8c       0xb0 drivers/built-in.o
                0x000000004022cd8c                lists_bind_drivers
 .text.device_bind_driver_to_node
                0x000000004022ce3c       0x68 drivers/built-in.o
                0x000000004022ce3c                device_bind_driver_to_node
 .text.device_bind_driver
                0x000000004022cea4        0xc drivers/built-in.o
                0x000000004022cea4                device_bind_driver
 .text.lists_bind_fdt
                0x000000004022ceb0      0x1a8 drivers/built-in.o
                0x000000004022ceb0                lists_bind_fdt
 .text.dm_scan_fdt_node
                0x000000004022d058      0x108 drivers/built-in.o
 .text.dm_scan_fdt_ofnode_path
                0x000000004022d160       0x48 drivers/built-in.o
 .text.dm_root  0x000000004022d1a8       0x38 drivers/built-in.o
                0x000000004022d1a8                dm_root
 .text.dm_init  0x000000004022d1e0       0x64 drivers/built-in.o
                0x000000004022d1e0                dm_init
 .text.dm_remove_devices_flags
                0x000000004022d244       0x2c drivers/built-in.o
                0x000000004022d244                dm_remove_devices_flags
 .text.dm_scan_platdata
                0x000000004022d270       0x34 drivers/built-in.o
                0x000000004022d270                dm_scan_platdata
 .text.dm_scan_fdt_dev
                0x000000004022d2a4       0x28 drivers/built-in.o
                0x000000004022d2a4                dm_scan_fdt_dev
 .text.dm_scan_fdt
                0x000000004022d2cc       0x14 drivers/built-in.o
                0x000000004022d2cc                dm_scan_fdt
 .text.dm_extended_scan_fdt
                0x000000004022d2e0       0x54 drivers/built-in.o
                0x000000004022d2e0                dm_extended_scan_fdt
 .text.dm_scan_other
                0x000000004022d334        0x8 drivers/built-in.o
                0x000000004022d334                dm_scan_other
 .text.dm_init_and_scan
                0x000000004022d33c       0x54 drivers/built-in.o
                0x000000004022d33c                dm_init_and_scan
 .text.uclass_find
                0x000000004022d390       0x48 drivers/built-in.o
                0x000000004022d390                uclass_find
 .text.uclass_get
                0x000000004022d3d8      0x130 drivers/built-in.o
                0x000000004022d3d8                uclass_get
 .text.dev_get_uclass_index
                0x000000004022d508       0x58 drivers/built-in.o
                0x000000004022d508                dev_get_uclass_index
 .text.uclass_find_device
                0x000000004022d560       0x78 drivers/built-in.o
                0x000000004022d560                uclass_find_device
 .text.uclass_find_first_device
                0x000000004022d5d8       0x48 drivers/built-in.o
                0x000000004022d5d8                uclass_find_first_device
 .text.uclass_find_next_device
                0x000000004022d620       0x2c drivers/built-in.o
                0x000000004022d620                uclass_find_next_device
 .text.uclass_find_device_by_name
                0x000000004022d64c       0x88 drivers/built-in.o
                0x000000004022d64c                uclass_find_device_by_name
 .text.uclass_find_device_by_seq
                0x000000004022d6d4       0x90 drivers/built-in.o
                0x000000004022d6d4                uclass_find_device_by_seq
 .text.uclass_find_device_by_ofnode
                0x000000004022d764       0x7c drivers/built-in.o
                0x000000004022d764                uclass_find_device_by_ofnode
 .text.uclass_find_device_by_phandle
                0x000000004022d7e0       0xb4 drivers/built-in.o
                0x000000004022d7e0                uclass_find_device_by_phandle
 .text.uclass_get_device_tail
                0x000000004022d894       0x40 drivers/built-in.o
                0x000000004022d894                uclass_get_device_tail
 .text.uclass_get_device
                0x000000004022d8d4       0x38 drivers/built-in.o
                0x000000004022d8d4                uclass_get_device
 .text.uclass_get_device_by_name
                0x000000004022d90c       0x38 drivers/built-in.o
                0x000000004022d90c                uclass_get_device_by_name
 .text.uclass_get_device_by_seq
                0x000000004022d944       0x68 drivers/built-in.o
                0x000000004022d944                uclass_get_device_by_seq
 .text.uclass_get_device_by_ofnode
                0x000000004022d9ac       0x38 drivers/built-in.o
                0x000000004022d9ac                uclass_get_device_by_ofnode
 .text.uclass_get_device_by_phandle_id
                0x000000004022d9e4       0x90 drivers/built-in.o
                0x000000004022d9e4                uclass_get_device_by_phandle_id
 .text.uclass_get_device_by_phandle
                0x000000004022da74       0x38 drivers/built-in.o
                0x000000004022da74                uclass_get_device_by_phandle
 .text.uclass_first_device
                0x000000004022daac       0x44 drivers/built-in.o
                0x000000004022daac                uclass_first_device
 .text.uclass_first_device_err
                0x000000004022daf0       0x34 drivers/built-in.o
                0x000000004022daf0                uclass_first_device_err
 .text.uclass_next_device
                0x000000004022db24       0x44 drivers/built-in.o
                0x000000004022db24                uclass_next_device
 .text.uclass_next_device_err
                0x000000004022db68       0x34 drivers/built-in.o
                0x000000004022db68                uclass_next_device_err
 .text.uclass_first_device_check
                0x000000004022db9c       0x40 drivers/built-in.o
                0x000000004022db9c                uclass_first_device_check
 .text.uclass_next_device_check
                0x000000004022dbdc       0x30 drivers/built-in.o
                0x000000004022dbdc                uclass_next_device_check
 .text.uclass_bind_device
                0x000000004022dc0c       0x70 drivers/built-in.o
                0x000000004022dc0c                uclass_bind_device
 .text.uclass_unbind_device
                0x000000004022dc7c       0x4c drivers/built-in.o
                0x000000004022dc7c                uclass_unbind_device
 .text.uclass_resolve_seq
                0x000000004022dcc8       0xb8 drivers/built-in.o
                0x000000004022dcc8                uclass_resolve_seq
 .text.uclass_pre_probe_device
                0x000000004022dd80       0x68 drivers/built-in.o
                0x000000004022dd80                uclass_pre_probe_device
 .text.uclass_post_probe_device
                0x000000004022dde8       0x68 drivers/built-in.o
                0x000000004022dde8                uclass_post_probe_device
 .text.uclass_pre_remove_device
                0x000000004022de50       0x20 drivers/built-in.o
                0x000000004022de50                uclass_pre_remove_device
 .text.dm_warn  0x000000004022de70       0x54 drivers/built-in.o
                0x000000004022de70                dm_warn
 .text.dm_ofnode_pre_reloc
                0x000000004022dec4       0x7c drivers/built-in.o
                0x000000004022dec4                dm_ofnode_pre_reloc
 .text.device_unbind
                0x000000004022df40       0xe8 drivers/built-in.o
                0x000000004022df40                device_unbind
 .text.device_chld_unbind
                0x000000004022e028       0x78 drivers/built-in.o
                0x000000004022e028                device_chld_unbind
 .text.device_free
                0x000000004022e0a0       0x8c drivers/built-in.o
                0x000000004022e0a0                device_free
 .text.device_remove
                0x000000004022e12c      0x168 drivers/built-in.o
                0x000000004022e12c                device_remove
 .text.device_chld_remove
                0x000000004022e294       0x78 drivers/built-in.o
                0x000000004022e294                device_chld_remove
 .text.simple_bus_post_bind
                0x000000004022e30c       0x60 drivers/built-in.o
 .text.show_devices
                0x000000004022e36c      0x134 drivers/built-in.o
 .text.dm_dump_all
                0x000000004022e4a0       0x54 drivers/built-in.o
                0x000000004022e4a0                dm_dump_all
 .text.dm_dump_uclass
                0x000000004022e4f4      0x120 drivers/built-in.o
                0x000000004022e4f4                dm_dump_uclass
 .text.dm_dump_drivers
                0x000000004022e614       0xd4 drivers/built-in.o
                0x000000004022e614                dm_dump_drivers
 .text.regmap_init_mem
                0x000000004022e6e8      0x178 drivers/built-in.o
                0x000000004022e6e8                regmap_init_mem
 .text.syscon_pre_probe
                0x000000004022e860       0x4c drivers/built-in.o
 .text.ofnode_read_u32
                0x000000004022e8ac       0x58 drivers/built-in.o
                0x000000004022e8ac                ofnode_read_u32
 .text.ofnode_read_u32_default
                0x000000004022e904       0x20 drivers/built-in.o
                0x000000004022e904                ofnode_read_u32_default
 .text.ofnode_read_prop
                0x000000004022e924       0x4c drivers/built-in.o
                0x000000004022e924                ofnode_read_prop
 .text.ofnode_read_string
                0x000000004022e970       0x44 drivers/built-in.o
                0x000000004022e970                ofnode_read_string
 .text.ofnode_read_size
                0x000000004022e9b4       0x28 drivers/built-in.o
                0x000000004022e9b4                ofnode_read_size
 .text.ofnode_find_subnode
                0x000000004022e9dc       0x2c drivers/built-in.o
                0x000000004022e9dc                ofnode_find_subnode
 .text.ofnode_read_u32_array
                0x000000004022ea08       0x18 drivers/built-in.o
                0x000000004022ea08                ofnode_read_u32_array
 .text.ofnode_first_subnode
                0x000000004022ea20       0x28 drivers/built-in.o
                0x000000004022ea20                ofnode_first_subnode
 .text.ofnode_next_subnode
                0x000000004022ea48       0x28 drivers/built-in.o
                0x000000004022ea48                ofnode_next_subnode
 .text.ofnode_get_parent
                0x000000004022ea70       0x20 drivers/built-in.o
                0x000000004022ea70                ofnode_get_parent
 .text.ofnode_get_name
                0x000000004022ea90       0x20 drivers/built-in.o
                0x000000004022ea90                ofnode_get_name
 .text.ofnode_stringlist_search
                0x000000004022eab0       0x40 drivers/built-in.o
                0x000000004022eab0                ofnode_stringlist_search
 .text.ofnode_parse_phandle_with_args
                0x000000004022eaf0       0x70 drivers/built-in.o
                0x000000004022eaf0                ofnode_parse_phandle_with_args
 .text.ofnode_count_phandle_with_args
                0x000000004022eb60       0x20 drivers/built-in.o
                0x000000004022eb60                ofnode_count_phandle_with_args
 .text.ofnode_path
                0x000000004022eb80       0x28 drivers/built-in.o
                0x000000004022eb80                ofnode_path
 .text.ofnode_get_property
                0x000000004022eba8       0x14 drivers/built-in.o
                0x000000004022eba8                ofnode_get_property
 .text.ofnode_read_bool
                0x000000004022ebbc       0x20 drivers/built-in.o
                0x000000004022ebbc                ofnode_read_bool
 .text.ofnode_read_u8_array_ptr
                0x000000004022ebdc       0x14 drivers/built-in.o
                0x000000004022ebdc                ofnode_read_u8_array_ptr
 .text.ofnode_read_addr_cells
                0x000000004022ebf0        0xc drivers/built-in.o
                0x000000004022ebf0                ofnode_read_addr_cells
 .text.ofnode_read_size_cells
                0x000000004022ebfc        0xc drivers/built-in.o
                0x000000004022ebfc                ofnode_read_size_cells
 .text.ofnode_read_simple_addr_cells
                0x000000004022ec08        0x4 drivers/built-in.o
                0x000000004022ec08                ofnode_read_simple_addr_cells
 .text.ofnode_read_simple_size_cells
                0x000000004022ec0c        0x4 drivers/built-in.o
                0x000000004022ec0c                ofnode_read_simple_size_cells
 .text.ofnode_pre_reloc
                0x000000004022ec10       0x7c drivers/built-in.o
                0x000000004022ec10                ofnode_pre_reloc
 .text.ofnode_device_is_compatible
                0x000000004022ec8c       0x28 drivers/built-in.o
                0x000000004022ec8c                ofnode_device_is_compatible
 .text.sysreset_post_bind
                0x000000004022ecb4        0x8 drivers/built-in.o
 .text.sysreset_request
                0x000000004022ecbc       0x20 drivers/built-in.o
                0x000000004022ecbc                sysreset_request
 .text.sysreset_get_status
                0x000000004022ecdc       0x20 drivers/built-in.o
                0x000000004022ecdc                sysreset_get_status
 .text.sysreset_walk
                0x000000004022ecfc       0x6c drivers/built-in.o
                0x000000004022ecfc                sysreset_walk
 .text.sysreset_walk_halt
                0x000000004022ed68       0x24 drivers/built-in.o
                0x000000004022ed68                sysreset_walk_halt
 .text.do_reset
                0x000000004022ed8c       0x1c drivers/built-in.o
                0x000000004022ed8c                do_reset
 .text.psci_sysreset_request
                0x000000004022eda8       0x4c drivers/built-in.o
 .text.psci_probe
                0x000000004022edf4       0x8c drivers/built-in.o
 .text.psci_bind
                0x000000004022ee80       0x68 drivers/built-in.o
 .text.efi_reset_system_init
                0x000000004022eee8       0x28 drivers/built-in.o
                0x000000004022eee8                efi_reset_system_init
 .text.pinconfig_post_bind
                0x000000004022ef10       0xfc drivers/built-in.o
 .text.pinctrl_post_bind
                0x000000004022f00c       0x28 drivers/built-in.o
 .text.pinctrl_select_state
                0x000000004022f034      0x180 drivers/built-in.o
                0x000000004022f034                pinctrl_select_state
 .text.pinctrl_get_pins_count
                0x000000004022f1b4       0x20 drivers/built-in.o
                0x000000004022f1b4                pinctrl_get_pins_count
 .text.pinctrl_get_pin_name
                0x000000004022f1d4       0x50 drivers/built-in.o
                0x000000004022f1d4                pinctrl_get_pin_name
 .text.pinctrl_get_pin_muxing
                0x000000004022f224       0x20 drivers/built-in.o
                0x000000004022f224                pinctrl_get_pin_muxing
 .text.imx_pinctrl_set_state
                0x000000004022f244      0x310 drivers/built-in.o
 .text.imx_pinctrl_probe
                0x000000004022f554      0x120 drivers/built-in.o
                0x000000004022f554                imx_pinctrl_probe
 .text.imx_pinctrl_remove
                0x000000004022f674       0x18 drivers/built-in.o
                0x000000004022f674                imx_pinctrl_remove
 .text.imx8mq_pinctrl_probe
                0x000000004022f68c       0x28 drivers/built-in.o
 .text.get_desc
                0x000000004022f6b4       0xd0 drivers/built-in.o
 .text.blk_post_probe
                0x000000004022f784       0x1c drivers/built-in.o
 .text.blk_get_if_type_name
                0x000000004022f7a0       0x10 drivers/built-in.o
                0x000000004022f7a0                blk_get_if_type_name
 .text.blk_get_devnum_by_typename
                0x000000004022f7b0       0xf4 drivers/built-in.o
                0x000000004022f7b0                blk_get_devnum_by_typename
 .text.blk_list_part
                0x000000004022f8a4       0x7c drivers/built-in.o
                0x000000004022f8a4                blk_list_part
 .text.blk_print_part_devnum
                0x000000004022f920       0x48 drivers/built-in.o
                0x000000004022f920                blk_print_part_devnum
 .text.blk_list_devices
                0x000000004022f968       0x78 drivers/built-in.o
                0x000000004022f968                blk_list_devices
 .text.blk_print_device_num
                0x000000004022f9e0       0x48 drivers/built-in.o
                0x000000004022f9e0                blk_print_device_num
 .text.blk_show_device
                0x000000004022fa28       0x7c drivers/built-in.o
                0x000000004022fa28                blk_show_device
 .text.blk_select_hwpart
                0x000000004022faa4       0x2c drivers/built-in.o
                0x000000004022faa4                blk_select_hwpart
 .text.blk_dselect_hwpart
                0x000000004022fad0        0x8 drivers/built-in.o
                0x000000004022fad0                blk_dselect_hwpart
 .text.blk_first_device
                0x000000004022fad8       0x70 drivers/built-in.o
                0x000000004022fad8                blk_first_device
 .text.blk_next_device
                0x000000004022fb48       0x64 drivers/built-in.o
                0x000000004022fb48                blk_next_device
 .text.blk_find_device
                0x000000004022fbac       0xa0 drivers/built-in.o
                0x000000004022fbac                blk_find_device
 .text.blk_get_device
                0x000000004022fc4c       0x34 drivers/built-in.o
                0x000000004022fc4c                blk_get_device
 .text.blk_get_devnum_by_type
                0x000000004022fc80       0x2c drivers/built-in.o
                0x000000004022fc80                blk_get_devnum_by_type
 .text.blk_select_hwpart_devnum
                0x000000004022fcac       0x34 drivers/built-in.o
                0x000000004022fcac                blk_select_hwpart_devnum
 .text.blk_dread
                0x000000004022fce0       0xb8 drivers/built-in.o
                0x000000004022fce0                blk_dread
 .text.blk_read_devnum
                0x000000004022fd98       0x54 drivers/built-in.o
                0x000000004022fd98                blk_read_devnum
 .text.blk_dwrite
                0x000000004022fdec       0x84 drivers/built-in.o
                0x000000004022fdec                blk_dwrite
 .text.blk_write_devnum
                0x000000004022fe70       0x54 drivers/built-in.o
                0x000000004022fe70                blk_write_devnum
 .text.blk_derase
                0x000000004022fec4       0x70 drivers/built-in.o
                0x000000004022fec4                blk_derase
 .text.blk_get_from_parent
                0x000000004022ff34       0x5c drivers/built-in.o
                0x000000004022ff34                blk_get_from_parent
 .text.blk_find_max_devnum
                0x000000004022ff90       0x90 drivers/built-in.o
                0x000000004022ff90                blk_find_max_devnum
 .text.blk_next_free_devnum
                0x0000000040230020       0x2c drivers/built-in.o
                0x0000000040230020                blk_next_free_devnum
 .text.blk_create_device
                0x000000004023004c      0x1a8 drivers/built-in.o
                0x000000004023004c                blk_create_device
 .text.blk_create_devicef
                0x00000000402301f4       0xc4 drivers/built-in.o
                0x00000000402301f4                blk_create_devicef
 .text.blkcache_read
                0x00000000402302b8       0xf4 drivers/built-in.o
                0x00000000402302b8                blkcache_read
 .text.blkcache_fill
                0x00000000402303ac      0x14c drivers/built-in.o
                0x00000000402303ac                blkcache_fill
 .text.blkcache_invalidate
                0x00000000402304f8       0xa0 drivers/built-in.o
                0x00000000402304f8                blkcache_invalidate
 .text.blkcache_configure
                0x0000000040230598       0xa0 drivers/built-in.o
                0x0000000040230598                blkcache_configure
 .text.blkcache_stats
                0x0000000040230638       0x34 drivers/built-in.o
                0x0000000040230638                blkcache_stats
 .text.fastboot_response
                0x000000004023066c       0xa0 drivers/built-in.o
                0x000000004023066c                fastboot_response
 .text.fastboot_fail
                0x000000004023070c       0x18 drivers/built-in.o
                0x000000004023070c                fastboot_fail
 .text.fastboot_okay
                0x0000000040230724       0x24 drivers/built-in.o
                0x0000000040230724                fastboot_okay
 .text.fastboot_boot
                0x0000000040230748       0x94 drivers/built-in.o
                0x0000000040230748                fastboot_boot
 .text.fastboot_init
                0x00000000402307dc       0x58 drivers/built-in.o
                0x00000000402307dc                fastboot_init
 .text.mmc_sparse_reserve
                0x0000000040230834        0x8 drivers/built-in.o
 .text.mmc_sparse_write
                0x000000004023083c       0xec drivers/built-in.o
 .text.get_fastboot_target_dev
                0x0000000040230928      0x130 drivers/built-in.o
 .text.process_erase_blkdev
                0x0000000040230a58      0x1f0 drivers/built-in.o
 .text.write_backup_gpt
                0x0000000040230c48       0x9c drivers/built-in.o
                0x0000000040230c48                write_backup_gpt
 .text.process_flash_blkdev
                0x0000000040230ce4      0x414 drivers/built-in.o
 .text.fastboot_process_erase
                0x00000000402310f8       0x4c drivers/built-in.o
                0x00000000402310f8                fastboot_process_erase
 .text.fastboot_process_flash
                0x0000000040231144       0x4c drivers/built-in.o
                0x0000000040231144                fastboot_process_flash
 .text.okay     0x0000000040231190        0x8 drivers/built-in.o
 .text.upload   0x0000000040231198       0xa8 drivers/built-in.o
 .text.download
                0x0000000040231240       0xac drivers/built-in.o
 .text.getvar   0x00000000402312ec        0x4 drivers/built-in.o
 .text.run_acmd
                0x00000000402312f0       0x88 drivers/built-in.o
 .text.flash    0x0000000040231378       0x58 drivers/built-in.o
 .text.reboot_bootloader
                0x00000000402313d0        0x8 drivers/built-in.o
 .text.erase    0x00000000402313d8       0x3c drivers/built-in.o
 .text.run_ucmd
                0x0000000040231414       0x68 drivers/built-in.o
 .text.fastboot_run_bootmode
                0x000000004023147c        0xc drivers/built-in.o
                0x000000004023147c                fastboot_run_bootmode
 .text.fastboot_data_remaining
                0x0000000040231488       0x20 drivers/built-in.o
                0x0000000040231488                fastboot_data_remaining
 .text.fastboot_data_download
                0x00000000402314a8       0xbc drivers/built-in.o
                0x00000000402314a8                fastboot_data_download
 .text.fastboot_data_complete
                0x0000000040231564       0x60 drivers/built-in.o
                0x0000000040231564                fastboot_data_complete
 .text.fastboot_acmd_complete
                0x00000000402315c4       0x10 drivers/built-in.o
                0x00000000402315c4                fastboot_acmd_complete
 .text.fastboot_handle_command
                0x00000000402315d4       0xd8 drivers/built-in.o
                0x00000000402315d4                fastboot_handle_command
 .text.fastboot_puts
                0x00000000402316ac       0xb0 drivers/built-in.o
 .text.fastboot_putc
                0x000000004023175c       0x2c drivers/built-in.o
 .text.get_block_size
                0x0000000040231788       0x7c drivers/built-in.o
                0x0000000040231788                get_block_size
 .text.fastboot_none_resp
                0x0000000040231804        0x8 drivers/built-in.o
                0x0000000040231804                fastboot_none_resp
 .text.board_fastboot_setup
                0x000000004023180c      0x4e8 drivers/built-in.o
                0x000000004023180c                board_fastboot_setup
 .text.fastboot_setup
                0x0000000040231cf4      0x10c drivers/built-in.o
                0x0000000040231cf4                fastboot_setup
 .text.strcmp_l1
                0x0000000040231e00       0x3c drivers/built-in.o
 .text.get_serial
                0x0000000040231e3c       0x50 drivers/built-in.o
                0x0000000040231e3c                get_serial
 .text.get_single_var
                0x0000000040231e8c      0x520 drivers/built-in.o
 .text.fastboot_getvar
                0x00000000402323ac      0x488 drivers/built-in.o
                0x00000000402323ac                fastboot_getvar
 .text.bootloader_mmc_offset
                0x0000000040232834      0x234 drivers/built-in.o
 .text.bootloader_gpt_overlay
                0x0000000040232a68       0x40 drivers/built-in.o
                0x0000000040232a68                bootloader_gpt_overlay
 .text.fastboot_flash_add_ptn
                0x0000000040232aa8       0x50 drivers/built-in.o
                0x0000000040232aa8                fastboot_flash_add_ptn
 .text._fastboot_parts_load_from_ptable
                0x0000000040232af8      0x2f4 drivers/built-in.o
 .text.fastboot_load_partitions
                0x0000000040232dec        0xc drivers/built-in.o
                0x0000000040232dec                fastboot_load_partitions
 .text.fastboot_flash_dump_ptn
                0x0000000040232df8       0x6c drivers/built-in.o
                0x0000000040232df8                fastboot_flash_dump_ptn
 .text.fastboot_flash_find_ptn
                0x0000000040232e64       0x9c drivers/built-in.o
                0x0000000040232e64                fastboot_flash_find_ptn
 .text.fastboot_parts_is_raw
                0x0000000040232f00       0xa0 drivers/built-in.o
                0x0000000040232f00                fastboot_parts_is_raw
 .text.fastboot_parts_get_name
                0x0000000040232fa0      0x11c drivers/built-in.o
                0x0000000040232fa0                fastboot_parts_get_name
 .text.fastboot_parts_is_slot
                0x00000000402330bc       0x90 drivers/built-in.o
                0x00000000402330bc                fastboot_parts_is_slot
 .text.finish_access
                0x000000004023314c       0x40 drivers/built-in.o
 .text.wait_busy
                0x000000004023318c       0x38 drivers/built-in.o
 .text.prepare_access
                0x00000000402331c4       0xd0 drivers/built-in.o
 .text.set_timing
                0x0000000040233294       0xa0 drivers/built-in.o
 .text.fuse_read
                0x0000000040233334       0x80 drivers/built-in.o
                0x0000000040233334                fuse_read
 .text.fuse_sense
                0x00000000402333b4      0x108 drivers/built-in.o
                0x00000000402333b4                fuse_sense
 .text.fuse_prog
                0x00000000402334bc       0xac drivers/built-in.o
                0x00000000402334bc                fuse_prog
 .text.fuse_override
                0x0000000040233568       0x74 drivers/built-in.o
                0x0000000040233568                fuse_override
 .text.mmc_send_ext_csd
                0x00000000402335dc       0x40 drivers/built-in.o
 .text.mmc_send_op_cond_iter
                0x000000004023361c       0x74 drivers/built-in.o
 .text.mmc_go_idle
                0x0000000040233690       0x50 drivers/built-in.o
 .text.mmc_read_and_compare_ext_csd
                0x00000000402336e0       0xb0 drivers/built-in.o
 .text.mmc_set_capacity
                0x0000000040233790       0x84 drivers/built-in.o
 .text.mmc_set_signal_voltage
                0x0000000040233814       0x1c drivers/built-in.o
 .text.mmc_select_mode
                0x0000000040233830       0x58 drivers/built-in.o
 .text.mmc_power_on.isra.0
                0x0000000040233888       0x44 drivers/built-in.o
 .text.mmc_power_cycle
                0x00000000402338cc       0x64 drivers/built-in.o
 .text.sd_get_capabilities
                0x0000000040233930      0x21c drivers/built-in.o
 .text.mmc_mode_name
                0x0000000040233b4c       0x24 drivers/built-in.o
                0x0000000040233b4c                mmc_mode_name
 .text.mmc_send_status
                0x0000000040233b70       0x74 drivers/built-in.o
                0x0000000040233b70                mmc_send_status
 .text.__mmc_switch
                0x0000000040233be4      0x148 drivers/built-in.o
 .text.mmc_poll_for_busy
                0x0000000040233d2c       0xc0 drivers/built-in.o
                0x0000000040233d2c                mmc_poll_for_busy
 .text.mmc_set_blocklen
                0x0000000040233dec       0x7c drivers/built-in.o
                0x0000000040233dec                mmc_set_blocklen
 .text.mmc_send_tuning
                0x0000000040233e68       0xbc drivers/built-in.o
                0x0000000040233e68                mmc_send_tuning
 .text.mmc_bread
                0x0000000040233f24      0x17c drivers/built-in.o
                0x0000000040233f24                mmc_bread
 .text.mmc_switch
                0x00000000402340a0        0x8 drivers/built-in.o
                0x00000000402340a0                mmc_switch
 .text.mmc_startup_v4
                0x00000000402340a8      0x2e4 drivers/built-in.o
 .text.mmc_switch_part
                0x000000004023438c       0x94 drivers/built-in.o
                0x000000004023438c                mmc_switch_part
 .text.mmc_hwpart_config
                0x0000000040234420      0x3e0 drivers/built-in.o
                0x0000000040234420                mmc_hwpart_config
 .text.mmc_set_clock
                0x0000000040234800       0x30 drivers/built-in.o
                0x0000000040234800                mmc_set_clock
 .text.sd_select_mode_and_width
                0x0000000040234830      0x3dc drivers/built-in.o
 .text.mmc_set_card_speed
                0x0000000040234c0c       0xf8 drivers/built-in.o
 .text.mmc_select_mode_and_width
                0x0000000040234d04      0x468 drivers/built-in.o
 .text.mmc_dump_capabilities
                0x000000004023516c        0x4 drivers/built-in.o
                0x000000004023516c                mmc_dump_capabilities
 .text.mmc_get_op_cond
                0x0000000040235170      0x398 drivers/built-in.o
                0x0000000040235170                mmc_get_op_cond
 .text.mmc_start_init
                0x0000000040235508       0x70 drivers/built-in.o
                0x0000000040235508                mmc_start_init
 .text.mmc_init
                0x0000000040235578      0x59c drivers/built-in.o
                0x0000000040235578                mmc_init
 .text.mmc_deinit
                0x0000000040235b14       0x2c drivers/built-in.o
                0x0000000040235b14                mmc_deinit
 .text.mmc_set_dsr
                0x0000000040235b40       0x10 drivers/built-in.o
                0x0000000040235b40                mmc_set_dsr
 .text.mmc_initialize
                0x0000000040235b50       0xd8 drivers/built-in.o
                0x0000000040235b50                mmc_initialize
 .text.mmc_blk_remove
                0x0000000040235c28       0x1c drivers/built-in.o
 .text.mmc_blk_probe
                0x0000000040235c44       0x1c drivers/built-in.o
 .text.dm_mmc_set_ios
                0x0000000040235c60       0x20 drivers/built-in.o
                0x0000000040235c60                dm_mmc_set_ios
 .text.mmc_set_ios
                0x0000000040235c80        0x8 drivers/built-in.o
                0x0000000040235c80                mmc_set_ios
 .text.dm_mmc_wait_dat0
                0x0000000040235c88       0x20 drivers/built-in.o
                0x0000000040235c88                dm_mmc_wait_dat0
 .text.mmc_wait_dat0
                0x0000000040235ca8        0x8 drivers/built-in.o
                0x0000000040235ca8                mmc_wait_dat0
 .text.dm_mmc_get_wp
                0x0000000040235cb0       0x20 drivers/built-in.o
                0x0000000040235cb0                dm_mmc_get_wp
 .text.mmc_getwp
                0x0000000040235cd0        0x8 drivers/built-in.o
                0x0000000040235cd0                mmc_getwp
 .text.dm_mmc_get_cd
                0x0000000040235cd8       0x20 drivers/built-in.o
                0x0000000040235cd8                dm_mmc_get_cd
 .text.mmc_getcd
                0x0000000040235cf8        0x8 drivers/built-in.o
                0x0000000040235cf8                mmc_getcd
 .text.dm_mmc_execute_tuning
                0x0000000040235d00       0x20 drivers/built-in.o
                0x0000000040235d00                dm_mmc_execute_tuning
 .text.mmc_execute_tuning
                0x0000000040235d20        0x8 drivers/built-in.o
                0x0000000040235d20                mmc_execute_tuning
 .text.dm_mmc_set_enhanced_strobe
                0x0000000040235d28       0x20 drivers/built-in.o
                0x0000000040235d28                dm_mmc_set_enhanced_strobe
 .text.mmc_set_enhanced_strobe
                0x0000000040235d48        0x8 drivers/built-in.o
                0x0000000040235d48                mmc_set_enhanced_strobe
 .text.dm_mmc_host_power_cycle
                0x0000000040235d50       0x20 drivers/built-in.o
                0x0000000040235d50                dm_mmc_host_power_cycle
 .text.mmc_host_power_cycle
                0x0000000040235d70        0x8 drivers/built-in.o
                0x0000000040235d70                mmc_host_power_cycle
 .text.dm_mmc_deferred_probe
                0x0000000040235d78       0x20 drivers/built-in.o
                0x0000000040235d78                dm_mmc_deferred_probe
 .text.mmc_deferred_probe
                0x0000000040235d98        0x8 drivers/built-in.o
                0x0000000040235d98                mmc_deferred_probe
 .text.mmc_of_parse
                0x0000000040235da0      0x330 drivers/built-in.o
                0x0000000040235da0                mmc_of_parse
 .text.mmc_get_mmc_dev
                0x00000000402360d0       0x28 drivers/built-in.o
                0x00000000402360d0                mmc_get_mmc_dev
 .text.dm_mmc_send_cmd
                0x00000000402360f8       0x64 drivers/built-in.o
                0x00000000402360f8                dm_mmc_send_cmd
 .text.mmc_send_cmd
                0x000000004023615c        0x8 drivers/built-in.o
                0x000000004023615c                mmc_send_cmd
 .text.mmc_select_hwpart
                0x0000000040236164       0x88 drivers/built-in.o
 .text.find_mmc_device
                0x00000000402361ec       0x54 drivers/built-in.o
                0x00000000402361ec                find_mmc_device
 .text.get_mmc_num
                0x0000000040236240       0x20 drivers/built-in.o
                0x0000000040236240                get_mmc_num
 .text.mmc_get_blk_desc
                0x0000000040236260       0x28 drivers/built-in.o
                0x0000000040236260                mmc_get_blk_desc
 .text.mmc_do_preinit
                0x0000000040236288       0x68 drivers/built-in.o
                0x0000000040236288                mmc_do_preinit
 .text.print_mmc_devices
                0x00000000402362f0       0xfc drivers/built-in.o
                0x00000000402362f0                print_mmc_devices
 .text.mmc_bind
                0x00000000402363ec       0xc8 drivers/built-in.o
                0x00000000402363ec                mmc_bind
 .text.mmc_berase
                0x00000000402364b4      0x1dc drivers/built-in.o
                0x00000000402364b4                mmc_berase
 .text.mmc_bwrite
                0x0000000040236690      0x1a4 drivers/built-in.o
                0x0000000040236690                mmc_bwrite
 .text.mmc_boot_partition_size_change
                0x0000000040236834       0xbc drivers/built-in.o
                0x0000000040236834                mmc_boot_partition_size_change
 .text.mmc_set_boot_bus_width
                0x00000000402368f0       0x20 drivers/built-in.o
                0x00000000402368f0                mmc_set_boot_bus_width
 .text.mmc_set_part_conf
                0x0000000040236910       0x4c drivers/built-in.o
                0x0000000040236910                mmc_set_part_conf
 .text.mmc_set_rst_n_function
                0x000000004023695c       0x10 drivers/built-in.o
                0x000000004023695c                mmc_set_rst_n_function
 .text.fsl_esdhc_set_enhanced_strobe
                0x000000004023696c       0x30 drivers/built-in.o
 .text.fsl_esdhc_get_cd
                0x000000004023699c       0x7c drivers/built-in.o
 .text.fsl_esdhc_probe
                0x0000000040236a18      0x568 drivers/built-in.o
 .text.fsl_esdhc_bind
                0x0000000040236f80       0x2c drivers/built-in.o
 .text.fsl_esdhc_set_ios
                0x0000000040236fac      0x42c drivers/built-in.o
 .text.fsl_esdhc_execute_tuning
                0x00000000402373d8      0x1b4 drivers/built-in.o
 .text.check_and_invalidate_dcache_range.isra.0
                0x000000004023758c       0x50 drivers/built-in.o
 .text.fsl_esdhc_send_cmd
                0x00000000402375dc      0x430 drivers/built-in.o
 .text.imx7_reset_free
                0x0000000040237a0c        0x8 drivers/built-in.o
 .text.imx7_reset_deassert
                0x0000000040237a14       0x30 drivers/built-in.o
 .text.imx7_reset_assert
                0x0000000040237a44       0x30 drivers/built-in.o
 .text.imx7_reset_assert_imx7
                0x0000000040237a74       0x90 drivers/built-in.o
 .text.imx7_reset_assert_imx8mq
                0x0000000040237b04       0xac drivers/built-in.o
 .text.imx7_reset_deassert_imx7
                0x0000000040237bb0       0xa8 drivers/built-in.o
 .text.imx7_reset_deassert_imx8mq
                0x0000000040237c58       0xc8 drivers/built-in.o
 .text.imx7_reset_probe
                0x0000000040237d20       0xa0 drivers/built-in.o
 .text.imx7_reset_request
                0x0000000040237dc0        0x8 drivers/built-in.o
 .text.thermal_get_temp
                0x0000000040237dc8       0x20 drivers/built-in.o
                0x0000000040237dc8                thermal_get_temp
 .text.read_temperature
                0x0000000040237de8      0x138 drivers/built-in.o
 .text.nxp_tmu_get_temp
                0x0000000040237f20       0xe4 drivers/built-in.o
                0x0000000040237f20                nxp_tmu_get_temp
 .text.nxp_tmu_bind
                0x0000000040238004       0xdc drivers/built-in.o
 .text.nxp_tmu_probe
                0x00000000402380e0      0x438 drivers/built-in.o
 .text.gpio_post_bind
                0x0000000040238518        0x8 drivers/gpio/built-in.o
 .text.get_function
                0x0000000040238520       0xb4 drivers/gpio/built-in.o
 .text.gpio_to_device
                0x00000000402385d4       0x90 drivers/gpio/built-in.o
 .text.check_reserved
                0x0000000040238664       0x78 drivers/gpio/built-in.o
 .text.gpio_renumber
                0x00000000402386dc       0x90 drivers/gpio/built-in.o
 .text.gpio_pre_remove
                0x000000004023876c       0x5c drivers/gpio/built-in.o
 .text.gpio_post_probe
                0x00000000402387c8       0x48 drivers/gpio/built-in.o
 .text.dm_gpio_lookup_name
                0x0000000040238810      0x114 drivers/gpio/built-in.o
                0x0000000040238810                dm_gpio_lookup_name
 .text.gpio_lookup_name
                0x0000000040238924       0x7c drivers/gpio/built-in.o
                0x0000000040238924                gpio_lookup_name
 .text.gpio_xlate_offs_flags
                0x00000000402389a0       0x40 drivers/gpio/built-in.o
                0x00000000402389a0                gpio_xlate_offs_flags
 .text.dm_gpio_request
                0x00000000402389e0       0xb8 drivers/gpio/built-in.o
                0x00000000402389e0                dm_gpio_request
 .text.dm_gpio_requestf
                0x0000000040238a98       0x78 drivers/gpio/built-in.o
 .text.gpio_request
                0x0000000040238b10       0x34 drivers/gpio/built-in.o
                0x0000000040238b10                gpio_request
 .text._dm_gpio_free
                0x0000000040238b44       0x84 drivers/gpio/built-in.o
                0x0000000040238b44                _dm_gpio_free
 .text.gpio_free
                0x0000000040238bc8       0x28 drivers/gpio/built-in.o
                0x0000000040238bc8                gpio_free
 .text.gpio_direction_input
                0x0000000040238bf0       0x48 drivers/gpio/built-in.o
                0x0000000040238bf0                gpio_direction_input
 .text.gpio_direction_output
                0x0000000040238c38       0x58 drivers/gpio/built-in.o
                0x0000000040238c38                gpio_direction_output
 .text.dm_gpio_get_value
                0x0000000040238c90       0x54 drivers/gpio/built-in.o
                0x0000000040238c90                dm_gpio_get_value
 .text.dm_gpio_set_value
                0x0000000040238ce4       0x6c drivers/gpio/built-in.o
                0x0000000040238ce4                dm_gpio_set_value
 .text.dm_gpio_set_dir_flags
                0x0000000040238d50       0x9c drivers/gpio/built-in.o
                0x0000000040238d50                dm_gpio_set_dir_flags
 .text.gpio_request_tail
                0x0000000040238dec       0xfc drivers/gpio/built-in.o
 .text._gpio_request_by_name_nodev
                0x0000000040238ee8       0x9c drivers/gpio/built-in.o
 .text.gpio_get_value
                0x0000000040238f84       0x24 drivers/gpio/built-in.o
                0x0000000040238f84                gpio_get_value
 .text.gpio_get_bank_info
                0x0000000040238fa8       0x2c drivers/gpio/built-in.o
                0x0000000040238fa8                gpio_get_bank_info
 .text.gpio_get_function
                0x0000000040238fd4        0xc drivers/gpio/built-in.o
                0x0000000040238fd4                gpio_get_function
 .text.gpio_get_raw_function
                0x0000000040238fe0        0xc drivers/gpio/built-in.o
                0x0000000040238fe0                gpio_get_raw_function
 .text.gpio_get_status
                0x0000000040238fec      0x130 drivers/gpio/built-in.o
                0x0000000040238fec                gpio_get_status
 .text.gpio_request_by_name_nodev
                0x000000004023911c        0xc drivers/gpio/built-in.o
                0x000000004023911c                gpio_request_by_name_nodev
 .text.gpio_request_by_name
                0x0000000040239128       0x98 drivers/gpio/built-in.o
                0x0000000040239128                gpio_request_by_name
 .text.dm_gpio_free
                0x00000000402391c0       0x10 drivers/gpio/built-in.o
                0x00000000402391c0                dm_gpio_free
 .text.gpio_free_list
                0x00000000402391d0       0x5c drivers/gpio/built-in.o
                0x00000000402391d0                gpio_free_list
 .text.gpio_free_list_nodev
                0x000000004023922c       0x10 drivers/gpio/built-in.o
                0x000000004023922c                gpio_free_list_nodev
 .text.gpio_request_list_by_name_nodev
                0x000000004023923c       0xa4 drivers/gpio/built-in.o
                0x000000004023923c                gpio_request_list_by_name_nodev
 .text.gpio_request_list_by_name
                0x00000000402392e0        0x8 drivers/gpio/built-in.o
                0x00000000402392e0                gpio_request_list_by_name
 .text.mxc_gpio_bind
                0x00000000402392e8        0x8 drivers/gpio/built-in.o
 .text.mxc_gpio_get_function
                0x00000000402392f0       0x3c drivers/gpio/built-in.o
 .text.mxc_gpio_get_value
                0x000000004023932c       0x34 drivers/gpio/built-in.o
 .text.mxc_gpio_direction_input
                0x0000000040239360       0x44 drivers/gpio/built-in.o
 .text.mxc_gpio_ofdata_to_platdata
                0x00000000402393a4       0x50 drivers/gpio/built-in.o
 .text.mxc_gpio_probe
                0x00000000402393f4       0x88 drivers/gpio/built-in.o
 .text.mxc_gpio_direction_output
                0x000000004023947c       0x6c drivers/gpio/built-in.o
 .text.mxc_gpio_set_value
                0x00000000402394e8       0x54 drivers/gpio/built-in.o
 .text.i2c_setup_offset
                0x000000004023953c       0x70 drivers/i2c/built-in.o
 .text.i2c_probe_chip
                0x00000000402395ac       0x80 drivers/i2c/built-in.o
 .text.i2c_uclass_init
                0x000000004023962c       0x40 drivers/i2c/built-in.o
                0x000000004023962c                i2c_uclass_init
 .text.i2c_pre_probe
                0x000000004023966c       0x8c drivers/i2c/built-in.o
 .text.i2c_post_bind
                0x00000000402396f8       0x34 drivers/i2c/built-in.o
 .text.dm_i2c_read
                0x000000004023972c      0x174 drivers/i2c/built-in.o
                0x000000004023972c                dm_i2c_read
 .text.dm_i2c_write
                0x00000000402398a0      0x1f0 drivers/i2c/built-in.o
                0x00000000402398a0                dm_i2c_write
 .text.i2c_get_chip
                0x0000000040239a90      0x108 drivers/i2c/built-in.o
                0x0000000040239a90                i2c_get_chip
 .text.dm_i2c_probe
                0x0000000040239b98       0x58 drivers/i2c/built-in.o
                0x0000000040239b98                dm_i2c_probe
 .text.dm_i2c_set_bus_speed
                0x0000000040239bf0       0x5c drivers/i2c/built-in.o
                0x0000000040239bf0                dm_i2c_set_bus_speed
 .text.i2c_post_probe
                0x0000000040239c4c       0x48 drivers/i2c/built-in.o
 .text.dm_i2c_get_bus_speed
                0x0000000040239c94       0x48 drivers/i2c/built-in.o
                0x0000000040239c94                dm_i2c_get_bus_speed
 .text.i2c_set_chip_flags
                0x0000000040239cdc       0x60 drivers/i2c/built-in.o
                0x0000000040239cdc                i2c_set_chip_flags
 .text.i2c_get_chip_flags
                0x0000000040239d3c       0x2c drivers/i2c/built-in.o
                0x0000000040239d3c                i2c_get_chip_flags
 .text.i2c_set_chip_offset_len
                0x0000000040239d68       0x38 drivers/i2c/built-in.o
                0x0000000040239d68                i2c_set_chip_offset_len
 .text.i2c_get_chip_offset_len
                0x0000000040239da0       0x18 drivers/i2c/built-in.o
                0x0000000040239da0                i2c_get_chip_offset_len
 .text.i2c_deblock
                0x0000000040239db8      0x188 drivers/i2c/built-in.o
                0x0000000040239db8                i2c_deblock
 .text.i2c_chip_ofdata_to_platdata
                0x0000000040239f40       0x64 drivers/i2c/built-in.o
                0x0000000040239f40                i2c_chip_ofdata_to_platdata
 .text.i2c_child_post_bind
                0x0000000040239fa4       0x44 drivers/i2c/built-in.o
 .text.wait_for_sr_state
                0x0000000040239fe8      0x134 drivers/i2c/built-in.o
 .text.tx_byte  0x000000004023a11c       0x64 drivers/i2c/built-in.o
 .text.mxc_i2c_set_bus_speed
                0x000000004023a180       0xe8 drivers/i2c/built-in.o
 .text.mxc_i2c_probe
                0x000000004023a268      0x150 drivers/i2c/built-in.o
 .text.i2c_imx_stop
                0x000000004023a3b8       0x70 drivers/i2c/built-in.o
 .text.__i2c_force_reset_slave
                0x000000004023a428        0x4 drivers/i2c/built-in.o
                0x000000004023a428                __i2c_force_reset_slave
                0x000000004023a428                i2c_force_reset_slave
 .text.i2c_idle_bus
                0x000000004023a42c      0x188 drivers/i2c/built-in.o
                0x000000004023a42c                i2c_idle_bus
 .text.i2c_init_transfer.constprop.0
                0x000000004023a5b4      0x218 drivers/i2c/built-in.o
 .text.mxc_i2c_xfer
                0x000000004023a7cc      0x2a0 drivers/i2c/built-in.o
 .text.mxc_i2c_probe_chip
                0x000000004023aa6c       0x40 drivers/i2c/built-in.o
 .text.fec_reg_setup
                0x000000004023aaac       0x68 drivers/net/built-in.o
 .text.fecmxc_free_pkt
                0x000000004023ab14       0x28 drivers/net/built-in.o
 .text.fec_free_descs
                0x000000004023ab3c       0x48 drivers/net/built-in.o
 .text.fec_phy_write
                0x000000004023ab84       0x8c drivers/net/built-in.o
 .text.fec_phy_read
                0x000000004023ac10       0x98 drivers/net/built-in.o
 .text.fecmxc_set_hwaddr
                0x000000004023aca8       0xb0 drivers/net/built-in.o
 .text.fecmxc_read_rom_hwaddr
                0x000000004023ad58       0x80 drivers/net/built-in.o
 .text.fecmxc_halt
                0x000000004023add8       0x88 drivers/net/built-in.o
 .text.fecmxc_ofdata_to_platdata
                0x000000004023ae60      0x128 drivers/net/built-in.o
 .text.fecmxc_remove
                0x000000004023af88       0x54 drivers/net/built-in.o
 .text.fecmxc_send
                0x000000004023afdc      0x168 drivers/net/built-in.o
 .text.fec_mii_setspeed
                0x000000004023b144       0xa0 drivers/net/built-in.o
 .text.fecmxc_init
                0x000000004023b1e4      0x358 drivers/net/built-in.o
 .text.fecmxc_recv
                0x000000004023b53c      0x24c drivers/net/built-in.o
 .text.fec_get_miibus
                0x000000004023b788       0xbc drivers/net/built-in.o
                0x000000004023b788                fec_get_miibus
 .text.fecmxc_probe
                0x000000004023b844      0x42c drivers/net/built-in.o
 .text.genphy_shutdown
                0x000000004023bc70        0x8 drivers/net/phy/built-in.o
                0x000000004023bc70                genphy_shutdown
 .text.genphy_restart_aneg
                0x000000004023bc78       0x84 drivers/net/phy/built-in.o
                0x000000004023bc78                genphy_restart_aneg
 .text.genphy_config_aneg
                0x000000004023bcfc      0x248 drivers/net/phy/built-in.o
                0x000000004023bcfc                genphy_config_aneg
 .text.genphy_config
                0x000000004023bf44       0xe4 drivers/net/phy/built-in.o
                0x000000004023bf44                genphy_config
 .text.genphy_update_link
                0x000000004023c028      0x184 drivers/net/phy/built-in.o
                0x000000004023c028                genphy_update_link
 .text.genphy_parse_link
                0x000000004023c1ac      0x220 drivers/net/phy/built-in.o
                0x000000004023c1ac                genphy_parse_link
 .text.genphy_startup
                0x000000004023c3cc       0x34 drivers/net/phy/built-in.o
                0x000000004023c3cc                genphy_startup
 .text.phy_register
                0x000000004023c400       0x24 drivers/net/phy/built-in.o
                0x000000004023c400                phy_register
 .text.genphy_init
                0x000000004023c424        0xc drivers/net/phy/built-in.o
                0x000000004023c424                genphy_init
 .text.phy_init
                0x000000004023c430       0x1c drivers/net/phy/built-in.o
                0x000000004023c430                phy_init
 .text.get_phy_id
                0x000000004023c44c       0x80 drivers/net/phy/built-in.o
                0x000000004023c44c                get_phy_id
 .text.get_phy_device_by_mask
                0x000000004023c4cc      0x30c drivers/net/phy/built-in.o
 .text.phy_reset
                0x000000004023c7d8       0xe4 drivers/net/phy/built-in.o
                0x000000004023c7d8                phy_reset
 .text.phy_find_by_mask
                0x000000004023c8bc       0x4c drivers/net/phy/built-in.o
                0x000000004023c8bc                phy_find_by_mask
 .text.phy_connect_dev
                0x000000004023c908       0x58 drivers/net/phy/built-in.o
                0x000000004023c908                phy_connect_dev
 .text.phy_connect
                0x000000004023c960       0x70 drivers/net/phy/built-in.o
                0x000000004023c960                phy_connect
 .text.phy_startup
                0x000000004023c9d0       0x1c drivers/net/phy/built-in.o
                0x000000004023c9d0                phy_startup
 .text.phy_config
                0x000000004023c9ec        0x4 drivers/net/phy/built-in.o
                0x000000004023c9ec                phy_config
 .text.phy_get_interface_by_name
                0x000000004023c9f0       0x58 drivers/net/phy/built-in.o
                0x000000004023c9f0                phy_get_interface_by_name
 .text.ar8021_config
                0x000000004023ca48       0xa4 drivers/net/phy/built-in.o
 .text.ar8035_config
                0x000000004023caec      0x244 drivers/net/phy/built-in.o
 .text.ar8031_config
                0x000000004023cd30       0xfc drivers/net/phy/built-in.o
 .text.phy_atheros_init
                0x000000004023ce2c       0x38 drivers/net/phy/built-in.o
                0x000000004023ce2c                phy_atheros_init
 .text.regulator_post_bind
                0x000000004023ce64       0xcc drivers/power/regulator/built-in.o
 .text.regulator_mode
                0x000000004023cf30       0x3c drivers/power/regulator/built-in.o
                0x000000004023cf30                regulator_mode
 .text.regulator_get_value
                0x000000004023cf6c       0x44 drivers/power/regulator/built-in.o
                0x000000004023cf6c                regulator_get_value
 .text.regulator_set_value_force
                0x000000004023cfb0       0x4c drivers/power/regulator/built-in.o
                0x000000004023cfb0                regulator_set_value_force
 .text.regulator_get_current
                0x000000004023cffc       0x44 drivers/power/regulator/built-in.o
                0x000000004023cffc                regulator_get_current
 .text.regulator_set_current
                0x000000004023d040       0x94 drivers/power/regulator/built-in.o
                0x000000004023d040                regulator_set_current
 .text.regulator_get_enable
                0x000000004023d0d4       0x44 drivers/power/regulator/built-in.o
                0x000000004023d0d4                regulator_get_enable
 .text.regulator_set_value
                0x000000004023d118      0x108 drivers/power/regulator/built-in.o
                0x000000004023d118                regulator_set_value
 .text.regulator_set_enable
                0x000000004023d220       0xe4 drivers/power/regulator/built-in.o
                0x000000004023d220                regulator_set_enable
 .text.regulator_pre_probe
                0x000000004023d304      0x1bc drivers/power/regulator/built-in.o
 .text.regulator_get_mode
                0x000000004023d4c0       0x44 drivers/power/regulator/built-in.o
                0x000000004023d4c0                regulator_get_mode
 .text.regulator_set_mode
                0x000000004023d504       0x4c drivers/power/regulator/built-in.o
                0x000000004023d504                regulator_set_mode
 .text.regulator_get_by_platname
                0x000000004023d550       0x7c drivers/power/regulator/built-in.o
                0x000000004023d550                regulator_get_by_platname
 .text.device_get_supply_regulator
                0x000000004023d5cc       0x14 drivers/power/regulator/built-in.o
                0x000000004023d5cc                device_get_supply_regulator
 .text.regulator_common_ofdata_to_platdata
                0x000000004023d5e0       0xbc drivers/power/regulator/built-in.o
                0x000000004023d5e0                regulator_common_ofdata_to_platdata
 .text.regulator_common_get_enable
                0x000000004023d69c       0x18 drivers/power/regulator/built-in.o
                0x000000004023d69c                regulator_common_get_enable
 .text.regulator_common_set_enable
                0x000000004023d6b4       0x94 drivers/power/regulator/built-in.o
                0x000000004023d6b4                regulator_common_set_enable
 .text.fixed_regulator_set_enable
                0x000000004023d748       0x30 drivers/power/regulator/built-in.o
 .text.fixed_regulator_get_enable
                0x000000004023d778       0x28 drivers/power/regulator/built-in.o
 .text.fixed_regulator_get_current
                0x000000004023d7a0       0x38 drivers/power/regulator/built-in.o
 .text.fixed_regulator_get_value
                0x000000004023d7d8       0x38 drivers/power/regulator/built-in.o
 .text.fixed_regulator_ofdata_to_platdata
                0x000000004023d810       0x58 drivers/power/regulator/built-in.o
 .text.gpio_regulator_set_enable
                0x000000004023d868       0x30 drivers/power/regulator/built-in.o
 .text.gpio_regulator_get_enable
                0x000000004023d898       0x28 drivers/power/regulator/built-in.o
 .text.gpio_regulator_set_value
                0x000000004023d8c0       0x9c drivers/power/regulator/built-in.o
 .text.gpio_regulator_get_value
                0x000000004023d95c       0x70 drivers/power/regulator/built-in.o
 .text.gpio_regulator_ofdata_to_platdata
                0x000000004023d9cc       0xd8 drivers/power/regulator/built-in.o
 .text.serial_stub_start
                0x000000004023daa4       0x10 drivers/serial/built-in.o
 .text.serial_stub_stop
                0x000000004023dab4       0x10 drivers/serial/built-in.o
 .text.serial_stub_putc
                0x000000004023dac4       0x14 drivers/serial/built-in.o
 .text.serial_stub_puts
                0x000000004023dad8       0x14 drivers/serial/built-in.o
 .text.serial_stub_getc
                0x000000004023daec       0x10 drivers/serial/built-in.o
 .text.serial_stub_tstc
                0x000000004023dafc       0x10 drivers/serial/built-in.o
 .text.get_current
                0x000000004023db0c       0x3c drivers/serial/built-in.o
 .text.serial_null
                0x000000004023db48        0x4 drivers/serial/built-in.o
                0x000000004023db48                ns16550_serial_initialize
                0x000000004023db48                sh_serial_initialize
                0x000000004023db48                mtk_serial_initialize
                0x000000004023db48                xen_debug_serial_initialize
                0x000000004023db48                mcf_serial_initialize
                0x000000004023db48                mpc85xx_serial_initialize
                0x000000004023db48                pxa_serial_initialize
                0x000000004023db48                atmel_serial_initialize
                0x000000004023db48                pl01x_serial_initialize
                0x000000004023db48                xen_serial_initialize
 .text.serial_register
                0x000000004023db4c       0x14 drivers/serial/built-in.o
                0x000000004023db4c                serial_register
 .text.serial_stdio_init
                0x000000004023db60       0xb0 drivers/serial/built-in.o
                0x000000004023db60                serial_stdio_init
 .text.serial_assign
                0x000000004023dc10       0x50 drivers/serial/built-in.o
                0x000000004023dc10                serial_assign
 .text.serial_initialize
                0x000000004023dc60       0x40 drivers/serial/built-in.o
                0x000000004023dc60                serial_initialize
 .text.serial_init
                0x000000004023dca0       0x28 drivers/serial/built-in.o
                0x000000004023dca0                serial_init
 .text.serial_setbrg
                0x000000004023dcc8       0x1c drivers/serial/built-in.o
                0x000000004023dcc8                serial_setbrg
 .text.on_baudrate
                0x000000004023dce4      0x10c drivers/serial/built-in.o
 .text.serial_getc
                0x000000004023ddf0       0x1c drivers/serial/built-in.o
                0x000000004023ddf0                serial_getc
 .text.serial_tstc
                0x000000004023de0c       0x1c drivers/serial/built-in.o
                0x000000004023de0c                serial_tstc
 .text.serial_putc
                0x000000004023de28       0x2c drivers/serial/built-in.o
                0x000000004023de28                serial_putc
 .text.serial_puts
                0x000000004023de54       0x2c drivers/serial/built-in.o
                0x000000004023de54                serial_puts
 .text.default_serial_puts
                0x000000004023de80       0x3c drivers/serial/built-in.o
                0x000000004023de80                default_serial_puts
 .text.mxc_serial_getc
                0x000000004023debc       0x2c drivers/serial/built-in.o
 .text.mxc_serial_putc
                0x000000004023dee8       0x4c drivers/serial/built-in.o
 .text.mxc_serial_tstc
                0x000000004023df34       0x64 drivers/serial/built-in.o
 .text.mxc_serial_setbrg
                0x000000004023df98       0x7c drivers/serial/built-in.o
 .text.mxc_serial_init
                0x000000004023e014       0x78 drivers/serial/built-in.o
 .text.mxc_serial_initialize
                0x000000004023e08c        0xc drivers/serial/built-in.o
                0x000000004023e08c                mxc_serial_initialize
 .text.default_serial_console
                0x000000004023e098        0xc drivers/serial/built-in.o
                0x000000004023e098                default_serial_console
 .text.usb_get_dr_mode
                0x000000004023e0a4       0x88 drivers/usb/common/built-in.o
                0x000000004023e0a4                usb_get_dr_mode
 .text.usb_ep_autoconfig
                0x000000004023e12c      0x22c drivers/usb/gadget/built-in.o
                0x000000004023e12c                usb_ep_autoconfig
 .text.usb_ep_autoconfig_reset
                0x000000004023e358       0x30 drivers/usb/gadget/built-in.o
                0x000000004023e358                usb_ep_autoconfig_reset
 .text.usb_descriptor_fillbuf
                0x000000004023e388       0x84 drivers/usb/gadget/built-in.o
                0x000000004023e388                usb_descriptor_fillbuf
 .text.usb_gadget_get_string
                0x000000004023e40c      0x194 drivers/usb/gadget/built-in.o
                0x000000004023e40c                usb_gadget_get_string
 .text.ci_ep_disable
                0x000000004023e5a0       0x10 drivers/usb/gadget/built-in.o
 .text.ci_ep_dequeue
                0x000000004023e5b0       0x8c drivers/usb/gadget/built-in.o
 .text.ci_udc_gadget_start
                0x000000004023e63c       0x34 drivers/usb/gadget/built-in.o
 .text.ci_ep_free_request
                0x000000004023e670       0x60 drivers/usb/gadget/built-in.o
 .text.ci_udc_gadget_stop
                0x000000004023e6d0       0x44 drivers/usb/gadget/built-in.o
 .text.ci_ep_alloc_request
                0x000000004023e714       0x70 drivers/usb/gadget/built-in.o
 .text.ci_udc_otg_ofdata_to_platdata
                0x000000004023e784       0x7c drivers/usb/gadget/built-in.o
 .text.ci_udc_otg_remove
                0x000000004023e800       0x7c drivers/usb/gadget/built-in.o
 .text.ci_flush_qh
                0x000000004023e87c       0x1c drivers/usb/gadget/built-in.o
 .text.stop_activity
                0x000000004023e898       0xc0 drivers/usb/gadget/built-in.o
 .text.ci_flush_qtd
                0x000000004023e958       0x1c drivers/usb/gadget/built-in.o
 .text.ci_udc_probe
                0x000000004023e974      0x254 drivers/usb/gadget/built-in.o
 .text.ci_udc_otg_probe
                0x000000004023ebc8      0x2ec drivers/usb/gadget/built-in.o
 .text.ep_enable
                0x000000004023eeb4       0x74 drivers/usb/gadget/built-in.o
 .text.ci_ep_enable
                0x000000004023ef28       0x74 drivers/usb/gadget/built-in.o
 .text.ci_ep_submit_next_request
                0x000000004023ef9c      0x1cc drivers/usb/gadget/built-in.o
 .text.ci_ep_queue
                0x000000004023f168      0x128 drivers/usb/gadget/built-in.o
 .text.ci_init_after_reset
                0x000000004023f290        0x4 drivers/usb/gadget/built-in.o
                0x000000004023f290                ci_init_after_reset
 .text.udc_irq  0x000000004023f294      0x4cc drivers/usb/gadget/built-in.o
                0x000000004023f294                udc_irq
 .text.ci_udc_handle_interrupts
                0x000000004023f760       0x38 drivers/usb/gadget/built-in.o
                0x000000004023f760                ci_udc_handle_interrupts
 .text.ci_udc_gadget_handle_interrupts
                0x000000004023f798        0x4 drivers/usb/gadget/built-in.o
 .text.udc_disconnect
                0x000000004023f79c       0x60 drivers/usb/gadget/built-in.o
                0x000000004023f79c                udc_disconnect
 .text.ci_pullup
                0x000000004023f7fc       0x90 drivers/usb/gadget/built-in.o
 .text.count_configs
                0x000000004023f88c       0x84 drivers/usb/gadget/built-in.o
 .text.collect_langs
                0x000000004023f910       0x54 drivers/usb/gadget/built-in.o
 .text.composite_setup_complete
                0x000000004023f964        0x4 drivers/usb/gadget/built-in.o
 .text.count_ext_prop
                0x000000004023f968       0x58 drivers/usb/gadget/built-in.o
 .text.len_ext_prop
                0x000000004023f9c0       0x60 drivers/usb/gadget/built-in.o
 .text.composite_suspend
                0x000000004023fa20       0x80 drivers/usb/gadget/built-in.o
 .text.composite_resume
                0x000000004023faa0       0x7c drivers/usb/gadget/built-in.o
 .text.g_dnl_unbind
                0x000000004023fb1c       0x34 drivers/usb/gadget/built-in.o
 .text.lookup_string
                0x000000004023fb50       0x64 drivers/usb/gadget/built-in.o
 .text.composite_unbind
                0x000000004023fbb4      0x120 drivers/usb/gadget/built-in.o
 .text.composite_bind
                0x000000004023fcd4      0x208 drivers/usb/gadget/built-in.o
 .text.g_dnl_do_config
                0x000000004023fedc       0x5c drivers/usb/gadget/built-in.o
 .text.reset_config.isra.0
                0x000000004023ff38       0x5c drivers/usb/gadget/built-in.o
 .text.composite_disconnect
                0x000000004023ff94       0x50 drivers/usb/gadget/built-in.o
 .text.count_ext_compat
                0x000000004023ffe4       0xb0 drivers/usb/gadget/built-in.o
 .text.composite_setup
                0x0000000040240094      0xf90 drivers/usb/gadget/built-in.o
 .text.usb_add_function
                0x0000000040241024       0xd8 drivers/usb/gadget/built-in.o
                0x0000000040241024                usb_add_function
 .text.usb_interface_id
                0x00000000402410fc       0x2c drivers/usb/gadget/built-in.o
                0x00000000402410fc                usb_interface_id
 .text.usb_add_config
                0x0000000040241128      0x124 drivers/usb/gadget/built-in.o
                0x0000000040241128                usb_add_config
 .text.usb_string_id
                0x000000004024124c       0x28 drivers/usb/gadget/built-in.o
                0x000000004024124c                usb_string_id
 .text.usb_composite_register
                0x0000000040241274       0x74 drivers/usb/gadget/built-in.o
                0x0000000040241274                usb_composite_register
 .text.usb_composite_unregister
                0x00000000402412e8       0x38 drivers/usb/gadget/built-in.o
                0x00000000402412e8                usb_composite_unregister
 .text.g_dnl_set_serialnumber
                0x0000000040241320       0x40 drivers/usb/gadget/built-in.o
                0x0000000040241320                g_dnl_set_serialnumber
 .text.on_serialno
                0x0000000040241360       0x1c drivers/usb/gadget/built-in.o
 .text.g_dnl_bind_fixup
                0x000000004024137c        0x8 drivers/usb/gadget/built-in.o
                0x000000004024137c                g_dnl_bind_fixup
 .text.g_dnl_get_board_bcd_device_number
                0x0000000040241384        0x4 drivers/usb/gadget/built-in.o
                0x0000000040241384                g_dnl_get_board_bcd_device_number
 .text.g_dnl_bind
                0x0000000040241388      0x178 drivers/usb/gadget/built-in.o
 .text.g_dnl_board_usb_cable_connected
                0x0000000040241500        0x8 drivers/usb/gadget/built-in.o
                0x0000000040241500                g_dnl_board_usb_cable_connected
 .text.g_dnl_detach
                0x0000000040241508        0xc drivers/usb/gadget/built-in.o
                0x0000000040241508                g_dnl_detach
 .text.g_dnl_trigger_detach
                0x0000000040241514       0x10 drivers/usb/gadget/built-in.o
                0x0000000040241514                g_dnl_trigger_detach
 .text.g_dnl_clear_detach
                0x0000000040241524        0xc drivers/usb/gadget/built-in.o
                0x0000000040241524                g_dnl_clear_detach
 .text.g_dnl_register
                0x0000000040241530       0x4c drivers/usb/gadget/built-in.o
                0x0000000040241530                g_dnl_register
 .text.g_dnl_unregister
                0x000000004024157c        0xc drivers/usb/gadget/built-in.o
                0x000000004024157c                g_dnl_unregister
 .text.board_usb_gadget_port_auto
                0x0000000040241588        0x8 drivers/usb/gadget/built-in.o
                0x0000000040241588                board_usb_gadget_port_auto
 .text.raise_exception
                0x0000000040241590       0x24 drivers/usb/gadget/built-in.o
 .text.ep0_queue
                0x00000000402415b4       0x3c drivers/usb/gadget/built-in.o
 .text.bulk_in_complete
                0x00000000402415f0       0x4c drivers/usb/gadget/built-in.o
 .text.bulk_out_complete
                0x000000004024163c       0x4c drivers/usb/gadget/built-in.o
 .text.fsg_set_alt
                0x0000000040241688       0x28 drivers/usb/gadget/built-in.o
 .text.fsg_disable
                0x00000000402416b0       0x14 drivers/usb/gadget/built-in.o
 .text.fsg_setup
                0x00000000402416c4       0xfc drivers/usb/gadget/built-in.o
 .text.fsg_unbind
                0x00000000402417c0       0x50 drivers/usb/gadget/built-in.o
 .text.store_cdrom_address
                0x0000000040241810       0x58 drivers/usb/gadget/built-in.o
 .text.fsg_set_halt.isra.0
                0x0000000040241868       0x14 drivers/usb/gadget/built-in.o
 .text.start_transfer.isra.0
                0x000000004024187c       0x4c drivers/usb/gadget/built-in.o
 .text.halt_bulk_in_endpoint.isra.0
                0x00000000402418c8       0x48 drivers/usb/gadget/built-in.o
 .text.sleep_thread.isra.0
                0x0000000040241910      0x10c drivers/usb/gadget/built-in.o
 .text.do_read  0x0000000040241a1c      0x210 drivers/usb/gadget/built-in.o
 .text.send_status
                0x0000000040241c2c      0x100 drivers/usb/gadget/built-in.o
 .text.do_write
                0x0000000040241d2c      0x2f0 drivers/usb/gadget/built-in.o
 .text.check_command.isra.0
                0x000000004024201c      0x184 drivers/usb/gadget/built-in.o
 .text.do_mode_sense.isra.0
                0x00000000402421a0      0x188 drivers/usb/gadget/built-in.o
 .text.fsg_add  0x0000000040242328      0x2c8 drivers/usb/gadget/built-in.o
                0x0000000040242328                fsg_add
 .text.do_set_interface
                0x00000000402425f0      0x254 drivers/usb/gadget/built-in.o
 .text.fsg_main_thread
                0x0000000040242844     0x10fc drivers/usb/gadget/built-in.o
                0x0000000040242844                fsg_main_thread
 .text.usb_copy_descriptors
                0x0000000040243940       0x9c drivers/usb/gadget/built-in.o
                0x0000000040243940                usb_copy_descriptors
 .text.fsg_bind
                0x00000000402439dc       0xe8 drivers/usb/gadget/built-in.o
 .text.fsg_init
                0x0000000040243ac4       0x20 drivers/usb/gadget/built-in.o
                0x0000000040243ac4                fsg_init
 .text.fastboot_start_ep
                0x0000000040243ae4       0x7c drivers/usb/gadget/built-in.o
 .text.fastboot_add
                0x0000000040243b60       0xc8 drivers/usb/gadget/built-in.o
 .text.fastboot_disable
                0x0000000040243c28       0x8c drivers/usb/gadget/built-in.o
 .text.fastboot_complete
                0x0000000040243cb4       0x24 drivers/usb/gadget/built-in.o
 .text.do_acmd_complete
                0x0000000040243cd8       0x10 drivers/usb/gadget/built-in.o
 .text.compl_do_reset
                0x0000000040243ce8       0x14 drivers/usb/gadget/built-in.o
 .text.do_exit_on_complete
                0x0000000040243cfc        0x4 drivers/usb/gadget/built-in.o
 .text.do_bootm_on_complete
                0x0000000040243d00       0x14 drivers/usb/gadget/built-in.o
 .text.fastboot_unbind
                0x0000000040243d14       0x50 drivers/usb/gadget/built-in.o
 .text.fastboot_bind
                0x0000000040243d64      0x1dc drivers/usb/gadget/built-in.o
 .text.fastboot_fifo_complete
                0x0000000040243f40       0x64 drivers/usb/gadget/built-in.o
 .text.rx_bytes_expected.isra.0
                0x0000000040243fa4       0x64 drivers/usb/gadget/built-in.o
 .text.fastboot_set_alt
                0x0000000040244008      0x174 drivers/usb/gadget/built-in.o
 .text.fastboot_tx_write_more
                0x000000004024417c      0x108 drivers/usb/gadget/built-in.o
                0x000000004024417c                fastboot_tx_write_more
 .text.fastboot_tx_write
                0x0000000040244284       0x9c drivers/usb/gadget/built-in.o
                0x0000000040244284                fastboot_tx_write
 .text.fastboot_tx_write_str
                0x0000000040244320       0x28 drivers/usb/gadget/built-in.o
 .text.rx_handler_command
                0x0000000040244348      0x18c drivers/usb/gadget/built-in.o
 .text.rx_handler_dl_image
                0x00000000402444d4       0xcc drivers/usb/gadget/built-in.o
 .text.usb_gadget_remove_driver
                0x00000000402445a0       0x68 drivers/usb/gadget/udc/built-in.o
 .text.usb_udc_release
                0x0000000040244608        0x8 drivers/usb/gadget/udc/built-in.o
 .text.usb_add_gadget_udc_release
                0x0000000040244610       0x74 drivers/usb/gadget/udc/built-in.o
                0x0000000040244610                usb_add_gadget_udc_release
 .text.usb_add_gadget_udc
                0x0000000040244684        0x8 drivers/usb/gadget/udc/built-in.o
                0x0000000040244684                usb_add_gadget_udc
 .text.usb_del_gadget_udc
                0x000000004024468c       0x64 drivers/usb/gadget/udc/built-in.o
                0x000000004024468c                usb_del_gadget_udc
 .text.usb_gadget_probe_driver
                0x00000000402446f0      0x12c drivers/usb/gadget/udc/built-in.o
                0x00000000402446f0                usb_gadget_probe_driver
 .text.usb_gadget_register_driver
                0x000000004024481c        0x4 drivers/usb/gadget/udc/built-in.o
                0x000000004024481c                usb_gadget_register_driver
 .text.usb_gadget_unregister_driver
                0x0000000040244820       0x7c drivers/usb/gadget/udc/built-in.o
                0x0000000040244820                usb_gadget_unregister_driver
 .text.usb_gadget_initialize
                0x000000004024489c       0xa4 drivers/usb/gadget/udc/built-in.o
                0x000000004024489c                usb_gadget_initialize
 .text.usb_gadget_release
                0x0000000040244940       0x48 drivers/usb/gadget/udc/built-in.o
                0x0000000040244940                usb_gadget_release
 .text.usb_gadget_handle_interrupts
                0x0000000040244988       0x50 drivers/usb/gadget/udc/built-in.o
                0x0000000040244988                usb_gadget_handle_interrupts
 .text.usb_match_device
                0x00000000402449d8       0xc4 drivers/usb/host/built-in.o
 .text.usb_child_post_bind
                0x0000000040244a9c       0x88 drivers/usb/host/built-in.o
 .text.usb_match_one_id_intf.isra.0
                0x0000000040244b24       0x80 drivers/usb/host/built-in.o
 .text.remove_inactive_children.isra.0
                0x0000000040244ba4       0x80 drivers/usb/host/built-in.o
 .text.usb_lock_async
                0x0000000040244c24       0x24 drivers/usb/host/built-in.o
                0x0000000040244c24                usb_lock_async
 .text.usb_disable_asynch
                0x0000000040244c48       0x1c drivers/usb/host/built-in.o
                0x0000000040244c48                usb_disable_asynch
 .text.submit_int_msg
                0x0000000040244c64       0x40 drivers/usb/host/built-in.o
                0x0000000040244c64                submit_int_msg
 .text.submit_control_msg
                0x0000000040244ca4       0x9c drivers/usb/host/built-in.o
                0x0000000040244ca4                submit_control_msg
 .text.submit_bulk_msg
                0x0000000040244d40       0x38 drivers/usb/host/built-in.o
                0x0000000040244d40                submit_bulk_msg
 .text.usb_alloc_device
                0x0000000040244d78       0x28 drivers/usb/host/built-in.o
                0x0000000040244d78                usb_alloc_device
 .text.usb_reset_root_port
                0x0000000040244da0       0x28 drivers/usb/host/built-in.o
                0x0000000040244da0                usb_reset_root_port
 .text.usb_update_hub_device
                0x0000000040244dc8       0x28 drivers/usb/host/built-in.o
                0x0000000040244dc8                usb_update_hub_device
 .text.usb_get_max_xfer_size
                0x0000000040244df0       0x24 drivers/usb/host/built-in.o
                0x0000000040244df0                usb_get_max_xfer_size
 .text.usb_stop
                0x0000000040244e14       0xb8 drivers/usb/host/built-in.o
                0x0000000040244e14                usb_stop
 .text.usb_get_bus
                0x0000000040244ecc       0x3c drivers/usb/host/built-in.o
                0x0000000040244ecc                usb_get_bus
 .text.usb_scan_device
                0x0000000040244f08      0x2a4 drivers/usb/host/built-in.o
                0x0000000040244f08                usb_scan_device
 .text.usb_scan_bus.isra.0
                0x00000000402451ac       0x80 drivers/usb/host/built-in.o
 .text.usb_init
                0x000000004024522c      0x1a8 drivers/usb/host/built-in.o
                0x000000004024522c                usb_init
 .text.usb_child_pre_probe
                0x00000000402453d4       0x84 drivers/usb/host/built-in.o
                0x00000000402453d4                usb_child_pre_probe
 .text.ehci_get_port_speed
                0x0000000040245458        0x8 drivers/usb/host/built-in.o
 .text.ehci_set_usbmode
                0x0000000040245460       0x20 drivers/usb/host/built-in.o
 .text.ehci_get_portsc_register
                0x0000000040245480       0x34 drivers/usb/host/built-in.o
 .text.ehci_get_max_xfer_size
                0x00000000402454b4       0x10 drivers/usb/host/built-in.o
 .text.ehci_powerup_fixup
                0x00000000402454c4        0x8 drivers/usb/host/built-in.o
 .text.handshake
                0x00000000402454cc       0x70 drivers/usb/host/built-in.o
 .text.ehci_td_buffer
                0x000000004024553c       0x94 drivers/usb/host/built-in.o
 .text.ehci_shutdown
                0x00000000402455d0      0x104 drivers/usb/host/built-in.o
 .text._ehci_poll_int_queue
                0x00000000402456d4       0xe0 drivers/usb/host/built-in.o
 .text.ehci_poll_int_queue
                0x00000000402457b4        0xc drivers/usb/host/built-in.o
 .text.ehci_disable_async.part.0
                0x00000000402457c0       0x74 drivers/usb/host/built-in.o
 .text.disable_periodic.isra.0
                0x0000000040245834       0x54 drivers/usb/host/built-in.o
 .text.enable_periodic.isra.0
                0x0000000040245888       0x5c drivers/usb/host/built-in.o
 .text.ehci_get_ctrl.isra.0
                0x00000000402458e4       0x14 drivers/usb/host/built-in.o
 .text._ehci_destroy_int_queue
                0x00000000402458f8       0xfc drivers/usb/host/built-in.o
 .text.ehci_destroy_int_queue
                0x00000000402459f4        0xc drivers/usb/host/built-in.o
 .text.ehci_update_endpt2_dev_n_port.isra.0
                0x0000000040245a00       0x60 drivers/usb/host/built-in.o
 .text.ehci_submit_async
                0x0000000040245a60      0x5bc drivers/usb/host/built-in.o
 .text.ehci_submit_bulk_msg
                0x000000004024601c       0x2c drivers/usb/host/built-in.o
 .text._ehci_create_int_queue.isra.0
                0x0000000040246048      0x3a0 drivers/usb/host/built-in.o
 .text.ehci_create_int_queue
                0x00000000402463e8       0x18 drivers/usb/host/built-in.o
 .text.ehci_submit_int_msg
                0x0000000040246400       0xdc drivers/usb/host/built-in.o
 .text.ehci_submit_control_msg
                0x00000000402464dc      0x584 drivers/usb/host/built-in.o
 .text.ehci_lock_async
                0x0000000040246a60       0x40 drivers/usb/host/built-in.o
 .text.ehci_register
                0x0000000040246aa0      0x37c drivers/usb/host/built-in.o
                0x0000000040246aa0                ehci_register
 .text.ehci_deregister
                0x0000000040246e1c       0x28 drivers/usb/host/built-in.o
                0x0000000040246e1c                ehci_deregister
 .text.ehci_usb_remove
                0x0000000040246e44       0x4c drivers/usb/host/built-in.o
                0x0000000040246e44                ehci_usb_remove
 .text.mx6_init_after_reset
                0x0000000040246e90       0xcc drivers/usb/host/built-in.o
 .text.ehci_mx6_powerup_fixup
                0x0000000040246f5c       0x5c drivers/usb/host/built-in.o
 .text.ehci_usb_probe
                0x0000000040246fb8      0x42c drivers/usb/host/built-in.o
 .text.ehci_usb_bind
                0x00000000402473e4       0x50 drivers/usb/host/built-in.o
 .text.board_ehci_usb_phy_mode
                0x0000000040247434        0x8 drivers/usb/host/built-in.o
                0x0000000040247434                board_ehci_usb_phy_mode
 .text.ehci_usb_ofdata_to_platdata
                0x000000004024743c       0xcc drivers/usb/host/built-in.o
 .text.board_ehci_hcd_init
                0x0000000040247508        0x8 drivers/usb/imx/built-in.o
                0x0000000040247508                board_ehci_hcd_init
 .text.ehci_mx6_common_init
                0x0000000040247510       0x98 drivers/usb/imx/built-in.o
                0x0000000040247510                ehci_mx6_common_init
 .text.env_get_yesno
                0x00000000402475a8       0x4c env/built-in.o
                0x00000000402475a8                env_get_yesno
 .text.env_get_default
                0x00000000402475f4       0x3c env/built-in.o
                0x00000000402475f4                env_get_default
 .text.env_set_default
                0x0000000040247630       0x98 env/built-in.o
                0x0000000040247630                env_set_default
 .text.env_set_default_vars
                0x00000000402476c8       0x2c env/built-in.o
                0x00000000402476c8                env_set_default_vars
 .text.env_import
                0x00000000402476f4       0xcc env/built-in.o
                0x00000000402476f4                env_import
 .text.env_export
                0x00000000402477c0       0x80 env/built-in.o
                0x00000000402477c0                env_export
 .text.env_relocate
                0x0000000040247840       0x30 env/built-in.o
                0x0000000040247840                env_relocate
 .text.env_complete
                0x0000000040247870      0x1b0 env/built-in.o
                0x0000000040247870                env_complete
 .text.env_get_location
                0x0000000040247a20       0x18 env/built-in.o
                0x0000000040247a20                env_get_location
 .text.env_driver_lookup
                0x0000000040247a38       0x68 env/built-in.o
 .text.env_get_char_spec
                0x0000000040247aa0        0xc env/built-in.o
                0x0000000040247aa0                env_get_char_spec
 .text.env_get_char
                0x0000000040247aac       0x1c env/built-in.o
                0x0000000040247aac                env_get_char
 .text.env_load
                0x0000000040247ac8       0xc8 env/built-in.o
                0x0000000040247ac8                env_load
 .text.env_save
                0x0000000040247b90       0x94 env/built-in.o
                0x0000000040247b90                env_save
 .text.env_init
                0x0000000040247c24       0xa0 env/built-in.o
                0x0000000040247c24                env_init
 .text.env_get_offset
                0x0000000040247cc4        0x4 env/built-in.o
                0x0000000040247cc4                env_get_offset
 .text.regex_callback
                0x0000000040247cc8      0x144 env/built-in.o
 .text.env_attr_walk
                0x0000000040247e0c      0x134 env/built-in.o
                0x0000000040247e0c                env_attr_walk
 .text.env_attr_lookup
                0x0000000040247f40       0x7c env/built-in.o
                0x0000000040247f40                env_attr_lookup
 .text.skip_num
                0x0000000040247fbc       0x68 env/built-in.o
 .text.clear_flags
                0x0000000040248024        0xc env/built-in.o
 .text.on_flags
                0x0000000040248030       0x60 env/built-in.o
 .text.env_flags_parse_vartype
                0x0000000040248090       0x58 env/built-in.o
                0x0000000040248090                env_flags_parse_vartype
 .text.env_flags_parse_varaccess
                0x00000000402480e8       0x5c env/built-in.o
                0x00000000402480e8                env_flags_parse_varaccess
 .text.set_flags
                0x0000000040248144       0xac env/built-in.o
 .text.eth_validate_ethaddr_str
                0x00000000402481f0       0x98 env/built-in.o
                0x00000000402481f0                eth_validate_ethaddr_str
 .text.env_flags_init
                0x0000000040248288       0xbc env/built-in.o
                0x0000000040248288                env_flags_init
 .text.env_flags_validate
                0x0000000040248344      0x278 env/built-in.o
                0x0000000040248344                env_flags_validate
 .text.clear_callback
                0x00000000402485bc        0xc env/built-in.o
 .text.find_env_callback
                0x00000000402485c8       0x74 env/built-in.o
 .text.on_callbacks
                0x000000004024863c       0x60 env/built-in.o
 .text.set_callback
                0x000000004024869c       0x90 env/built-in.o
 .text.env_callback_init
                0x000000004024872c       0xb4 env/built-in.o
                0x000000004024872c                env_callback_init
 .text.mmc_get_env_addr
                0x00000000402487e0       0xfc env/built-in.o
                0x00000000402487e0                mmc_get_env_addr
 .text.env_mmc_save
                0x00000000402488dc      0x11c env/built-in.o
 .text.env_mmc_load
                0x00000000402489f8      0x114 env/built-in.o
 .text.fs_probe_unsupported
                0x0000000040248b0c       0x20 fs/built-in.o
 .text.fs_ls_unsupported
                0x0000000040248b2c        0x8 fs/built-in.o
 .text.fs_exists_unsupported
                0x0000000040248b34        0x8 fs/built-in.o
 .text.fs_size_unsupported
                0x0000000040248b3c        0x8 fs/built-in.o
 .text.fs_read_unsupported
                0x0000000040248b44        0x8 fs/built-in.o
 .text.fs_close_unsupported
                0x0000000040248b4c        0x4 fs/built-in.o
 .text.fs_opendir_unsupported
                0x0000000040248b50        0x8 fs/built-in.o
 .text.fs_get_info
                0x0000000040248b58       0x30 fs/built-in.o
 .text.fs_read_lmb_check.isra.0
                0x0000000040248b88       0x9c fs/built-in.o
 .text.fs_write_unsupported
                0x0000000040248c24        0x8 fs/built-in.o
 .text.fs_mkdir_unsupported
                0x0000000040248c2c        0x8 fs/built-in.o
 .text.fs_ln_unsupported
                0x0000000040248c34        0x8 fs/built-in.o
 .text.fs_uuid_unsupported
                0x0000000040248c3c        0x8 fs/built-in.o
 .text.fs_unlink_unsupported
                0x0000000040248c44        0x8 fs/built-in.o
 .text.fs_get_type
                0x0000000040248c4c        0xc fs/built-in.o
                0x0000000040248c4c                fs_get_type
 .text.fs_set_blk_dev
                0x0000000040248c58       0xbc fs/built-in.o
                0x0000000040248c58                fs_set_blk_dev
 .text.fs_set_blk_dev_with_part
                0x0000000040248d14       0xb8 fs/built-in.o
                0x0000000040248d14                fs_set_blk_dev_with_part
 .text.fs_close
                0x0000000040248dcc       0x30 fs/built-in.o
                0x0000000040248dcc                fs_close
 .text.fs_ls    0x0000000040248dfc       0x40 fs/built-in.o
                0x0000000040248dfc                fs_ls
 .text.fs_exists
                0x0000000040248e3c       0x40 fs/built-in.o
                0x0000000040248e3c                fs_exists
 .text.fs_size  0x0000000040248e7c       0x48 fs/built-in.o
                0x0000000040248e7c                fs_size
 .text.fs_read  0x0000000040248ec4       0x58 fs/built-in.o
                0x0000000040248ec4                fs_read
 .text.fs_write
                0x0000000040248f1c       0x88 fs/built-in.o
                0x0000000040248f1c                fs_write
 .text.fs_opendir
                0x0000000040248fa4       0x7c fs/built-in.o
                0x0000000040248fa4                fs_opendir
 .text.fs_readdir
                0x0000000040249020       0x68 fs/built-in.o
                0x0000000040249020                fs_readdir
 .text.fs_closedir
                0x0000000040249088       0x48 fs/built-in.o
                0x0000000040249088                fs_closedir
 .text.fs_ls_generic
                0x00000000402490d0       0xc0 fs/built-in.o
 .text.fs_unlink
                0x0000000040249190       0x40 fs/built-in.o
                0x0000000040249190                fs_unlink
 .text.fs_mkdir
                0x00000000402491d0       0x40 fs/built-in.o
                0x00000000402491d0                fs_mkdir
 .text.fs_ln    0x0000000040249210       0x70 fs/built-in.o
                0x0000000040249210                fs_ln
 .text.do_size  0x0000000040249280       0x6c fs/built-in.o
                0x0000000040249280                do_size
 .text.do_load  0x00000000402492ec      0x27c fs/built-in.o
                0x00000000402492ec                do_load
 .text.do_ls    0x0000000040249568       0x84 fs/built-in.o
                0x0000000040249568                do_ls
 .text.file_exists
                0x00000000402495ec       0x3c fs/built-in.o
                0x00000000402495ec                file_exists
 .text.do_save  0x0000000040249628      0x14c fs/built-in.o
                0x0000000040249628                do_save
 .text.do_fs_type
                0x0000000040249774       0x90 fs/built-in.o
                0x0000000040249774                do_fs_type
 .text.do_rm    0x0000000040249804       0x54 fs/built-in.o
                0x0000000040249804                do_rm
 .text.do_mkdir
                0x0000000040249858       0x5c fs/built-in.o
                0x0000000040249858                do_mkdir
 .text.do_ln    0x00000000402498b4       0x54 fs/built-in.o
                0x00000000402498b4                do_ln
 .text.get_fs   0x0000000040249908        0xc fs/built-in.o
                0x0000000040249908                get_fs
 .text.ext4fs_free_node
                0x0000000040249914       0x24 fs/built-in.o
                0x0000000040249914                ext4fs_free_node
 .text.ext4fs_ls
                0x0000000040249938       0x90 fs/built-in.o
                0x0000000040249938                ext4fs_ls
 .text.ext4fs_exists
                0x00000000402499c8       0x20 fs/built-in.o
                0x00000000402499c8                ext4fs_exists
 .text.ext4fs_size
                0x00000000402499e8        0x4 fs/built-in.o
                0x00000000402499e8                ext4fs_size
 .text.ext4fs_probe
                0x00000000402499ec       0x3c fs/built-in.o
                0x00000000402499ec                ext4fs_probe
 .text.ext4fs_uuid
                0x0000000040249a28       0x38 fs/built-in.o
                0x0000000040249a28                ext4fs_uuid
 .text.ext_cache_init
                0x0000000040249a60        0xc fs/built-in.o
                0x0000000040249a60                ext_cache_init
 .text.ext_cache_fini
                0x0000000040249a6c       0x28 fs/built-in.o
                0x0000000040249a6c                ext_cache_fini
 .text.ext4fs_read_file
                0x0000000040249a94      0x2e4 fs/built-in.o
                0x0000000040249a94                ext4fs_read_file
 .text.ext4fs_read
                0x0000000040249d78       0x30 fs/built-in.o
                0x0000000040249d78                ext4fs_read
 .text.ext4_read_file
                0x0000000040249da8       0x7c fs/built-in.o
                0x0000000040249da8                ext4_read_file
 .text.ext_cache_read
                0x0000000040249e24       0xa8 fs/built-in.o
                0x0000000040249e24                ext_cache_read
 .text.ext4fs_get_group_descriptor
                0x0000000040249ecc       0x14 fs/built-in.o
                0x0000000040249ecc                ext4fs_get_group_descriptor
 .text.ext4fs_sb_get_free_blocks
                0x0000000040249ee0       0x10 fs/built-in.o
                0x0000000040249ee0                ext4fs_sb_get_free_blocks
 .text.ext4fs_sb_set_free_blocks
                0x0000000040249ef0       0x10 fs/built-in.o
                0x0000000040249ef0                ext4fs_sb_set_free_blocks
 .text.ext4fs_bg_get_free_blocks
                0x0000000040249f00       0x20 fs/built-in.o
                0x0000000040249f00                ext4fs_bg_get_free_blocks
 .text.ext4fs_bg_get_block_id
                0x0000000040249f20       0x20 fs/built-in.o
                0x0000000040249f20                ext4fs_bg_get_block_id
 .text.ext4fs_bg_get_inode_id
                0x0000000040249f40       0x20 fs/built-in.o
                0x0000000040249f40                ext4fs_bg_get_inode_id
 .text.ext4fs_bg_get_inode_table_id
                0x0000000040249f60       0x20 fs/built-in.o
                0x0000000040249f60                ext4fs_bg_get_inode_table_id
 .text.ext4fs_div_roundup
                0x0000000040249f80       0x14 fs/built-in.o
                0x0000000040249f80                ext4fs_div_roundup
 .text.put_ext4
                0x0000000040249f94      0x140 fs/built-in.o
                0x0000000040249f94                put_ext4
 .text.ext4fs_set_block_bmap
                0x000000004024a0d4       0xac fs/built-in.o
                0x000000004024a0d4                ext4fs_set_block_bmap
 .text.ext4fs_reset_block_bmap
                0x000000004024a180       0x9c fs/built-in.o
                0x000000004024a180                ext4fs_reset_block_bmap
 .text.ext4fs_set_inode_bmap
                0x000000004024a21c       0x78 fs/built-in.o
                0x000000004024a21c                ext4fs_set_inode_bmap
 .text.ext4fs_reset_inode_bmap
                0x000000004024a294       0x6c fs/built-in.o
                0x000000004024a294                ext4fs_reset_inode_bmap
 .text.ext4fs_checksum_update
                0x000000004024a300       0xa0 fs/built-in.o
                0x000000004024a300                ext4fs_checksum_update
 .text.ext4fs_get_new_blk_no
                0x000000004024a3a0      0x400 fs/built-in.o
                0x000000004024a3a0                ext4fs_get_new_blk_no
 .text.ext4fs_get_new_inode_no
                0x000000004024a7a0      0x3e0 fs/built-in.o
                0x000000004024a7a0                ext4fs_get_new_inode_no
 .text.ext4fs_allocate_blocks
                0x000000004024ab80      0x490 fs/built-in.o
                0x000000004024ab80                ext4fs_allocate_blocks
 .text.ext4fs_read_inode
                0x000000004024b010      0x188 fs/built-in.o
                0x000000004024b010                ext4fs_read_inode
 .text.ext4fs_iget
                0x000000004024b198       0x2c fs/built-in.o
                0x000000004024b198                ext4fs_iget
 .text.read_allocated_block
                0x000000004024b1c4      0x848 fs/built-in.o
                0x000000004024b1c4                read_allocated_block
 .text.ext4fs_update_parent_dentry
                0x000000004024ba0c      0x398 fs/built-in.o
                0x000000004024ba0c                ext4fs_update_parent_dentry
 .text.search_dir
                0x000000004024bda4      0x164 fs/built-in.o
 .text.ext4fs_get_parent_inode_num
                0x000000004024bf08      0x3f4 fs/built-in.o
                0x000000004024bf08                ext4fs_get_parent_inode_num
 .text.ext4fs_filename_unlink
                0x000000004024c2fc      0x1e4 fs/built-in.o
                0x000000004024c2fc                ext4fs_filename_unlink
 .text.ext4fs_reinit_global
                0x000000004024c4e0       0x90 fs/built-in.o
                0x000000004024c4e0                ext4fs_reinit_global
 .text.ext4fs_close
                0x000000004024c570       0x4c fs/built-in.o
                0x000000004024c570                ext4fs_close
 .text.ext4fs_iterate_dir
                0x000000004024c5bc      0x290 fs/built-in.o
                0x000000004024c5bc                ext4fs_iterate_dir
 .text.ext4fs_find_file1
                0x000000004024c84c      0x294 fs/built-in.o
 .text.ext4fs_find_file
                0x000000004024cae0       0x74 fs/built-in.o
                0x000000004024cae0                ext4fs_find_file
 .text.ext4fs_open
                0x000000004024cb54       0xa0 fs/built-in.o
                0x000000004024cb54                ext4fs_open
 .text.ext4fs_mount
                0x000000004024cbf4       0xec fs/built-in.o
                0x000000004024cbf4                ext4fs_mount
 .text.ext4fs_set_blk_dev
                0x000000004024cce0       0x5c fs/built-in.o
                0x000000004024cce0                ext4fs_set_blk_dev
 .text.ext4fs_devread
                0x000000004024cd3c       0x50 fs/built-in.o
                0x000000004024cd3c                ext4fs_devread
 .text.ext4_read_superblock
                0x000000004024cd8c       0x48 fs/built-in.o
                0x000000004024cd8c                ext4_read_superblock
 .text.ext4fs_update
                0x000000004024cdd4      0x110 fs/built-in.o
 .text.ext4fs_get_bgdtable
                0x000000004024cee4       0xd0 fs/built-in.o
                0x000000004024cee4                ext4fs_get_bgdtable
 .text.ext4fs_deinit
                0x000000004024cfb4      0x188 fs/built-in.o
                0x000000004024cfb4                ext4fs_deinit
 .text.ext4fs_init
                0x000000004024d13c      0x2e4 fs/built-in.o
                0x000000004024d13c                ext4fs_init
 .text.ext4fs_write
                0x000000004024d420     0x11a4 fs/built-in.o
                0x000000004024d420                ext4fs_write
 .text.ext4_write_file
                0x000000004024e5c4       0x60 fs/built-in.o
                0x000000004024e5c4                ext4_write_file
 .text.ext4fs_create_link
                0x000000004024e624       0x34 fs/built-in.o
                0x000000004024e624                ext4fs_create_link
 .text.ext4fs_dump_metadata
                0x000000004024e658       0x68 fs/built-in.o
                0x000000004024e658                ext4fs_dump_metadata
 .text.ext4fs_free_journal
                0x000000004024e6c0       0xcc fs/built-in.o
                0x000000004024e6c0                ext4fs_free_journal
 .text.ext4fs_log_gdt
                0x000000004024e78c       0xe4 fs/built-in.o
                0x000000004024e78c                ext4fs_log_gdt
 .text.ext4fs_log_journal
                0x000000004024e870       0xfc fs/built-in.o
                0x000000004024e870                ext4fs_log_journal
 .text.ext4fs_put_metadata
                0x000000004024e96c       0xdc fs/built-in.o
                0x000000004024e96c                ext4fs_put_metadata
 .text.ext4fs_push_revoke_blk
                0x000000004024ea48       0xf0 fs/built-in.o
                0x000000004024ea48                ext4fs_push_revoke_blk
 .text.ext4fs_free_revoke_blks
                0x000000004024eb38       0x68 fs/built-in.o
                0x000000004024eb38                ext4fs_free_revoke_blks
 .text.check_blknr_for_revoke
                0x000000004024eba0       0x60 fs/built-in.o
                0x000000004024eba0                check_blknr_for_revoke
 .text.recover_transaction
                0x000000004024ec00      0x174 fs/built-in.o
                0x000000004024ec00                recover_transaction
 .text.print_jrnl_status
                0x000000004024ed74       0x20 fs/built-in.o
                0x000000004024ed74                print_jrnl_status
 .text.ext4fs_check_journal_state
                0x000000004024ed94      0x2e4 fs/built-in.o
                0x000000004024ed94                ext4fs_check_journal_state
 .text.ext4fs_init_journal
                0x000000004024f078      0x238 fs/built-in.o
                0x000000004024f078                ext4fs_init_journal
 .text.ext4fs_update_journal
                0x000000004024f2b0      0x340 fs/built-in.o
                0x000000004024f2b0                ext4fs_update_journal
 .text.ext2fs_crc16
                0x000000004024f5f0       0x3c fs/built-in.o
                0x000000004024f5f0                ext2fs_crc16
 .text.downcase
                0x000000004024f62c       0x3c fs/built-in.o
 .text.mkcksum  0x000000004024f668       0x54 fs/built-in.o
 .text.fat_itr_child
                0x000000004024f6bc       0x74 fs/built-in.o
 .text.disk_read
                0x000000004024f730       0x64 fs/built-in.o
 .text.get_cluster
                0x000000004024f794      0x16c fs/built-in.o
 .text.read_bootsectandvi
                0x000000004024f900      0x134 fs/built-in.o
 .text.fat_itr_root
                0x000000004024fa34      0x1bc fs/built-in.o
 .text.split_filename
                0x000000004024fbf0       0xf4 fs/built-in.o
 .text.disk_write
                0x000000004024fce4       0x84 fs/built-in.o
 .text.flush_dirty_fat_buffer
                0x000000004024fd68       0xac fs/built-in.o
 .text.get_fatent
                0x000000004024fe14      0x190 fs/built-in.o
 .text.next_dent
                0x000000004024ffa4      0x160 fs/built-in.o
 .text.set_fatent_value
                0x0000000040250104      0x230 fs/built-in.o
 .text.determine_fatent
                0x0000000040250334       0x58 fs/built-in.o
 .text.clear_fatent
                0x000000004025038c       0x9c fs/built-in.o
 .text.set_name
                0x0000000040250428      0x170 fs/built-in.o
 .text.set_sectors.isra.0
                0x0000000040250598      0x16c fs/built-in.o
 .text.normalize_longname
                0x0000000040250704       0xa0 fs/built-in.o
 .text.fat_itr_next
                0x00000000402507a4      0x28c fs/built-in.o
 .text.fat_itr_resolve
                0x0000000040250a30      0x188 fs/built-in.o
 .text.flush_dir
                0x0000000040250bb8       0x60 fs/built-in.o
 .text.set_contents
                0x0000000040250c18      0x830 fs/built-in.o
 .text.new_dir_table
                0x0000000040251448       0xe0 fs/built-in.o
 .text.fill_dir_slot
                0x0000000040251528      0x28c fs/built-in.o
 .text.find_directory_entry
                0x00000000402517b4       0xb0 fs/built-in.o
 .text.fat_set_blk_dev
                0x0000000040251864       0xcc fs/built-in.o
                0x0000000040251864                fat_set_blk_dev
 .text.file_fat_detectfs
                0x0000000040251930      0x140 fs/built-in.o
                0x0000000040251930                file_fat_detectfs
 .text.fat_exists
                0x0000000040251a70       0x80 fs/built-in.o
                0x0000000040251a70                fat_exists
 .text.fat_size
                0x0000000040251af0       0xcc fs/built-in.o
                0x0000000040251af0                fat_size
 .text.file_fat_read_at
                0x0000000040251bbc      0x360 fs/built-in.o
                0x0000000040251bbc                file_fat_read_at
 .text.fat_read_file
                0x0000000040251f1c       0x48 fs/built-in.o
                0x0000000040251f1c                fat_read_file
 .text.fat_opendir
                0x0000000040251f64       0xac fs/built-in.o
                0x0000000040251f64                fat_opendir
 .text.fat_readdir
                0x0000000040252010       0x8c fs/built-in.o
                0x0000000040252010                fat_readdir
 .text.fat_closedir
                0x000000004025209c       0x28 fs/built-in.o
                0x000000004025209c                fat_closedir
 .text.fat_close
                0x00000000402520c4        0x4 fs/built-in.o
                0x00000000402520c4                fat_close
 .text.file_fat_write_at
                0x00000000402520c8      0x28c fs/built-in.o
                0x00000000402520c8                file_fat_write_at
 .text.file_fat_write
                0x0000000040252354       0x10 fs/built-in.o
                0x0000000040252354                file_fat_write
 .text.fat_unlink
                0x0000000040252364      0x29c fs/built-in.o
                0x0000000040252364                fat_unlink
 .text.fat_mkdir
                0x0000000040252600      0x3a0 fs/built-in.o
                0x0000000040252600                fat_mkdir
 .text.fs_devread
                0x00000000402529a0      0x24c fs/built-in.o
                0x00000000402529a0                fs_devread
 .text.efi_uc_destroy
                0x0000000040252bec       0x20 lib/built-in.o
 .text.efi_uc_init
                0x0000000040252c0c       0x20 lib/built-in.o
 .text.check_node_type
                0x0000000040252c2c       0x80 lib/built-in.o
 .text.efi_uc_start
                0x0000000040252cac       0xe0 lib/built-in.o
 .text.efi_uc_supported
                0x0000000040252d8c       0xd0 lib/built-in.o
 .text.disconnect_child
                0x0000000040252e5c       0x84 lib/built-in.o
 .text.efi_uc_stop
                0x0000000040252ee0      0x154 lib/built-in.o
 .text.efi_driver_init
                0x0000000040253034      0x128 lib/built-in.o
                0x0000000040253034                efi_driver_init
 .text.efi_bl_write
                0x000000004025315c       0x6c lib/built-in.o
 .text.efi_bl_read
                0x00000000402531c8       0x6c lib/built-in.o
 .text.efi_bl_bind
                0x0000000040253234      0x128 lib/built-in.o
 .text.get_var.constprop.0
                0x000000004025335c       0xd4 lib/built-in.o
 .text.efi_deserialize_load_option
                0x0000000040253430       0x74 lib/built-in.o
                0x0000000040253430                efi_deserialize_load_option
 .text.try_load_entry
                0x00000000402534a4      0x188 lib/built-in.o
 .text.efi_bootmgr_load
                0x000000004025362c      0x178 lib/built-in.o
                0x000000004025362c                efi_bootmgr_load
 .text.efi_is_event
                0x00000000402537a4       0x3c lib/built-in.o
 .text.__efi_entry_check
                0x00000000402537e0       0x2c lib/built-in.o
                0x00000000402537e0                __efi_entry_check
 .text.__efi_exit_check
                0x000000004025380c       0x20 lib/built-in.o
                0x000000004025380c                __efi_exit_check
 .text.efi_process_event_queue
                0x000000004025382c       0x90 lib/built-in.o
 .text.efi_queue_event
                0x00000000402538bc       0x84 lib/built-in.o
 .text.efi_set_mem
                0x0000000040253940       0x30 lib/built-in.o
 .text.efi_copy_mem
                0x0000000040253970       0x30 lib/built-in.o
 .text.efi_calculate_crc32
                0x00000000402539a0       0x64 lib/built-in.o
 .text.efi_set_watchdog_timer
                0x0000000040253a04       0x2c lib/built-in.o
 .text.efi_get_next_monotonic_count
                0x0000000040253a30       0x48 lib/built-in.o
 .text.efi_register_protocol_notify
                0x0000000040253a78       0xb0 lib/built-in.o
 .text.efi_close_event
                0x0000000040253b28      0x10c lib/built-in.o
 .text.efi_free_pool_ext
                0x0000000040253c34       0x2c lib/built-in.o
 .text.efi_allocate_pool_ext
                0x0000000040253c60       0x3c lib/built-in.o
 .text.efi_get_memory_map_ext
                0x0000000040253c9c       0x3c lib/built-in.o
 .text.efi_free_pages_ext
                0x0000000040253cd8       0x34 lib/built-in.o
 .text.efi_allocate_pages_ext
                0x0000000040253d0c       0x3c lib/built-in.o
 .text.efi_raise_tpl
                0x0000000040253d48       0x38 lib/built-in.o
 .text.efi_save_gd
                0x0000000040253d80        0xc lib/built-in.o
                0x0000000040253d80                efi_save_gd
 .text.efi_restore_gd
                0x0000000040253d8c       0x14 lib/built-in.o
                0x0000000040253d8c                efi_restore_gd
 .text.is_valid_tpl
                0x0000000040253da0       0x38 lib/built-in.o
                0x0000000040253da0                is_valid_tpl
 .text.efi_signal_event
                0x0000000040253dd8       0xc8 lib/built-in.o
                0x0000000040253dd8                efi_signal_event
 .text.efi_exit_boot_services
                0x0000000040253ea0      0x150 lib/built-in.o
 .text.efi_signal_event_ext
                0x0000000040253ff0       0x50 lib/built-in.o
 .text.efi_add_handle
                0x0000000040254040       0x2c lib/built-in.o
                0x0000000040254040                efi_add_handle
 .text.efi_create_handle
                0x000000004025406c       0x48 lib/built-in.o
                0x000000004025406c                efi_create_handle
 .text.efi_create_event
                0x00000000402540b4      0x134 lib/built-in.o
                0x00000000402540b4                efi_create_event
 .text.efi_create_event_ex
                0x00000000402541e8       0x60 lib/built-in.o
                0x00000000402541e8                efi_create_event_ex
 .text.efi_create_event_ext
                0x0000000040254248       0x44 lib/built-in.o
 .text.efi_timer_check
                0x000000004025428c       0x9c lib/built-in.o
                0x000000004025428c                efi_timer_check
 .text.efi_stall
                0x0000000040254328       0x50 lib/built-in.o
 .text.efi_check_event
                0x0000000040254378       0x7c lib/built-in.o
 .text.efi_wait_for_event
                0x00000000402543f4       0xf4 lib/built-in.o
 .text.efi_restore_tpl
                0x00000000402544e8       0x30 lib/built-in.o
 .text.efi_set_timer
                0x0000000040254518       0x84 lib/built-in.o
                0x0000000040254518                efi_set_timer
 .text.efi_set_timer_ext
                0x000000004025459c       0x3c lib/built-in.o
 .text.efi_search_obj
                0x00000000402545d8       0x34 lib/built-in.o
                0x00000000402545d8                efi_search_obj
 .text.efi_search_protocol
                0x000000004025460c       0x94 lib/built-in.o
                0x000000004025460c                efi_search_protocol
 .text.efi_remove_protocol
                0x00000000402546a0       0x64 lib/built-in.o
                0x00000000402546a0                efi_remove_protocol
 .text.efi_locate_protocol
                0x0000000040254704      0x118 lib/built-in.o
 .text.efi_open_protocol_information
                0x000000004025481c      0x10c lib/built-in.o
 .text.efi_locate_handle
                0x0000000040254928      0x17c lib/built-in.o
 .text.efi_locate_handle_buffer
                0x0000000040254aa4       0xdc lib/built-in.o
                0x0000000040254aa4                efi_locate_handle_buffer
 .text.efi_locate_device_path
                0x0000000040254b80      0x140 lib/built-in.o
 .text.efi_locate_handle_ext
                0x0000000040254cc0       0x3c lib/built-in.o
 .text.efi_remove_all_protocols
                0x0000000040254cfc       0x70 lib/built-in.o
                0x0000000040254cfc                efi_remove_all_protocols
 .text.efi_delete_handle
                0x0000000040254d6c       0x3c lib/built-in.o
                0x0000000040254d6c                efi_delete_handle
 .text.efi_close_protocol
                0x0000000040254da8       0xdc lib/built-in.o
                0x0000000040254da8                efi_close_protocol
 .text.efi_delete_image
                0x0000000040254e84       0xcc lib/built-in.o
 .text.efi_open_protocol
                0x0000000040254f50      0x288 lib/built-in.o
 .text.efi_disconnect_controller
                0x00000000402551d8      0x250 lib/built-in.o
 .text.efi_disconnect_all_drivers
                0x0000000040255428      0x194 lib/built-in.o
 .text.efi_start_image
                0x00000000402555bc      0x124 lib/built-in.o
                0x00000000402555bc                efi_start_image
 .text.efi_handle_protocol
                0x00000000402556e0       0x14 lib/built-in.o
                0x00000000402556e0                efi_handle_protocol
 .text.efi_bind_controller
                0x00000000402556f4       0xcc lib/built-in.o
 .text.efi_exit
                0x00000000402557c0      0x144 lib/built-in.o
 .text.efi_uninstall_protocol
                0x0000000040255904       0xd8 lib/built-in.o
 .text.efi_uninstall_protocol_interface
                0x00000000402559dc       0x70 lib/built-in.o
 .text.efi_unload_image
                0x0000000040255a4c       0xcc lib/built-in.o
                0x0000000040255a4c                efi_unload_image
 .text.efi_protocols_per_handle
                0x0000000040255b18       0xdc lib/built-in.o
 .text.efi_connect_controller
                0x0000000040255bf4      0x1c8 lib/built-in.o
 .text.efi_add_protocol
                0x0000000040255dbc      0x140 lib/built-in.o
                0x0000000040255dbc                efi_add_protocol
 .text.efi_install_protocol_interface
                0x0000000040255efc       0x88 lib/built-in.o
 .text.efi_install_multiple_protocol_interfaces
                0x0000000040255f84      0x228 lib/built-in.o
                0x0000000040255f84                efi_install_multiple_protocol_interfaces
 .text.efi_uninstall_multiple_protocol_interfaces
                0x00000000402561ac      0x1d0 lib/built-in.o
 .text.efi_reinstall_protocol_interface
                0x000000004025637c       0x88 lib/built-in.o
 .text.efi_install_configuration_table
                0x0000000040256404      0x1c8 lib/built-in.o
                0x0000000040256404                efi_install_configuration_table
 .text.efi_install_configuration_table_ext
                0x00000000402565cc       0x34 lib/built-in.o
 .text.efi_setup_loaded_image
                0x0000000040256600      0x138 lib/built-in.o
                0x0000000040256600                efi_setup_loaded_image
 .text.efi_load_image
                0x0000000040256738      0x278 lib/built-in.o
                0x0000000040256738                efi_load_image
 .text.efi_initialize_system_table
                0x00000000402569b0       0x88 lib/built-in.o
                0x00000000402569b0                efi_initialize_system_table
 .text.efi_cout_enable_cursor
                0x0000000040256a38       0x4c lib/built-in.o
 .text.efi_cout_set_cursor_position
                0x0000000040256a84       0xb0 lib/built-in.o
 .text.efi_cout_clear_screen
                0x0000000040256b34       0x34 lib/built-in.o
 .text.efi_cout_set_attribute
                0x0000000040256b68       0x70 lib/built-in.o
 .text.efi_cout_test_string
                0x0000000040256bd8       0x1c lib/built-in.o
 .text.efi_cout_reset
                0x0000000040256bf4       0x50 lib/built-in.o
 .text.efi_cin_set_state
                0x0000000040256c44       0x1c lib/built-in.o
 .text.efi_cout_output_string
                0x0000000040256c60      0x178 lib/built-in.o
 .text.efi_cin_unregister_key_notify
                0x0000000040256dd8       0x84 lib/built-in.o
 .text.efi_cin_empty_buffer
                0x0000000040256e5c       0x28 lib/built-in.o
 .text.efi_cin_reset
                0x0000000040256e84       0x40 lib/built-in.o
 .text.efi_cin_reset_ex
                0x0000000040256ec4       0x40 lib/built-in.o
 .text.efi_cin_register_key_notify
                0x0000000040256f04       0xb4 lib/built-in.o
 .text.term_get_char
                0x0000000040256fb8       0x50 lib/built-in.o
 .text.efi_cout_set_mode
                0x0000000040257008       0x78 lib/built-in.o
 .text.efi_cout_query_mode
                0x0000000040257080       0x94 lib/built-in.o
 .text.set_shift_mask
                0x0000000040257114       0x58 lib/built-in.o
                0x0000000040257114                set_shift_mask
 .text.analyze_modifiers.constprop.0
                0x000000004025716c       0xa8 lib/built-in.o
 .text.efi_cin_check
                0x0000000040257214      0x2e4 lib/built-in.o
 .text.efi_cin_read_key_stroke
                0x00000000402574f8       0x8c lib/built-in.o
 .text.efi_console_timer_notify
                0x0000000040257584       0x18 lib/built-in.o
 .text.efi_cin_read_key_stroke_ex
                0x000000004025759c       0xec lib/built-in.o
 .text.efi_key_notify
                0x0000000040257688       0x18 lib/built-in.o
 .text.efi_console_register
                0x00000000402576a0      0x300 lib/built-in.o
                0x00000000402576a0                efi_console_register
 .text.dp_size  0x00000000402579a0       0x9c lib/built-in.o
 .text.dp_alloc
                0x0000000040257a3c       0x4c lib/built-in.o
 .text.dp_part_size
                0x0000000040257a88       0x60 lib/built-in.o
 .text.dp_part_node
                0x0000000040257ae8      0x1f4 lib/built-in.o
 .text.dp_fill  0x0000000040257cdc      0x208 lib/built-in.o
 .text.dp_part_fill
                0x0000000040257ee4       0x74 lib/built-in.o
 .text.efi_dp_next
                0x0000000040257f58       0x38 lib/built-in.o
                0x0000000040257f58                efi_dp_next
 .text.efi_dp_match
                0x0000000040257f90       0x80 lib/built-in.o
                0x0000000040257f90                efi_dp_match
 .text.efi_dp_last_node
                0x0000000040258010       0x3c lib/built-in.o
                0x0000000040258010                efi_dp_last_node
 .text.efi_dp_instance_size
                0x000000004025804c       0x4c lib/built-in.o
                0x000000004025804c                efi_dp_instance_size
 .text.find_obj
                0x0000000040258098      0x114 lib/built-in.o
 .text.efi_dp_find_obj
                0x00000000402581ac       0x5c lib/built-in.o
                0x00000000402581ac                efi_dp_find_obj
 .text.efi_dp_size
                0x0000000040258208       0x44 lib/built-in.o
                0x0000000040258208                efi_dp_size
 .text.efi_dp_dup
                0x000000004025824c       0x58 lib/built-in.o
                0x000000004025824c                efi_dp_dup
 .text.efi_dp_append
                0x00000000402582a4       0xb4 lib/built-in.o
                0x00000000402582a4                efi_dp_append
 .text.efi_dp_append_node
                0x0000000040258358      0x100 lib/built-in.o
                0x0000000040258358                efi_dp_append_node
 .text.efi_dp_create_device_node
                0x0000000040258458       0x60 lib/built-in.o
                0x0000000040258458                efi_dp_create_device_node
 .text.efi_dp_append_instance
                0x00000000402584b8       0xc4 lib/built-in.o
                0x00000000402584b8                efi_dp_append_instance
 .text.efi_dp_get_next_instance
                0x000000004025857c       0xa0 lib/built-in.o
                0x000000004025857c                efi_dp_get_next_instance
 .text.efi_dp_is_multi_instance
                0x000000004025861c       0x38 lib/built-in.o
                0x000000004025861c                efi_dp_is_multi_instance
 .text.efi_dp_from_part
                0x0000000040258654       0x60 lib/built-in.o
                0x0000000040258654                efi_dp_from_part
 .text.efi_dp_part_node
                0x00000000402586b4       0x54 lib/built-in.o
                0x00000000402586b4                efi_dp_part_node
 .text.efi_dp_from_file
                0x0000000040258708      0x11c lib/built-in.o
                0x0000000040258708                efi_dp_from_file
 .text.efi_dp_from_eth
                0x0000000040258824       0x5c lib/built-in.o
                0x0000000040258824                efi_dp_from_eth
 .text.efi_dp_from_mem
                0x0000000040258880      0x104 lib/built-in.o
                0x0000000040258880                efi_dp_from_mem
 .text.efi_dp_split_file_path
                0x0000000040258984       0xb0 lib/built-in.o
                0x0000000040258984                efi_dp_split_file_path
 .text.efi_dp_from_name
                0x0000000040258a34      0x118 lib/built-in.o
                0x0000000040258a34                efi_dp_from_name
 .text.dp_unknown
                0x0000000040258b4c       0x34 lib/built-in.o
 .text.efi_convert_single_device_node_to_text
                0x0000000040258b80      0x5d0 lib/built-in.o
 .text.efi_str_to_u16
                0x0000000040259150       0x60 lib/built-in.o
 .text.efi_convert_device_path_to_text
                0x00000000402591b0       0x88 lib/built-in.o
 .text.efi_convert_device_node_to_text
                0x0000000040259238       0x4c lib/built-in.o
 .text.efi_dp_str
                0x0000000040259284       0x3c lib/built-in.o
                0x0000000040259284                efi_dp_str
 .text.create_device_node
                0x00000000402592c0       0x4c lib/built-in.o
 .text.is_device_path_multi_instance
                0x000000004025930c       0x34 lib/built-in.o
 .text.get_next_device_path_instance
                0x0000000040259340       0x3c lib/built-in.o
 .text.append_device_path_instance
                0x000000004025937c       0x3c lib/built-in.o
 .text.append_device_node
                0x00000000402593b8       0x3c lib/built-in.o
 .text.append_device_path
                0x00000000402593f4       0x3c lib/built-in.o
 .text.duplicate_device_path
                0x0000000040259430       0x34 lib/built-in.o
 .text.get_device_path_size
                0x0000000040259464       0x40 lib/built-in.o
 .text.efi_file_open_ex
                0x00000000402594a4        0x8 lib/built-in.o
 .text.efi_file_read_ex
                0x00000000402594ac        0x8 lib/built-in.o
 .text.efi_file_flush
                0x00000000402594b4       0x1c lib/built-in.o
 .text.efi_file_getpos
                0x00000000402594d0       0x48 lib/built-in.o
 .text.set_blk_dev.isra.0
                0x0000000040259518        0xc lib/built-in.o
 .text.file_open
                0x0000000040259524      0x2d0 lib/built-in.o
 .text.efi_open_volume
                0x00000000402597f4       0x48 lib/built-in.o
 .text.efi_file_open
                0x000000004025983c       0xb4 lib/built-in.o
 .text.efi_file_write
                0x00000000402598f0       0xc4 lib/built-in.o
 .text.efi_file_delete
                0x00000000402599b4       0x5c lib/built-in.o
 .text.efi_get_file_size
                0x0000000040259a10       0x48 lib/built-in.o
 .text.efi_file_getinfo
                0x0000000040259a58      0x200 lib/built-in.o
 .text.efi_file_setpos
                0x0000000040259c58       0x78 lib/built-in.o
 .text.efi_file_read
                0x0000000040259cd0      0x1c0 lib/built-in.o
 .text.efi_file_write_ex
                0x0000000040259e90        0x8 lib/built-in.o
 .text.efi_file_flush_ex
                0x0000000040259e98        0x8 lib/built-in.o
 .text.efi_file_close
                0x0000000040259ea0       0x38 lib/built-in.o
 .text.efi_file_setinfo
                0x0000000040259ed8      0x148 lib/built-in.o
 .text.efi_file_from_path
                0x000000004025a020      0x12c lib/built-in.o
                0x000000004025a020                efi_file_from_path
 .text.efi_simple_file_system
                0x000000004025a14c       0x54 lib/built-in.o
                0x000000004025a14c                efi_simple_file_system
 .text.efi_hii_packagelist_exists
                0x000000004025a1a0       0x34 lib/built-in.o
 .text.efi_hii_package_len
                0x000000004025a1d4       0x18 lib/built-in.o
 .text.get_package_list_handle
                0x000000004025a1ec       0x78 lib/built-in.o
 .text.unregister_package_notify
                0x000000004025a264       0x20 lib/built-in.o
 .text.register_package_notify
                0x000000004025a284       0x64 lib/built-in.o
 .text.export_package_lists
                0x000000004025a2e8       0x48 lib/built-in.o
 .text.list_package_lists
                0x000000004025a330      0x110 lib/built-in.o
 .text.find_keyboard_layouts
                0x000000004025a440       0xdc lib/built-in.o
 .text.get_keyboard_layout
                0x000000004025a51c       0xe4 lib/built-in.o
 .text.remove_guid_package
                0x000000004025a600       0x40 lib/built-in.o
 .text.free_keyboard_layouts
                0x000000004025a640       0x50 lib/built-in.o
 .text.remove_keyboard_package
                0x000000004025a690       0x4c lib/built-in.o
 .text.add_packages
                0x000000004025a6dc      0x3a0 lib/built-in.o
 .text.language_match
                0x000000004025aa7c       0x60 lib/built-in.o
 .text.get_secondary_languages
                0x000000004025aadc       0xa0 lib/built-in.o
 .text.get_string
                0x000000004025ab7c       0xf0 lib/built-in.o
 .text.get_languages
                0x000000004025ac6c      0x108 lib/built-in.o
 .text.set_string
                0x000000004025ad74      0x140 lib/built-in.o
 .text.new_string
                0x000000004025aeb4      0x130 lib/built-in.o
 .text.remove_strings_package
                0x000000004025afe4       0x7c lib/built-in.o
 .text.free_packagelist
                0x000000004025b060       0x44 lib/built-in.o
 .text.remove_package_list
                0x000000004025b0a4       0x50 lib/built-in.o
 .text.new_package_list
                0x000000004025b0f4       0xd4 lib/built-in.o
 .text.set_keyboard_layout
                0x000000004025b1c8       0x20 lib/built-in.o
 .text.update_package_list
                0x000000004025b1e8      0x118 lib/built-in.o
 .text.get_alt_config
                0x000000004025b300       0x20 lib/built-in.o
 .text.config_to_block
                0x000000004025b320       0x20 lib/built-in.o
 .text.block_to_config
                0x000000004025b340       0x20 lib/built-in.o
 .text.route_config
                0x000000004025b360       0x20 lib/built-in.o
 .text.export_config
                0x000000004025b380       0x20 lib/built-in.o
 .text.extract_config
                0x000000004025b3a0       0x20 lib/built-in.o
 .text.efi_set_code_and_data_type
                0x000000004025b3c0       0x7c lib/built-in.o
 .text.efi_print_image_infos
                0x000000004025b43c      0x100 lib/built-in.o
                0x000000004025b43c                efi_print_image_infos
 .text.efi_load_pe
                0x000000004025b53c      0x348 lib/built-in.o
                0x000000004025b53c                efi_load_pe
 .text.efi_mem_cmp
                0x000000004025b884       0x1c lib/built-in.o
 .text.efi_check_allocated
                0x000000004025b8a0       0x64 lib/built-in.o
 .text.efi_find_free_memory
                0x000000004025b904       0x68 lib/built-in.o
 .text.efi_add_memory_map
                0x000000004025b96c      0x2e8 lib/built-in.o
                0x000000004025b96c                efi_add_memory_map
 .text.efi_allocate_pages
                0x000000004025bc54       0xc8 lib/built-in.o
                0x000000004025bc54                efi_allocate_pages
 .text.efi_alloc
                0x000000004025bd1c       0x34 lib/built-in.o
                0x000000004025bd1c                efi_alloc
 .text.efi_free_pages
                0x000000004025bd50       0x80 lib/built-in.o
                0x000000004025bd50                efi_free_pages
 .text.efi_allocate_pool
                0x000000004025bdd0       0x94 lib/built-in.o
                0x000000004025bdd0                efi_allocate_pool
 .text.efi_free_pool
                0x000000004025be64       0x94 lib/built-in.o
                0x000000004025be64                efi_free_pool
 .text.efi_get_memory_map
                0x000000004025bef8       0xe8 lib/built-in.o
                0x000000004025bef8                efi_get_memory_map
 .text.efi_add_conventional_memory_map
                0x000000004025bfe0       0xa0 lib/built-in.o
                0x000000004025bfe0                efi_add_conventional_memory_map
 .text.efi_add_known_memory
                0x000000004025c080       0x68 lib/built-in.o
                0x000000004025c080                efi_add_known_memory
 .text.efi_memory_init
                0x000000004025c0e8       0x78 lib/built-in.o
                0x000000004025c0e8                efi_memory_init
 .text.efi_root_node_register
                0x000000004025c160      0x13c lib/built-in.o
                0x000000004025c160                efi_root_node_register
 .text.efi_reset_system_boottime
                0x000000004025c29c       0x84 lib/built-in.o
 .text.efi_set_time_boottime
                0x000000004025c320       0x1c lib/built-in.o
 .text.efi_get_time_boottime
                0x000000004025c33c       0x1c lib/built-in.o
 .text.efi_init_runtime_supported
                0x000000004025c358       0x68 lib/built-in.o
                0x000000004025c358                efi_init_runtime_supported
 .text.efi_set_virtual_address_map
                0x000000004025c3c0      0x204 lib/built-in.o
 .text.allow_unaligned
                0x000000004025c5c4        0x4 lib/built-in.o
                0x000000004025c5c4                allow_unaligned
 .text.efi_init_obj_list
                0x000000004025c5c8      0x1cc lib/built-in.o
                0x000000004025c5c8                efi_init_obj_list
 .text.efi_str_to_fat
                0x000000004025c794       0xd8 lib/built-in.o
 .text.efi_fat_to_str
                0x000000004025c86c       0x6c lib/built-in.o
 .text.efi_str_upr
                0x000000004025c8d8       0x34 lib/built-in.o
 .text.efi_stri_coll
                0x000000004025c90c       0x7c lib/built-in.o
 .text.efi_str_lwr
                0x000000004025c988       0x34 lib/built-in.o
 .text.next_lower
                0x000000004025c9bc       0x14 lib/built-in.o
 .text.metai_match
                0x000000004025c9d0      0x138 lib/built-in.o
 .text.efi_metai_match
                0x000000004025cb08       0x3c lib/built-in.o
 .text.efi_to_native
                0x000000004025cb44       0x9c lib/built-in.o
 .text.prefix   0x000000004025cbe0       0x50 lib/built-in.o
 .text.parse_attr.part.0
                0x000000004025cc30       0xdc lib/built-in.o
 .text.efi_get_variable
                0x000000004025cd0c      0x23c lib/built-in.o
                0x000000004025cd0c                efi_get_variable
 .text.efi_get_next_variable_name
                0x000000004025cf48      0x26c lib/built-in.o
                0x000000004025cf48                efi_get_next_variable_name
 .text.efi_set_variable
                0x000000004025d1b4      0x2f4 lib/built-in.o
                0x000000004025d1b4                efi_set_variable
 .text.efi_variables_boot_exit_notify
                0x000000004025d4a8       0x30 lib/built-in.o
                0x000000004025d4a8                efi_variables_boot_exit_notify
 .text.efi_init_variables
                0x000000004025d4d8        0x8 lib/built-in.o
                0x000000004025d4d8                efi_init_variables
 .text.efi_watchdog_timer_notify
                0x000000004025d4e0       0x44 lib/built-in.o
 .text.efi_set_watchdog
                0x000000004025d524       0x30 lib/built-in.o
                0x000000004025d524                efi_set_watchdog
 .text.efi_watchdog_register
                0x000000004025d554       0x80 lib/built-in.o
                0x000000004025d554                efi_watchdog_register
 .text.efi_disk_flush_blocks
                0x000000004025d5d4       0x1c lib/built-in.o
 .text.efi_disk_reset
                0x000000004025d5f0       0x1c lib/built-in.o
 .text.efi_disk_add_dev.isra.0.part.0
                0x000000004025d60c      0x1f4 lib/built-in.o
 .text.efi_disk_read_blocks
                0x000000004025d800       0xf0 lib/built-in.o
 .text.efi_disk_write_blocks
                0x000000004025d8f0      0x100 lib/built-in.o
 .text.efi_fs_from_path
                0x000000004025d9f0       0x74 lib/built-in.o
                0x000000004025d9f0                efi_fs_from_path
 .text.efi_disk_create_partitions
                0x000000004025da64       0xfc lib/built-in.o
                0x000000004025da64                efi_disk_create_partitions
 .text.efi_disk_register
                0x000000004025db60      0x12c lib/built-in.o
                0x000000004025db60                efi_disk_register
 .text.efi_net_push
                0x000000004025dc8c       0x10 lib/built-in.o
 .text.efi_pxe_base_code_start
                0x000000004025dc9c        0x8 lib/built-in.o
 .text.efi_pxe_base_code_stop
                0x000000004025dca4        0x8 lib/built-in.o
 .text.efi_pxe_base_code_discover
                0x000000004025dcac        0x8 lib/built-in.o
 .text.efi_pxe_base_code_mtftp
                0x000000004025dcb4       0x10 lib/built-in.o
 .text.efi_pxe_base_code_udp_write
                0x000000004025dcc4        0x8 lib/built-in.o
 .text.efi_pxe_base_code_udp_read
                0x000000004025dccc        0x8 lib/built-in.o
 .text.efi_pxe_base_code_set_ip_filter
                0x000000004025dcd4        0x8 lib/built-in.o
 .text.efi_pxe_base_code_arp
                0x000000004025dcdc        0x8 lib/built-in.o
 .text.efi_pxe_base_code_set_parameters
                0x000000004025dce4        0x8 lib/built-in.o
 .text.efi_pxe_base_code_set_packets
                0x000000004025dcec        0x8 lib/built-in.o
 .text.efi_network_timer_notify
                0x000000004025dcf4       0x9c lib/built-in.o
 .text.efi_net_nvdata
                0x000000004025dd90       0x1c lib/built-in.o
 .text.efi_net_statistics
                0x000000004025ddac       0x1c lib/built-in.o
 .text.efi_net_station_address
                0x000000004025ddc8       0x1c lib/built-in.o
 .text.efi_net_receive_filters
                0x000000004025dde4       0x1c lib/built-in.o
 .text.efi_net_start
                0x000000004025de00       0x6c lib/built-in.o
 .text.efi_net_get_status
                0x000000004025de6c       0x98 lib/built-in.o
 .text.efi_net_receive
                0x000000004025df04      0x184 lib/built-in.o
 .text.efi_net_transmit
                0x000000004025e088      0x140 lib/built-in.o
 .text.efi_net_mcastiptomac
                0x000000004025e1c8       0xd4 lib/built-in.o
 .text.efi_net_shutdown
                0x000000004025e29c       0x80 lib/built-in.o
 .text.efi_net_stop
                0x000000004025e31c       0x5c lib/built-in.o
 .text.efi_net_initialize
                0x000000004025e378       0x9c lib/built-in.o
 .text.efi_net_reset
                0x000000004025e414       0x80 lib/built-in.o
 .text.efi_pxe_base_code_set_station_ip
                0x000000004025e494        0x8 lib/built-in.o
 .text.efi_pxe_base_code_dhcp
                0x000000004025e49c        0x8 lib/built-in.o
 .text.efi_net_set_dhcp_ack
                0x000000004025e4a4       0x54 lib/built-in.o
                0x000000004025e4a4                efi_net_set_dhcp_ack
 .text.efi_net_register
                0x000000004025e4f8      0x328 lib/built-in.o
                0x000000004025e4f8                efi_net_register
 .text.efi_smbios_register
                0x000000004025e820       0x70 lib/built-in.o
                0x000000004025e820                efi_smbios_register
 .text.LzmaDec_WriteRem
                0x000000004025e890       0xa0 lib/built-in.o
 .text.LzmaDec_DecodeReal2
                0x000000004025e930      0xbdc lib/built-in.o
 .text.LzmaDec_TryDummy
                0x000000004025f50c      0x5e8 lib/built-in.o
 .text.LzmaDec_Init
                0x000000004025faf4       0x1c lib/built-in.o
                0x000000004025faf4                LzmaDec_Init
 .text.LzmaDec_DecodeToDic
                0x000000004025fb10      0x330 lib/built-in.o
                0x000000004025fb10                LzmaDec_DecodeToDic
 .text.LzmaDec_FreeProbs
                0x000000004025fe40       0x30 lib/built-in.o
                0x000000004025fe40                LzmaDec_FreeProbs
 .text.LzmaDec_AllocateProbs2
                0x000000004025fe70       0x84 lib/built-in.o
 .text.LzmaProps_Decode
                0x000000004025fef4       0x84 lib/built-in.o
                0x000000004025fef4                LzmaProps_Decode
 .text.LzmaDec_AllocateProbs
                0x000000004025ff78       0x50 lib/built-in.o
                0x000000004025ff78                LzmaDec_AllocateProbs
 .text.LzmaDecode
                0x000000004025ffc8       0xf4 lib/built-in.o
                0x000000004025ffc8                LzmaDecode
 .text.SzFree   0x00000000402600bc        0x8 lib/built-in.o
 .text.SzAlloc  0x00000000402600c4        0x8 lib/built-in.o
 .text.lzmaBuffToBuffDecompress
                0x00000000402600cc      0x100 lib/built-in.o
                0x00000000402600cc                lzmaBuffToBuffDecompress
 .text.fdt_ro_probe_
                0x00000000402601cc       0x80 lib/built-in.o
                0x00000000402601cc                fdt_ro_probe_
 .text.fdt_header_size_
                0x000000004026024c       0x34 lib/built-in.o
                0x000000004026024c                fdt_header_size_
 .text.fdt_header_size
                0x0000000040260280        0xc lib/built-in.o
                0x0000000040260280                fdt_header_size
 .text.fdt_check_header
                0x000000004026028c      0x114 lib/built-in.o
                0x000000004026028c                fdt_check_header
 .text.fdt_offset_ptr
                0x00000000402603a0       0x68 lib/built-in.o
                0x00000000402603a0                fdt_offset_ptr
 .text.fdt_next_tag
                0x0000000040260408      0x100 lib/built-in.o
                0x0000000040260408                fdt_next_tag
 .text.fdt_check_node_offset_
                0x0000000040260508       0x40 lib/built-in.o
                0x0000000040260508                fdt_check_node_offset_
 .text.fdt_check_prop_offset_
                0x0000000040260548       0x40 lib/built-in.o
                0x0000000040260548                fdt_check_prop_offset_
 .text.fdt_next_node
                0x0000000040260588       0xb0 lib/built-in.o
                0x0000000040260588                fdt_next_node
 .text.fdt_first_subnode
                0x0000000040260638       0x34 lib/built-in.o
                0x0000000040260638                fdt_first_subnode
 .text.fdt_next_subnode
                0x000000004026066c       0x50 lib/built-in.o
                0x000000004026066c                fdt_next_subnode
 .text.fdt_find_string_
                0x00000000402606bc       0x70 lib/built-in.o
                0x00000000402606bc                fdt_find_string_
 .text.fdt_move
                0x000000004026072c       0x50 lib/built-in.o
                0x000000004026072c                fdt_move
 .text.fdt_setprop_inplace_namelen_partial
                0x000000004026077c       0x68 lib/built-in.o
                0x000000004026077c                fdt_setprop_inplace_namelen_partial
 .text.fdt_setprop_inplace
                0x00000000402607e4       0x8c lib/built-in.o
                0x00000000402607e4                fdt_setprop_inplace
 .text.fdt_node_end_offset_
                0x0000000040260870       0x48 lib/built-in.o
                0x0000000040260870                fdt_node_end_offset_
 .text.fdt_strerror
                0x00000000402608b8       0x4c lib/built-in.o
                0x00000000402608b8                fdt_strerror
 .text.fdt_blocks_misordered_
                0x0000000040260904       0x60 lib/built-in.o
 .text.fdt_rw_probe_
                0x0000000040260964       0x6c lib/built-in.o
 .text.fdt_splice_
                0x00000000402609d0       0x94 lib/built-in.o
 .text.fdt_splice_mem_rsv_
                0x0000000040260a64       0x60 lib/built-in.o
 .text.fdt_splice_struct_
                0x0000000040260ac4       0x60 lib/built-in.o
 .text.fdt_packblocks_
                0x0000000040260b24       0xb0 lib/built-in.o
 .text.fdt_add_property_
                0x0000000040260bd4      0x184 lib/built-in.o
 .text.fdt_add_mem_rsv
                0x0000000040260d58       0x7c lib/built-in.o
                0x0000000040260d58                fdt_add_mem_rsv
 .text.fdt_del_mem_rsv
                0x0000000040260dd4       0x70 lib/built-in.o
                0x0000000040260dd4                fdt_del_mem_rsv
 .text.fdt_setprop_placeholder
                0x0000000040260e44       0xd8 lib/built-in.o
                0x0000000040260e44                fdt_setprop_placeholder
 .text.fdt_setprop
                0x0000000040260f1c       0x54 lib/built-in.o
                0x0000000040260f1c                fdt_setprop
 .text.fdt_delprop
                0x0000000040260f70       0x6c lib/built-in.o
                0x0000000040260f70                fdt_delprop
 .text.fdt_add_subnode_namelen
                0x0000000040260fdc      0x11c lib/built-in.o
                0x0000000040260fdc                fdt_add_subnode_namelen
 .text.fdt_add_subnode
                0x00000000402610f8       0x44 lib/built-in.o
                0x00000000402610f8                fdt_add_subnode
 .text.fdt_del_node
                0x000000004026113c       0x60 lib/built-in.o
                0x000000004026113c                fdt_del_node
 .text.fdt_open_into
                0x000000004026119c      0x188 lib/built-in.o
                0x000000004026119c                fdt_open_into
 .text.fdt_pack
                0x0000000040261324       0x6c lib/built-in.o
                0x0000000040261324                fdt_pack
 .text.fdt_cells
                0x0000000040261390       0x48 lib/built-in.o
 .text.fdt_address_cells
                0x00000000402613d8       0x34 lib/built-in.o
                0x00000000402613d8                fdt_address_cells
 .text.fdt_size_cells
                0x000000004026140c       0x28 lib/built-in.o
                0x000000004026140c                fdt_size_cells
 .text.overlay_phandle_add_offset
                0x0000000040261434       0x94 lib/built-in.o
 .text.overlay_adjust_node_phandles
                0x00000000402614c8       0xa8 lib/built-in.o
 .text.overlay_update_local_node_references
                0x0000000040261570      0x1ac lib/built-in.o
 .text.overlay_get_target
                0x000000004026171c       0xdc lib/built-in.o
 .text.overlay_apply_node
                0x00000000402617f8      0x12c lib/built-in.o
 .text.fdt_overlay_apply
                0x0000000040261924      0x6b0 lib/built-in.o
                0x0000000040261924                fdt_overlay_apply
 .text.fdt_mem_rsv
                0x0000000040261fd4       0x3c lib/built-in.o
 .text.nextprop_
                0x0000000040262010       0x64 lib/built-in.o
 .text.fdt_get_property_by_offset_
                0x0000000040262074       0x64 lib/built-in.o
 .text.fdt_get_string
                0x00000000402620d8      0x120 lib/built-in.o
                0x00000000402620d8                fdt_get_string
 .text.fdt_string
                0x00000000402621f8        0x8 lib/built-in.o
                0x00000000402621f8                fdt_string
 .text.fdt_get_mem_rsv
                0x0000000040262200       0x6c lib/built-in.o
                0x0000000040262200                fdt_get_mem_rsv
 .text.fdt_num_mem_rsv
                0x000000004026226c       0x3c lib/built-in.o
                0x000000004026226c                fdt_num_mem_rsv
 .text.fdt_get_name
                0x00000000402622a8       0xa4 lib/built-in.o
                0x00000000402622a8                fdt_get_name
 .text.fdt_subnode_offset_namelen
                0x000000004026234c       0xe8 lib/built-in.o
                0x000000004026234c                fdt_subnode_offset_namelen
 .text.fdt_subnode_offset
                0x0000000040262434       0x44 lib/built-in.o
                0x0000000040262434                fdt_subnode_offset
 .text.fdt_first_property_offset
                0x0000000040262478       0x38 lib/built-in.o
                0x0000000040262478                fdt_first_property_offset
 .text.fdt_next_property_offset
                0x00000000402624b0       0x38 lib/built-in.o
                0x00000000402624b0                fdt_next_property_offset
 .text.fdt_get_property_namelen_
                0x00000000402624e8       0xd4 lib/built-in.o
 .text.fdt_get_property_namelen
                0x00000000402625bc       0x2c lib/built-in.o
                0x00000000402625bc                fdt_get_property_namelen
 .text.fdt_get_property
                0x00000000402625e8       0x4c lib/built-in.o
                0x00000000402625e8                fdt_get_property
 .text.fdt_getprop_namelen
                0x0000000040262634       0x64 lib/built-in.o
                0x0000000040262634                fdt_getprop_namelen
 .text.fdt_getprop_by_offset
                0x0000000040262698       0xb8 lib/built-in.o
                0x0000000040262698                fdt_getprop_by_offset
 .text.fdt_getprop
                0x0000000040262750       0x4c lib/built-in.o
                0x0000000040262750                fdt_getprop
 .text.fdt_get_phandle
                0x000000004026279c       0x78 lib/built-in.o
                0x000000004026279c                fdt_get_phandle
 .text.fdt_find_max_phandle
                0x0000000040262814       0x7c lib/built-in.o
                0x0000000040262814                fdt_find_max_phandle
 .text.fdt_get_alias_namelen
                0x0000000040262890       0x64 lib/built-in.o
                0x0000000040262890                fdt_get_alias_namelen
 .text.fdt_path_offset_namelen
                0x00000000402628f4      0x100 lib/built-in.o
                0x00000000402628f4                fdt_path_offset_namelen
 .text.fdt_path_offset
                0x00000000402629f4       0x34 lib/built-in.o
                0x00000000402629f4                fdt_path_offset
 .text.fdt_get_path
                0x0000000040262a28      0x180 lib/built-in.o
                0x0000000040262a28                fdt_get_path
 .text.fdt_supernode_atdepth_offset
                0x0000000040262ba8       0xc0 lib/built-in.o
                0x0000000040262ba8                fdt_supernode_atdepth_offset
 .text.fdt_node_depth
                0x0000000040262c68       0x30 lib/built-in.o
                0x0000000040262c68                fdt_node_depth
 .text.fdt_parent_offset
                0x0000000040262c98       0x44 lib/built-in.o
                0x0000000040262c98                fdt_parent_offset
 .text.fdt_node_offset_by_phandle
                0x0000000040262cdc       0x84 lib/built-in.o
                0x0000000040262cdc                fdt_node_offset_by_phandle
 .text.fdt_stringlist_contains
                0x0000000040262d60       0x98 lib/built-in.o
                0x0000000040262d60                fdt_stringlist_contains
 .text.fdt_stringlist_count
                0x0000000040262df8       0x7c lib/built-in.o
                0x0000000040262df8                fdt_stringlist_count
 .text.fdt_stringlist_search
                0x0000000040262e74       0xc4 lib/built-in.o
                0x0000000040262e74                fdt_stringlist_search
 .text.fdt_stringlist_get
                0x0000000040262f38       0xb4 lib/built-in.o
                0x0000000040262f38                fdt_stringlist_get
 .text.fdt_node_check_compatible
                0x0000000040262fec       0x4c lib/built-in.o
                0x0000000040262fec                fdt_node_check_compatible
 .text.get_code
                0x0000000040263038       0xec lib/built-in.o
 .text.read_string
                0x0000000040263124       0x2c lib/built-in.o
 .text.read_console
                0x0000000040263150       0x1c lib/built-in.o
 .text.console_read_unicode
                0x000000004026316c       0x44 lib/built-in.o
                0x000000004026316c                console_read_unicode
 .text.utf8_get
                0x00000000402631b0       0x10 lib/built-in.o
                0x00000000402631b0                utf8_get
 .text.utf8_put
                0x00000000402631c0       0xd8 lib/built-in.o
                0x00000000402631c0                utf8_put
 .text.utf8_utf16_strnlen
                0x0000000040263298       0x74 lib/built-in.o
                0x0000000040263298                utf8_utf16_strnlen
 .text.utf16_get
                0x000000004026330c       0x84 lib/built-in.o
                0x000000004026330c                utf16_get
 .text.utf16_put
                0x0000000040263390       0x80 lib/built-in.o
                0x0000000040263390                utf16_put
 .text.utf8_utf16_strncpy
                0x0000000040263410       0x88 lib/built-in.o
                0x0000000040263410                utf8_utf16_strncpy
 .text.utf16_strnlen
                0x0000000040263498       0x48 lib/built-in.o
                0x0000000040263498                utf16_strnlen
 .text.utf16_utf8_strnlen
                0x00000000402634e0       0x80 lib/built-in.o
                0x00000000402634e0                utf16_utf8_strnlen
 .text.utf16_utf8_strncpy
                0x0000000040263560       0x78 lib/built-in.o
                0x0000000040263560                utf16_utf8_strncpy
 .text.utf_to_lower
                0x00000000402635d8       0x44 lib/built-in.o
                0x00000000402635d8                utf_to_lower
 .text.utf_to_upper
                0x000000004026361c       0x44 lib/built-in.o
                0x000000004026361c                utf_to_upper
 .text.u16_strlen
                0x0000000040263660       0x28 lib/built-in.o
                0x0000000040263660                u16_strlen
 .text.u16_strdup
                0x0000000040263688       0x5c lib/built-in.o
                0x0000000040263688                u16_strdup
 .text.utf16_to_utf8
                0x00000000402636e4      0x124 lib/built-in.o
                0x00000000402636e4                utf16_to_utf8
 .text.crc16_ccitt
                0x0000000040263808       0x38 lib/built-in.o
                0x0000000040263808                crc16_ccitt
 .text.crc16_ccitt_wd_buf
                0x0000000040263840       0x3c lib/built-in.o
                0x0000000040263840                crc16_ccitt_wd_buf
 .text.fdtdec_get_int
                0x000000004026387c       0x40 lib/built-in.o
                0x000000004026387c                fdtdec_get_int
 .text.smbios_write_type127
                0x00000000402638bc       0x68 lib/built-in.o
 .text.smbios_write_type32
                0x0000000040263924       0x68 lib/built-in.o
 .text.smbios_string_table_len
                0x000000004026398c       0x44 lib/built-in.o
 .text.smbios_add_string
                0x00000000402639d0       0x7c lib/built-in.o
 .text.smbios_write_type3
                0x0000000040263a4c       0xa0 lib/built-in.o
 .text.smbios_write_type2
                0x0000000040263aec       0xb0 lib/built-in.o
 .text.smbios_write_type0
                0x0000000040263b9c      0x104 lib/built-in.o
 .text.smbios_write_type1
                0x0000000040263ca0       0xd4 lib/built-in.o
 .text.smbios_write_type4
                0x0000000040263d74       0xe8 lib/built-in.o
 .text.write_smbios_table
                0x0000000040263e5c      0x14c lib/built-in.o
                0x0000000040263e5c                write_smbios_table
 .text.default_log
                0x0000000040263fa8        0x4 lib/built-in.o
 .text.write_sparse_image
                0x0000000040263fac      0x46c lib/built-in.o
                0x0000000040263fac                write_sparse_image
 .text.MD5Transform
                0x0000000040264418      0xa00 lib/built-in.o
 .text.MD5Update
                0x0000000040264e18      0x104 lib/built-in.o
 .text.MD5Final
                0x0000000040264f1c       0xbc lib/built-in.o
 .text.md5_wd   0x0000000040264fd8       0x64 lib/built-in.o
                0x0000000040264fd8                md5_wd
 .text.string_to_ip
                0x000000004026503c       0xa0 lib/built-in.o
                0x000000004026503c                string_to_ip
 .text.string_to_enetaddr
                0x00000000402650dc       0x78 lib/built-in.o
                0x00000000402650dc                string_to_enetaddr
 .text.compute_ip_checksum
                0x0000000040265154       0x88 lib/built-in.o
                0x0000000040265154                compute_ip_checksum
 .text.ip_checksum_ok
                0x00000000402651dc       0x1c lib/built-in.o
                0x00000000402651dc                ip_checksum_ok
 .text.merge    0x00000000402651f8       0x8c lib/built-in.o
 .text.list_sort
                0x0000000040265284      0x1a0 lib/built-in.o
                0x0000000040265284                list_sort
 .text.sha1_process
                0x0000000040265424     0x15c4 lib/built-in.o
 .text.sha1_update.part.0
                0x00000000402669e8      0x108 lib/built-in.o
 .text.sha1_starts
                0x0000000040266af0       0x44 lib/built-in.o
                0x0000000040266af0                sha1_starts
 .text.sha1_update
                0x0000000040266b34        0xc lib/built-in.o
                0x0000000040266b34                sha1_update
 .text.sha1_finish
                0x0000000040266b40      0x154 lib/built-in.o
                0x0000000040266b40                sha1_finish
 .text.sha1_csum_wd
                0x0000000040266c94       0x48 lib/built-in.o
                0x0000000040266c94                sha1_csum_wd
 .text.sha256_process
                0x0000000040266cdc     0x1fa8 lib/built-in.o
 .text.sha256_update.part.0
                0x0000000040268c84       0xfc lib/built-in.o
 .text.sha256_starts
                0x0000000040268d80       0x68 lib/built-in.o
                0x0000000040268d80                sha256_starts
 .text.sha256_update
                0x0000000040268de8        0xc lib/built-in.o
                0x0000000040268de8                sha256_update
 .text.sha256_finish
                0x0000000040268df4      0x194 lib/built-in.o
                0x0000000040268df4                sha256_finish
 .text.sha256_csum_wd
                0x0000000040268f88       0x48 lib/built-in.o
                0x0000000040268f88                sha256_csum_wd
 .text.zcalloc  0x0000000040268fd0        0x8 lib/built-in.o
                0x0000000040268fd0                zcalloc
 .text.zcfree   0x0000000040268fd8        0x8 lib/built-in.o
                0x0000000040268fd8                zcfree
 .text.inflate_fast
                0x0000000040268fe0      0x530 lib/built-in.o
                0x0000000040268fe0                inflate_fast
 .text.inflate_table
                0x0000000040269510      0x43c lib/built-in.o
                0x0000000040269510                inflate_table
 .text.inflateReset
                0x000000004026994c       0x60 lib/built-in.o
                0x000000004026994c                inflateReset
 .text.inflateInit2_
                0x00000000402699ac      0x104 lib/built-in.o
                0x00000000402699ac                inflateInit2_
 .text.inflateEnd
                0x0000000040269ab0       0x6c lib/built-in.o
                0x0000000040269ab0                inflateEnd
 .text.adler32  0x0000000040269b1c      0x314 lib/built-in.o
                0x0000000040269b1c                adler32
 .text.inflate  0x0000000040269e30     0x133c lib/built-in.o
                0x0000000040269e30                inflate
 .text.gzalloc  0x000000004026b16c       0x10 lib/built-in.o
                0x000000004026b16c                gzalloc
 .text.gzfree   0x000000004026b17c        0x8 lib/built-in.o
                0x000000004026b17c                gzfree
 .text.gzip_parse_header
                0x000000004026b184       0xac lib/built-in.o
                0x000000004026b184                gzip_parse_header
 .text.gzwrite_progress_init
                0x000000004026b230        0x8 lib/built-in.o
                0x000000004026b230                gzwrite_progress_init
 .text.gzwrite_progress
                0x000000004026b238       0x18 lib/built-in.o
                0x000000004026b238                gzwrite_progress
 .text.gzwrite_progress_finish
                0x000000004026b250       0x28 lib/built-in.o
                0x000000004026b250                gzwrite_progress_finish
 .text.gzwrite  0x000000004026b278      0x3a8 lib/built-in.o
                0x000000004026b278                gzwrite
 .text.zunzip   0x000000004026b620      0x11c lib/built-in.o
                0x000000004026b620                zunzip
 .text.gunzip   0x000000004026b73c       0x68 lib/built-in.o
                0x000000004026b73c                gunzip
 .text.get_prop_check_min_len
                0x000000004026b7a4       0x48 lib/built-in.o
 .text.fdtdec_get_is_enabled
                0x000000004026b7ec       0x40 lib/built-in.o
                0x000000004026b7ec                fdtdec_get_is_enabled
 .text.fdtdec_get_alias_seq
                0x000000004026b82c      0x128 lib/built-in.o
                0x000000004026b82c                fdtdec_get_alias_seq
 .text.fdtdec_get_alias_highest_id
                0x000000004026b954       0xd4 lib/built-in.o
                0x000000004026b954                fdtdec_get_alias_highest_id
 .text.fdtdec_prepare_fdt
                0x000000004026ba28       0x44 lib/built-in.o
                0x000000004026ba28                fdtdec_prepare_fdt
 .text.fdtdec_lookup_phandle
                0x000000004026ba6c       0x44 lib/built-in.o
                0x000000004026ba6c                fdtdec_lookup_phandle
 .text.fdtdec_get_int_array
                0x000000004026bab0       0x60 lib/built-in.o
                0x000000004026bab0                fdtdec_get_int_array
 .text.fdtdec_get_int_array_count
                0x000000004026bb10       0x68 lib/built-in.o
                0x000000004026bb10                fdtdec_get_int_array_count
 .text.fdtdec_get_bool
                0x000000004026bb78       0x20 lib/built-in.o
                0x000000004026bb78                fdtdec_get_bool
 .text.fdtdec_parse_phandle_with_args
                0x000000004026bb98      0x150 lib/built-in.o
                0x000000004026bb98                fdtdec_parse_phandle_with_args
 .text.fdtdec_locate_byte_array
                0x000000004026bce8       0x24 lib/built-in.o
                0x000000004026bce8                fdtdec_locate_byte_array
 .text.fdtdec_get_config_int
                0x000000004026bd0c       0x60 lib/built-in.o
                0x000000004026bd0c                fdtdec_get_config_int
 .text.fdtdec_get_config_string
                0x000000004026bd6c       0x4c lib/built-in.o
                0x000000004026bd6c                fdtdec_get_config_string
 .text.fdtdec_get_number
                0x000000004026bdb8       0x30 lib/built-in.o
                0x000000004026bdb8                fdtdec_get_number
 .text.fdtdec_get_addr_size_fixed
                0x000000004026bde8       0xc4 lib/built-in.o
                0x000000004026bde8                fdtdec_get_addr_size_fixed
 .text.fdtdec_get_addr_size_auto_parent
                0x000000004026beac       0xa8 lib/built-in.o
                0x000000004026beac                fdtdec_get_addr_size_auto_parent
 .text.fdtdec_get_addr_size_auto_noparent
                0x000000004026bf54       0x7c lib/built-in.o
                0x000000004026bf54                fdtdec_get_addr_size_auto_noparent
 .text.fdtdec_get_addr_size
                0x000000004026bfd0       0x20 lib/built-in.o
                0x000000004026bfd0                fdtdec_get_addr_size
 .text.fdtdec_get_addr
                0x000000004026bff0        0x8 lib/built-in.o
                0x000000004026bff0                fdtdec_get_addr
 .text.fdt_get_resource
                0x000000004026bff8      0x118 lib/built-in.o
                0x000000004026bff8                fdt_get_resource
 .text.board_fdt_blob_setup
                0x000000004026c110        0xc lib/built-in.o
                0x000000004026c110                board_fdt_blob_setup
 .text.fdtdec_setup
                0x000000004026c11c       0x3c lib/built-in.o
                0x000000004026c11c                fdtdec_setup
 .text.qsort    0x000000004026c158       0xf8 lib/built-in.o
                0x000000004026c158                qsort
 .text.strcmp_compar
                0x000000004026c250        0xc lib/built-in.o
                0x000000004026c250                strcmp_compar
 .text.cmpkey   0x000000004026c25c       0x14 lib/built-in.o
 .text._hdelete.isra.0
                0x000000004026c270       0x64 lib/built-in.o
 .text.drop_var_from_set.part.0
                0x000000004026c2d4       0x6c lib/built-in.o
 .text.match_string
                0x000000004026c340       0xa0 lib/built-in.o
 .text.match_entry
                0x000000004026c3e0       0xd4 lib/built-in.o
 .text.hcreate_r
                0x000000004026c4b4       0x98 lib/built-in.o
                0x000000004026c4b4                hcreate_r
 .text.hdestroy_r
                0x000000004026c54c       0x88 lib/built-in.o
                0x000000004026c54c                hdestroy_r
 .text.hmatch_r
                0x000000004026c5d4       0xb8 lib/built-in.o
                0x000000004026c5d4                hmatch_r
 .text.hsearch_r
                0x000000004026c68c      0x438 lib/built-in.o
                0x000000004026c68c                hsearch_r
 .text.hdelete_r
                0x000000004026cac4       0xf4 lib/built-in.o
                0x000000004026cac4                hdelete_r
 .text.hexport_r
                0x000000004026cbb8      0x28c lib/built-in.o
                0x000000004026cbb8                hexport_r
 .text.himport_r
                0x000000004026ce44      0x3b4 lib/built-in.o
                0x000000004026ce44                himport_r
 .text.hwalk_r  0x000000004026d1f8       0x70 lib/built-in.o
                0x000000004026d1f8                hwalk_r
 .text.display_options_get_banner_priv
                0x000000004026d268       0xc8 lib/built-in.o
                0x000000004026d268                display_options_get_banner_priv
 .text.display_options_get_banner
                0x000000004026d330       0x10 lib/built-in.o
                0x000000004026d330                display_options_get_banner
 .text.display_options
                0x000000004026d340       0x34 lib/built-in.o
                0x000000004026d340                display_options
 .text.print_size
                0x000000004026d374       0xe4 lib/built-in.o
                0x000000004026d374                print_size
 .text.print_buffer
                0x000000004026d458      0x214 lib/built-in.o
                0x000000004026d458                print_buffer
 .text.crc32_wd
                0x000000004026d66c        0x4 lib/built-in.o
                0x000000004026d66c                crc32_wd
 .text.crc32_wd_buf
                0x000000004026d670       0x3c lib/built-in.o
                0x000000004026d670                crc32_wd_buf
 .text.hang     0x000000004026d6ac       0x20 lib/built-in.o
                0x000000004026d6ac                hang
 .text.kmalloc  0x000000004026d6cc       0x54 lib/built-in.o
                0x000000004026d6cc                kmalloc
 .text.skip_spaces
                0x000000004026d720       0x20 lib/built-in.o
                0x000000004026d720                skip_spaces
 .text.strim    0x000000004026d740       0x5c lib/built-in.o
                0x000000004026d740                strim
 .text.lmb_overlaps_region
                0x000000004026d79c       0x4c lib/built-in.o
 .text.lmb_add_region
                0x000000004026d7e8      0x17c lib/built-in.o
 .text.lmb_dump_all
                0x000000004026d964        0x4 lib/built-in.o
                0x000000004026d964                lmb_dump_all
 .text.lmb_add  0x000000004026d968        0x4 lib/built-in.o
                0x000000004026d968                lmb_add
 .text.lmb_free
                0x000000004026d96c       0xe8 lib/built-in.o
                0x000000004026d96c                lmb_free
 .text.lmb_reserve
                0x000000004026da54        0x8 lib/built-in.o
                0x000000004026da54                lmb_reserve
 .text.lmb_reserve_overlap
                0x000000004026da5c       0xb4 lib/built-in.o
                0x000000004026da5c                lmb_reserve_overlap
 .text.__lmb_alloc_base
                0x000000004026db10       0xd0 lib/built-in.o
                0x000000004026db10                __lmb_alloc_base
 .text.lmb_alloc_base
                0x000000004026dbe0       0x4c lib/built-in.o
                0x000000004026dbe0                lmb_alloc_base
 .text.lmb_alloc
                0x000000004026dc2c        0x8 lib/built-in.o
                0x000000004026dc2c                lmb_alloc
 .text.lmb_alloc_addr
                0x000000004026dc34       0x68 lib/built-in.o
                0x000000004026dc34                lmb_alloc_addr
 .text.lmb_get_free_size
                0x000000004026dc9c       0x88 lib/built-in.o
                0x000000004026dc9c                lmb_get_free_size
 .text.lmb_init_and_reserve
                0x000000004026dd24       0x78 lib/built-in.o
                0x000000004026dd24                lmb_init_and_reserve
 .text.lmb_init_and_reserve_range
                0x000000004026dd9c       0x54 lib/built-in.o
                0x000000004026dd9c                lmb_init_and_reserve_range
 .text.emit     0x000000004026ddf0       0x2c lib/built-in.o
 .text.store_char_in_data
                0x000000004026de1c       0x30 lib/built-in.o
 .text.get_escape_char
                0x000000004026de4c       0x98 lib/built-in.o
 .text.relocate
                0x000000004026dee4       0x58 lib/built-in.o
 .text.match    0x000000004026df3c      0x3f0 lib/built-in.o
 .text.loop_greedy
                0x000000004026e32c       0xb4 lib/built-in.o
 .text.loop_non_greedy
                0x000000004026e3e0       0xa0 lib/built-in.o
 .text.quantifier
                0x000000004026e480       0xbc lib/built-in.o
 .text.fixup_branch
                0x000000004026e53c       0x54 lib/built-in.o
 .text.compile  0x000000004026e590      0x37c lib/built-in.o
 .text.slre_compile
                0x000000004026e90c       0xd4 lib/built-in.o
                0x000000004026e90c                slre_compile
 .text.slre_match
                0x000000004026e9e0       0xa4 lib/built-in.o
                0x000000004026e9e0                slre_match
 .text.strncasecmp
                0x000000004026ea84       0x74 lib/built-in.o
                0x000000004026ea84                strncasecmp
 .text.strcasecmp
                0x000000004026eaf8        0x8 lib/built-in.o
                0x000000004026eaf8                strcasecmp
 .text.strcpy   0x000000004026eb00       0x18 lib/built-in.o
                0x000000004026eb00                strcpy
 .text.strncpy  0x000000004026eb18       0x20 lib/built-in.o
                0x000000004026eb18                strncpy
 .text.strcat   0x000000004026eb38       0x2c lib/built-in.o
                0x000000004026eb38                strcat
 .text.strncat  0x000000004026eb64       0x3c lib/built-in.o
                0x000000004026eb64                strncat
 .text.strcmp   0x000000004026eba0       0x28 lib/built-in.o
                0x000000004026eba0                strcmp
 .text.strncmp  0x000000004026ebc8       0x38 lib/built-in.o
                0x000000004026ebc8                strncmp
 .text.strchr   0x000000004026ec00       0x28 lib/built-in.o
                0x000000004026ec00                strchr
 .text.strlen   0x000000004026ec28       0x1c lib/built-in.o
                0x000000004026ec28                strlen
 .text.strrchr  0x000000004026ec44       0x40 lib/built-in.o
                0x000000004026ec44                strrchr
 .text.strnlen  0x000000004026ec84       0x28 lib/built-in.o
                0x000000004026ec84                strnlen
 .text.strdup   0x000000004026ecac       0x4c lib/built-in.o
                0x000000004026ecac                strdup
 .text.strspn   0x000000004026ecf8       0x38 lib/built-in.o
                0x000000004026ecf8                strspn
 .text.strpbrk  0x000000004026ed30       0x34 lib/built-in.o
                0x000000004026ed30                strpbrk
 .text.strtok   0x000000004026ed64       0x70 lib/built-in.o
                0x000000004026ed64                strtok
 .text.strsep   0x000000004026edd4       0x3c lib/built-in.o
                0x000000004026edd4                strsep
 .text.memset   0x000000004026ee10       0x6c lib/built-in.o
                0x000000004026ee10                memset
 .text.memcpy   0x000000004026ee7c       0x68 lib/built-in.o
                0x000000004026ee7c                memcpy
 .text.strlcpy  0x000000004026eee4       0x50 lib/built-in.o
                0x000000004026eee4                strlcpy
 .text.memmove  0x000000004026ef34       0x58 lib/built-in.o
                0x000000004026ef34                memmove
 .text.memcmp   0x000000004026ef8c       0x30 lib/built-in.o
                0x000000004026ef8c                memcmp
 .text.strstr   0x000000004026efbc       0x64 lib/built-in.o
                0x000000004026efbc                strstr
 .text.memchr   0x000000004026f020       0x30 lib/built-in.o
                0x000000004026f020                memchr
 .text.get_timer
                0x000000004026f050       0x3c lib/built-in.o
                0x000000004026f050                get_timer
 .text.timer_get_us
                0x000000004026f08c       0x38 lib/built-in.o
                0x000000004026f08c                timer_get_us
 .text.usec_to_tick
                0x000000004026f0c4       0x30 lib/built-in.o
                0x000000004026f0c4                usec_to_tick
 .text.__udelay
                0x000000004026f0f4       0x40 lib/built-in.o
                0x000000004026f0f4                __udelay
 .text.udelay   0x000000004026f134       0x44 lib/built-in.o
                0x000000004026f134                udelay
 .text.uuid_str_valid
                0x000000004026f178       0x84 lib/built-in.o
                0x000000004026f178                uuid_str_valid
 .text.uuid_str_to_bin
                0x000000004026f1fc      0x18c lib/built-in.o
                0x000000004026f1fc                uuid_str_to_bin
 .text.uuid_bin_to_str
                0x000000004026f388       0xe8 lib/built-in.o
                0x000000004026f388                uuid_bin_to_str
 .text.gen_rand_uuid
                0x000000004026f470       0x8c lib/built-in.o
                0x000000004026f470                gen_rand_uuid
 .text.gen_rand_uuid_str
                0x000000004026f4fc       0x38 lib/built-in.o
                0x000000004026f4fc                gen_rand_uuid_str
 .text.rand_r   0x000000004026f534       0x1c lib/built-in.o
                0x000000004026f534                rand_r
 .text.rand     0x000000004026f550        0xc lib/built-in.o
                0x000000004026f550                rand
 .text.srand    0x000000004026f55c        0xc lib/built-in.o
                0x000000004026f55c                srand
 .text.panic_finish
                0x000000004026f568       0x34 lib/built-in.o
 .text.panic    0x000000004026f59c       0x50 lib/built-in.o
                0x000000004026f59c                panic
 .text.__assert_fail
                0x000000004026f5ec       0x18 lib/built-in.o
                0x000000004026f5ec                __assert_fail
 .text.put_dec_trunc
                0x000000004026f604       0xe0 lib/built-in.o
 .text.put_dec  0x000000004026f6e4       0xd0 lib/built-in.o
 .text.number   0x000000004026f7b4      0x2e4 lib/built-in.o
 .text.string16
                0x000000004026fa98      0x128 lib/built-in.o
 .text.string   0x000000004026fbc0      0x124 lib/built-in.o
 .text.vsnprintf_internal
                0x000000004026fce4      0xa74 lib/built-in.o
 .text.vsnprintf
                0x0000000040270758       0x50 lib/built-in.o
                0x0000000040270758                vsnprintf
 .text.vscnprintf
                0x00000000402707a8       0x74 lib/built-in.o
                0x00000000402707a8                vscnprintf
 .text.snprintf
                0x000000004027081c       0x58 lib/built-in.o
                0x000000004027081c                snprintf
 .text.vsprintf
                0x0000000040270874       0x44 lib/built-in.o
                0x0000000040270874                vsprintf
 .text.sprintf  0x00000000402708b8       0x50 lib/built-in.o
                0x00000000402708b8                sprintf
 .text.printf   0x0000000040270908       0x8c lib/built-in.o
                0x0000000040270908                printf
 .text.vprintf  0x0000000040270994       0x58 lib/built-in.o
                0x0000000040270994                vprintf
 .text.simple_itoa
                0x00000000402709ec       0x40 lib/built-in.o
                0x00000000402709ec                simple_itoa
 .text._parse_integer_fixup_radix
                0x0000000040270a2c       0xb4 lib/built-in.o
 .text.simple_strtoul
                0x0000000040270ae0       0x9c lib/built-in.o
                0x0000000040270ae0                simple_strtoul
 .text.strict_strtoul
                0x0000000040270b7c       0x88 lib/built-in.o
                0x0000000040270b7c                strict_strtoul
 .text.simple_strtol
                0x0000000040270c04       0x2c lib/built-in.o
                0x0000000040270c04                simple_strtol
 .text.ustrtoul
                0x0000000040270c30       0x90 lib/built-in.o
                0x0000000040270c30                ustrtoul
 .text.simple_strtoull
                0x0000000040270cc0       0x9c lib/built-in.o
                0x0000000040270cc0                simple_strtoull
 .text.ustrtoull
                0x0000000040270d5c       0x90 lib/built-in.o
                0x0000000040270d5c                ustrtoull
 .text.trailing_strtoln
                0x0000000040270dec       0x78 lib/built-in.o
                0x0000000040270dec                trailing_strtoln
 .text.trailing_strtol
                0x0000000040270e64        0x8 lib/built-in.o
                0x0000000040270e64                trailing_strtol
 .text.arp_init
                0x0000000040270e6c       0x3c net/built-in.o
                0x0000000040270e6c                arp_init
 .text.arp_raw_request
                0x0000000040270ea8       0xe8 net/built-in.o
                0x0000000040270ea8                arp_raw_request
 .text.arp_request
                0x0000000040270f90       0x84 net/built-in.o
                0x0000000040270f90                arp_request
 .text.arp_timeout_check
                0x0000000040271014       0x90 net/built-in.o
                0x0000000040271014                arp_timeout_check
 .text.arp_receive
                0x00000000402710a4      0x240 net/built-in.o
                0x00000000402710a4                arp_receive
 .text.arp_is_waiting
                0x00000000402712e4       0x14 net/built-in.o
                0x00000000402712e4                arp_is_waiting
 .text.dhcp_extended
                0x00000000402712f8      0x25c net/built-in.o
 .text.dhcp_process_options
                0x0000000040271554      0x200 net/built-in.o
 .text.dhcp_packet_process_options
                0x0000000040271754       0x88 net/built-in.o
 .text.dhcp_handler
                0x00000000402717dc      0x3d4 net/built-in.o
 .text.bootp_reset
                0x0000000040271bb0       0x3c net/built-in.o
                0x0000000040271bb0                bootp_reset
 .text.bootp_request
                0x0000000040271bec      0x26c net/built-in.o
                0x0000000040271bec                bootp_request
 .text.bootp_timeout_handler
                0x0000000040271e58       0x68 net/built-in.o
 .text.dhcp_request
                0x0000000040271ec0        0x4 net/built-in.o
                0x0000000040271ec0                dhcp_request
 .text.eth_get_uclass_priv
                0x0000000040271ec4       0x30 net/built-in.o
 .text.eth_pre_remove
                0x0000000040271ef4       0x40 net/built-in.o
 .text.eth_write_hwaddr
                0x0000000040271f34       0xdc net/built-in.o
 .text.on_ethaddr
                0x0000000040272010       0x8c net/built-in.o
 .text.eth_post_probe
                0x000000004027209c      0x264 net/built-in.o
 .text.eth_post_bind
                0x0000000040272300       0x48 net/built-in.o
 .text.eth_set_current_to_next
                0x0000000040272348       0x48 net/built-in.o
                0x0000000040272348                eth_set_current_to_next
 .text.eth_get_dev
                0x0000000040272390       0x40 net/built-in.o
                0x0000000040272390                eth_get_dev
 .text.eth_set_dev
                0x00000000402723d0       0x44 net/built-in.o
                0x00000000402723d0                eth_set_dev
 .text.eth_pre_unbind
                0x0000000040272414       0x38 net/built-in.o
 .text.eth_get_dev_by_name
                0x000000004027244c       0xfc net/built-in.o
                0x000000004027244c                eth_get_dev_by_name
 .text.eth_get_ethaddr
                0x0000000040272548       0x24 net/built-in.o
                0x0000000040272548                eth_get_ethaddr
 .text.eth_halt_state_only
                0x000000004027256c       0x2c net/built-in.o
                0x000000004027256c                eth_halt_state_only
 .text.eth_get_dev_index
                0x0000000040272598       0x28 net/built-in.o
                0x0000000040272598                eth_get_dev_index
 .text.eth_init
                0x00000000402725c0       0xf8 net/built-in.o
                0x00000000402725c0                eth_init
 .text.eth_is_active
                0x00000000402726b8       0x34 net/built-in.o
                0x00000000402726b8                eth_is_active
 .text.eth_halt
                0x00000000402726ec       0x50 net/built-in.o
                0x00000000402726ec                eth_halt
 .text.eth_send
                0x000000004027273c       0x74 net/built-in.o
                0x000000004027273c                eth_send
 .text.eth_rx   0x00000000402727b0       0xc8 net/built-in.o
                0x00000000402727b0                eth_rx
 .text.eth_initialize
                0x0000000040272878      0x144 net/built-in.o
                0x0000000040272878                eth_initialize
 .text.eth_env_get_enetaddr_by_index
                0x00000000402729bc       0x50 net/built-in.o
                0x00000000402729bc                eth_env_get_enetaddr_by_index
 .text.eth_env_set_enetaddr_by_index
                0x0000000040272a0c       0x50 net/built-in.o
                0x0000000040272a0c                eth_env_set_enetaddr_by_index
 .text.eth_common_init
                0x0000000040272a5c       0x1c net/built-in.o
                0x0000000040272a5c                eth_common_init
 .text.eth_mac_skip
                0x0000000040272a78       0x44 net/built-in.o
                0x0000000040272a78                eth_mac_skip
 .text.eth_get_name
                0x0000000040272abc       0x2c net/built-in.o
                0x0000000040272abc                eth_get_name
 .text.eth_current_changed
                0x0000000040272ae8       0x94 net/built-in.o
                0x0000000040272ae8                eth_current_changed
 .text.eth_try_another
                0x0000000040272b7c       0x80 net/built-in.o
                0x0000000040272b7c                eth_try_another
 .text.eth_set_current
                0x0000000040272bfc       0x8c net/built-in.o
                0x0000000040272bfc                eth_set_current
 .text.net_clear_handlers
                0x0000000040272c88       0x24 net/built-in.o
 .text.start_again_timeout_handler
                0x0000000040272cac       0x10 net/built-in.o
 .text.dummy_handler
                0x0000000040272cbc        0x4 net/built-in.o
 .text.on_ipaddr
                0x0000000040272cc0       0x30 net/built-in.o
 .text.on_gatewayip
                0x0000000040272cf0       0x30 net/built-in.o
 .text.on_netmask
                0x0000000040272d20       0x30 net/built-in.o
 .text.on_serverip
                0x0000000040272d50       0x30 net/built-in.o
 .text.net_init_loop.part.0
                0x0000000040272d80       0x24 net/built-in.o
 .text.net_init
                0x0000000040272da4       0x84 net/built-in.o
                0x0000000040272da4                net_init
 .text.net_start_again
                0x0000000040272e28      0x150 net/built-in.o
                0x0000000040272e28                net_start_again
 .text.net_set_udp_handler
                0x0000000040272f78       0x18 net/built-in.o
                0x0000000040272f78                net_set_udp_handler
 .text.net_get_arp_handler
                0x0000000040272f90        0xc net/built-in.o
                0x0000000040272f90                net_get_arp_handler
 .text.net_set_timeout_handler
                0x0000000040272f9c       0x54 net/built-in.o
                0x0000000040272f9c                net_set_timeout_handler
 .text.net_get_async_tx_pkt_buf
                0x0000000040272ff0       0x2c net/built-in.o
                0x0000000040272ff0                net_get_async_tx_pkt_buf
 .text.net_process_received_packet
                0x000000004027301c      0x308 net/built-in.o
                0x000000004027301c                net_process_received_packet
 .text.net_eth_hdr_size
                0x0000000040273324       0x40 net/built-in.o
                0x0000000040273324                net_eth_hdr_size
 .text.net_set_ether
                0x0000000040273364       0xc0 net/built-in.o
                0x0000000040273364                net_set_ether
 .text.net_update_ether
                0x0000000040273424       0xa8 net/built-in.o
                0x0000000040273424                net_update_ether
 .text.net_set_ip_header
                0x00000000402734cc       0xb4 net/built-in.o
                0x00000000402734cc                net_set_ip_header
 .text.net_set_udp_header
                0x0000000040273580       0x90 net/built-in.o
                0x0000000040273580                net_set_udp_header
 .text.net_send_ip_packet
                0x0000000040273610      0x128 net/built-in.o
                0x0000000040273610                net_send_ip_packet
 .text.net_send_udp_packet
                0x0000000040273738       0x2c net/built-in.o
                0x0000000040273738                net_send_udp_packet
 .text.copy_filename
                0x0000000040273764       0x4c net/built-in.o
                0x0000000040273764                copy_filename
 .text.is_serverip_in_cmd
                0x00000000402737b0       0x28 net/built-in.o
                0x00000000402737b0                is_serverip_in_cmd
 .text.net_check_prereq
                0x00000000402737d8       0xf8 net/built-in.o
 .text.net_auto_load
                0x00000000402738d0       0xac net/built-in.o
                0x00000000402738d0                net_auto_load
 .text.net_loop
                0x000000004027397c      0x264 net/built-in.o
                0x000000004027397c                net_loop
 .text.net_parse_bootfile
                0x0000000040273be0       0x98 net/built-in.o
                0x0000000040273be0                net_parse_bootfile
 .text.ip_to_string
                0x0000000040273c78       0x28 net/built-in.o
                0x0000000040273c78                ip_to_string
 .text.string_to_vlan
                0x0000000040273ca0       0x58 net/built-in.o
                0x0000000040273ca0                string_to_vlan
 .text.on_nvlan
                0x0000000040273cf8       0x30 net/built-in.o
 .text.on_vlan  0x0000000040273d28       0x30 net/built-in.o
 .text.rpc_lookup_reply
                0x0000000040273d58       0xb4 net/built-in.o
 .text.nfs_mount_reply
                0x0000000040273e0c       0x94 net/built-in.o
 .text.nfs_umountall_reply
                0x0000000040273ea0       0x88 net/built-in.o
 .text.nfs_lookup_reply
                0x0000000040273f28      0x124 net/built-in.o
 .text.nfs_readlink_reply
                0x000000004027404c      0x150 net/built-in.o
 .text.basename
                0x000000004027419c       0x48 net/built-in.o
 .text.nfs_read_reply
                0x00000000402741e4      0x194 net/built-in.o
 .text.rpc_req  0x0000000040274378      0x120 net/built-in.o
 .text.nfs_read_req
                0x0000000040274498       0xe4 net/built-in.o
 .text.nfs_readlink_req
                0x000000004027457c       0xc0 net/built-in.o
 .text.nfs_mount_req
                0x000000004027463c       0xb4 net/built-in.o
 .text.nfs_umountall_req
                0x00000000402746f0       0x6c net/built-in.o
 .text.nfs_lookup_req
                0x000000004027475c      0x144 net/built-in.o
 .text.nfs_send
                0x00000000402748a0      0x104 net/built-in.o
 .text.nfs_handler
                0x00000000402749a4      0x244 net/built-in.o
 .text.nfs_timeout_handler
                0x0000000040274be8       0x6c net/built-in.o
 .text.nfs_start
                0x0000000040274c54      0x1d4 net/built-in.o
                0x0000000040274c54                nfs_start
 .text.ping_timeout_handler
                0x0000000040274e28       0x20 net/built-in.o
 .text.ping_start
                0x0000000040274e48      0x110 net/built-in.o
                0x0000000040274e48                ping_start
 .text.ping_receive
                0x0000000040274f58      0x128 net/built-in.o
                0x0000000040274f58                ping_receive
 .text.tftp_init_load_addr
                0x0000000040275080       0x5c net/built-in.o
 .text.tftp_send
                0x00000000402750dc      0x1ac net/built-in.o
 .text.tftp_handler
                0x0000000040275288      0x3c4 net/built-in.o
 .text.tftp_timeout_handler
                0x000000004027564c       0x84 net/built-in.o
 .text.tftp_start
                0x00000000402756d0      0x334 net/built-in.o
                0x00000000402756d0                tftp_start
                0x0000000040275a08                . = ALIGN (0x8)

.rodata         0x0000000040275a08    0x176ce
 *(SORT_BY_ALIGNMENT(SORT_BY_NAME(.rodata*)))
 .rodata.CSWTCH.129
                0x0000000040275a08       0x18 drivers/usb/host/built-in.o
 .rodata.CSWTCH.180
                0x0000000040275a20       0xe8 common/built-in.o
 .rodata.CSWTCH.27
                0x0000000040275b08       0x40 common/built-in.o
 .rodata.CSWTCH.29
                0x0000000040275b48       0x40 disk/built-in.o
 .rodata.CSWTCH.40
                0x0000000040275b88       0x28 cmd/built-in.o
 .rodata.boot_os
                0x0000000040275bb0       0xe8 common/built-in.o
 .rodata.bootm_args.7235
                0x0000000040275c98       0x18 drivers/built-in.o
 .rodata.ccf_clk_fixed_factor_ops
                0x0000000040275cb0       0x40 drivers/built-in.o
                0x0000000040275cb0                ccf_clk_fixed_factor_ops
 .rodata.ci_ep_init
                0x0000000040275cf0      0x168 drivers/usb/gadget/built-in.o
 .rodata.ci_udc_otg_ids
                0x0000000040275e58       0x20 drivers/usb/gadget/built-in.o
 .rodata.clk_divider_ops
                0x0000000040275e78       0x40 drivers/built-in.o
                0x0000000040275e78                clk_divider_ops
 .rodata.clk_fixed_factor_match
                0x0000000040275eb8       0x20 drivers/built-in.o
 .rodata.clk_fixed_factor_ops
                0x0000000040275ed8       0x40 drivers/built-in.o
                0x0000000040275ed8                clk_fixed_factor_ops
 .rodata.clk_fixed_rate_match
                0x0000000040275f18       0x20 drivers/built-in.o
 .rodata.clk_fixed_rate_ops
                0x0000000040275f38       0x40 drivers/built-in.o
                0x0000000040275f38                clk_fixed_rate_ops
 .rodata.clk_gate2_ops
                0x0000000040275f78       0x40 drivers/built-in.o
 .rodata.clk_gate_ops
                0x0000000040275fb8       0x40 drivers/built-in.o
                0x0000000040275fb8                clk_gate_ops
 .rodata.clk_mux_ops
                0x0000000040275ff8       0x40 drivers/built-in.o
                0x0000000040275ff8                clk_mux_ops
 .rodata.clk_pfd_ops
                0x0000000040276038       0x40 drivers/built-in.o
 .rodata.clk_pll1416x_ops
                0x0000000040276078       0x40 drivers/built-in.o
 .rodata.clk_pll1443x_ops
                0x00000000402760b8       0x40 drivers/built-in.o
 .rodata.clk_pllv3_av_ops
                0x00000000402760f8       0x40 drivers/built-in.o
 .rodata.clk_pllv3_generic_ops
                0x0000000040276138       0x40 drivers/built-in.o
 .rodata.clk_pllv3_sys_ops
                0x0000000040276178       0x40 drivers/built-in.o
 .rodata.commands
                0x00000000402761b8       0xd0 drivers/built-in.o
 .rodata.dart_carrier_detect_pads
                0x0000000040276288        0x8 board/variscite/imx8mm_var_dart/built-in.o
 .rodata.driver_ops
                0x0000000040276290       0x18 lib/built-in.o
 .rodata.efi_blk_ops
                0x00000000402762a8       0x20 lib/built-in.o
 .rodata.efi_block_io_guid
                0x00000000402762c8       0x10 lib/built-in.o
                0x00000000402762c8                efi_block_io_guid
 .rodata.efi_device_path_to_text
                0x00000000402762d8       0x10 lib/built-in.o
                0x00000000402762d8                efi_device_path_to_text
 .rodata.efi_device_path_utilities
                0x00000000402762e8       0x40 lib/built-in.o
                0x00000000402762e8                efi_device_path_utilities
 .rodata.efi_file_handle_protocol
                0x0000000040276328       0x78 lib/built-in.o
 .rodata.efi_file_info_guid
                0x00000000402763a0       0x10 lib/built-in.o
                0x00000000402763a0                efi_file_info_guid
 .rodata.efi_file_system_info_guid
                0x00000000402763b0       0x10 lib/built-in.o
                0x00000000402763b0                efi_file_system_info_guid
 .rodata.efi_global_variable_guid
                0x00000000402763c0       0x10 lib/built-in.o
                0x00000000402763c0                efi_global_variable_guid
 .rodata.efi_guid_device_path
                0x00000000402763d0       0x10 lib/built-in.o
                0x00000000402763d0                efi_guid_device_path
 .rodata.efi_guid_device_path_to_text_protocol
                0x00000000402763e0       0x10 lib/built-in.o
                0x00000000402763e0                efi_guid_device_path_to_text_protocol
 .rodata.efi_guid_device_path_utilities_protocol
                0x00000000402763f0       0x10 lib/built-in.o
                0x00000000402763f0                efi_guid_device_path_utilities_protocol
 .rodata.efi_guid_driver_binding_protocol
                0x0000000040276400       0x10 lib/built-in.o
                0x0000000040276400                efi_guid_driver_binding_protocol
 .rodata.efi_guid_event_group_exit_boot_services
                0x0000000040276410       0x10 lib/built-in.o
                0x0000000040276410                efi_guid_event_group_exit_boot_services
 .rodata.efi_guid_event_group_memory_map_change
                0x0000000040276420       0x10 lib/built-in.o
                0x0000000040276420                efi_guid_event_group_memory_map_change
 .rodata.efi_guid_event_group_reset_system
                0x0000000040276430       0x10 lib/built-in.o
                0x0000000040276430                efi_guid_event_group_reset_system
 .rodata.efi_guid_fdt
                0x0000000040276440       0x10 lib/built-in.o
                0x0000000040276440                efi_guid_fdt
 .rodata.efi_guid_hii_config_routing_protocol
                0x0000000040276450       0x10 lib/built-in.o
                0x0000000040276450                efi_guid_hii_config_routing_protocol
 .rodata.efi_guid_hii_database_protocol
                0x0000000040276460       0x10 lib/built-in.o
                0x0000000040276460                efi_guid_hii_database_protocol
 .rodata.efi_guid_hii_string_protocol
                0x0000000040276470       0x10 lib/built-in.o
                0x0000000040276470                efi_guid_hii_string_protocol
 .rodata.efi_guid_loaded_image
                0x0000000040276480       0x10 lib/built-in.o
                0x0000000040276480                efi_guid_loaded_image
 .rodata.efi_guid_loaded_image_device_path
                0x0000000040276490       0x10 lib/built-in.o
                0x0000000040276490                efi_guid_loaded_image_device_path
 .rodata.efi_guid_text_input_ex_protocol
                0x00000000402764a0       0x10 lib/built-in.o
                0x00000000402764a0                efi_guid_text_input_ex_protocol
 .rodata.efi_guid_text_input_protocol
                0x00000000402764b0       0x10 lib/built-in.o
                0x00000000402764b0                efi_guid_text_input_protocol
 .rodata.efi_guid_text_output_protocol
                0x00000000402764c0       0x10 lib/built-in.o
                0x00000000402764c0                efi_guid_text_output_protocol
 .rodata.efi_guid_unicode_collation_protocol2
                0x00000000402764d0       0x10 lib/built-in.o
                0x00000000402764d0                efi_guid_unicode_collation_protocol2
 .rodata.efi_hii_config_routing
                0x00000000402764e0       0x30 lib/built-in.o
                0x00000000402764e0                efi_hii_config_routing
 .rodata.efi_hii_database
                0x0000000040276510       0x58 lib/built-in.o
                0x0000000040276510                efi_hii_database
 .rodata.efi_hii_string
                0x0000000040276568       0x28 lib/built-in.o
                0x0000000040276568                efi_hii_string
 .rodata.efi_net_guid
                0x0000000040276590       0x10 lib/built-in.o
 .rodata.efi_pxe_base_code_protocol_guid
                0x00000000402765a0       0x10 lib/built-in.o
 .rodata.efi_rt_properties_table_guid
                0x00000000402765b0       0x10 lib/built-in.o
 .rodata.efi_simple_file_system_protocol_guid
                0x00000000402765c0       0x10 lib/built-in.o
                0x00000000402765c0                efi_simple_file_system_protocol_guid
 .rodata.efi_system_volume_label_id
                0x00000000402765d0       0x10 lib/built-in.o
                0x00000000402765d0                efi_system_volume_label_id
 .rodata.efi_unicode_collation_protocol2
                0x00000000402765e0       0x38 lib/built-in.o
                0x00000000402765e0                efi_unicode_collation_protocol2
 .rodata.fdt_errtable
                0x0000000040276618       0x98 lib/built-in.o
 .rodata.fdt_member_table
                0x00000000402766b0       0x50 cmd/built-in.o
 .rodata.fecmxc_ids
                0x0000000040276700       0xa0 drivers/net/built-in.o
 .rodata.fecmxc_ops
                0x00000000402767a0       0x40 drivers/net/built-in.o
 .rodata.fixed_regulator_ids
                0x00000000402767e0       0x20 drivers/power/regulator/built-in.o
 .rodata.fixed_regulator_ops
                0x0000000040276800       0x60 drivers/power/regulator/built-in.o
 .rodata.fsl_esdhc_ids
                0x0000000040276860       0xe0 drivers/built-in.o
 .rodata.fsl_esdhc_ops
                0x0000000040276940       0x48 drivers/built-in.o
 .rodata.generic_simple_bus_ids
                0x0000000040276988       0x30 drivers/built-in.o
 .rodata.generic_syscon_ids
                0x00000000402769b8       0x20 drivers/built-in.o
 .rodata.gpio_function
                0x00000000402769d8       0x28 drivers/gpio/built-in.o
 .rodata.gpio_mxc_ops
                0x0000000040276a00       0x50 drivers/gpio/built-in.o
 .rodata.gpio_regulator_ids
                0x0000000040276a50       0x20 drivers/power/regulator/built-in.o
 .rodata.gpio_regulator_ops
                0x0000000040276a70       0x60 drivers/power/regulator/built-in.o
 .rodata.hub_id_table
                0x0000000040276ad0       0x40 common/built-in.o
 .rodata.if_typename_str
                0x0000000040276b10       0x68 drivers/built-in.o
 .rodata.imx7_reset_ids
                0x0000000040276b78       0x30 drivers/built-in.o
 .rodata.imx7_reset_reset_ops
                0x0000000040276ba8       0x30 drivers/built-in.o
 .rodata.imx8m_clk_composite_divider_ops
                0x0000000040276bd8       0x40 drivers/built-in.o
 .rodata.imx8m_pinctrl_match
                0x0000000040276c18       0x50 drivers/built-in.o
 .rodata.imx8mm_clk_ids
                0x0000000040276c68       0x20 drivers/built-in.o
 .rodata.imx_pinctrl_ops
                0x0000000040276c88       0xa0 drivers/built-in.o
                0x0000000040276c88                imx_pinctrl_ops
 .rodata.init_sequence_f
                0x0000000040276d28      0x188 common/built-in.o
 .rodata.mass_storage_id_table
                0x0000000040276eb0       0x40 common/built-in.o
 .rodata.mii_reg_desc_tbl
                0x0000000040276ef0      0x100 cmd/built-in.o
 .rodata.mmc_blk_ops
                0x0000000040276ff0       0x20 drivers/built-in.o
 .rodata.mx6_ehci_ops
                0x0000000040277010       0x28 drivers/usb/host/built-in.o
 .rodata.mx6_usb_ids
                0x0000000040277038       0x20 drivers/usb/host/built-in.o
 .rodata.mxc_gpio_ids
                0x0000000040277058       0x20 drivers/gpio/built-in.o
 .rodata.mxc_i2c_ids
                0x0000000040277078       0x30 drivers/i2c/built-in.o
 .rodata.mxc_i2c_ops
                0x00000000402770a8       0x30 drivers/i2c/built-in.o
 .rodata.names.8561
                0x00000000402770d8       0x68 drivers/built-in.o
 .rodata.nxp_tmu_ids
                0x0000000040277140       0x40 drivers/built-in.o
 .rodata.nxp_tmu_ops
                0x0000000040277180        0x8 drivers/built-in.o
 .rodata.op_adv
                0x0000000040277188      0x180 cmd/built-in.o
                0x0000000040277188                op_adv
 .rodata.op_table
                0x0000000040277308       0xd0 cmd/built-in.o
 .rodata.partition_basic_data_guid
                0x00000000402773d8       0x10 disk/built-in.o
 .rodata.phy_interface_strings
                0x00000000402773e8       0xc8 drivers/net/phy/built-in.o
 .rodata.psci_of_match
                0x00000000402774b0       0x40 drivers/built-in.o
 .rodata.reg_0_desc_tbl
                0x00000000402774f0       0xa0 cmd/built-in.o
 .rodata.reg_10_desc_tbl
                0x0000000040277590       0x80 cmd/built-in.o
 .rodata.reg_1_desc_tbl
                0x0000000040277610      0x100 cmd/built-in.o
 .rodata.reg_2_desc_tbl
                0x0000000040277710       0x10 cmd/built-in.o
 .rodata.reg_3_desc_tbl
                0x0000000040277720       0x30 cmd/built-in.o
 .rodata.reg_4_desc_tbl
                0x0000000040277750       0xc0 cmd/built-in.o
 .rodata.reg_5_desc_tbl
                0x0000000040277810       0xc0 cmd/built-in.o
 .rodata.reg_9_desc_tbl
                0x00000000402778d0       0x80 cmd/built-in.o
 .rodata.root_info
                0x0000000040277950       0x10 drivers/built-in.o
 .rodata.smbios_guid
                0x0000000040277960       0x10 lib/built-in.o
 .rodata.smbios_write_funcs
                0x0000000040277970       0x38 lib/built-in.o
 .rodata.system_guid
                0x00000000402779a8       0x10 disk/built-in.o
 .rodata.uart1_pads
                0x00000000402779b8       0x10 board/variscite/imx8mm_var_dart/built-in.o
 .rodata.uart4_pads
                0x00000000402779c8       0x10 board/variscite/imx8mm_var_dart/built-in.o
 .rodata.uimage_arch
                0x00000000402779d8      0x288 common/built-in.o
 .rodata.uimage_comp
                0x0000000040277c60       0xa8 common/built-in.o
 .rodata.uimage_os
                0x0000000040277d08      0x150 common/built-in.o
 .rodata.uimage_type
                0x0000000040277e58      0x3c0 common/built-in.o
 .rodata.usb_dr_modes
                0x0000000040278218       0x20 drivers/usb/common/built-in.o
 .rodata.usb_hub_ids
                0x0000000040278238       0x20 common/built-in.o
 .rodata.usb_mass_storage_ids
                0x0000000040278258       0x20 common/built-in.o
 .rodata.usb_storage_ops
                0x0000000040278278       0x20 common/built-in.o
 .rodata.wdog_pads
                0x0000000040278298        0x8 board/variscite/imx8mm_var_dart/built-in.o
 .rodata.add_packages
                0x00000000402782a0       0x14 lib/built-in.o
 .rodata.binary_test
                0x00000000402782b4        0xe cmd/built-in.o
 *fill*         0x00000000402782c2        0x2 
 .rodata.board_late_init
                0x00000000402782c4        0x4 board/variscite/imx8mm_var_dart/built-in.o
 .rodata.cli_readline_into_buffer
                0x00000000402782c8       0x86 common/built-in.o
 *fill*         0x000000004027834e        0x2 
 .rodata.color  0x0000000040278350       0x40 lib/built-in.o
 .rodata.compile
                0x0000000040278390       0x16 lib/built-in.o
 *fill*         0x00000000402783a6        0x2 
 .rodata.composite_setup
                0x00000000402783a8       0x2a drivers/usb/gadget/built-in.o
 *fill*         0x00000000402783d2        0x2 
 .rodata.decode_intpll
                0x00000000402783d4       0x30 arch/arm/mach-imx/built-in.o
 .rodata.dev_print
                0x0000000040278404       0x18 disk/built-in.o
 .rodata.dhcp_process_options
                0x000000004027841c       0x26 net/built-in.o
 *fill*         0x0000000040278442        0x2 
 .rodata.do_fdt
                0x0000000040278444       0x12 cmd/built-in.o
 *fill*         0x0000000040278456        0x2 
 .rodata.do_itest
                0x0000000040278458        0xb cmd/built-in.o
 *fill*         0x0000000040278463        0x1 
 .rodata.do_setexpr
                0x0000000040278464        0xb cmd/built-in.o
 *fill*         0x000000004027846f        0x1 
 .rodata.do_test
                0x0000000040278470        0xd cmd/built-in.o
 *fill*         0x000000004027847d        0x3 
 .rodata.do_usb
                0x0000000040278480        0xe cmd/built-in.o
 *fill*         0x000000004027848e        0x2 
 .rodata.efi_cin_check
                0x0000000040278490       0x30 lib/built-in.o
 .rodata.efi_convert_single_device_node_to_text
                0x00000000402784c0       0x17 lib/built-in.o
 *fill*         0x00000000402784d7        0x1 
 .rodata.efi_load_pe
                0x00000000402784d8        0xb lib/built-in.o
 *fill*         0x00000000402784e3        0x1 
 .rodata.ehci_usb_ofdata_to_platdata
                0x00000000402784e4        0x4 drivers/usb/host/built-in.o
 .rodata.env_flags_validate
                0x00000000402784e8        0x6 env/built-in.o
 *fill*         0x00000000402784ee        0x2 
 .rodata.env_flags_varaccess_mask
                0x00000000402784f0       0x10 env/built-in.o
 .rodata.evalexp
                0x0000000040278500        0x8 cmd/built-in.o
 .rodata.ext_csd_bus_width
                0x0000000040278508       0x3c drivers/built-in.o
 .rodata.fbase  0x0000000040278544       0x10 drivers/built-in.o
 .rodata.fdt_next_tag
                0x0000000040278554        0x9 lib/built-in.o
 *fill*         0x000000004027855d        0x3 
 .rodata.file_fat_detectfs
                0x0000000040278560        0x8 fs/built-in.o
 .rodata.freqs.8566
                0x0000000040278568       0x34 drivers/built-in.o
 .rodata.fsg_main_thread
                0x000000004027859c       0x5a drivers/usb/gadget/built-in.o
 *fill*         0x00000000402785f6        0x2 
 .rodata.fsl_esdhc_set_ios
                0x00000000402785f8        0xd drivers/built-in.o
 *fill*         0x0000000040278605        0x3 
 .rodata.get_boot_device
                0x0000000040278608        0xf arch/arm/mach-imx/built-in.o
 *fill*         0x0000000040278617        0x1 
 .rodata.get_clk_root_target
                0x0000000040278618        0x7 arch/arm/mach-imx/built-in.o
 *fill*         0x000000004027861f        0x1 
 .rodata.get_cpu_speed_grade_hz
                0x0000000040278620        0x5 arch/arm/mach-imx/built-in.o
 *fill*         0x0000000040278625        0x3 
 .rodata.get_cpu_variant_type
                0x0000000040278628        0x7 arch/arm/mach-imx/built-in.o
 *fill*         0x000000004027862f        0x1 
 .rodata.get_escape_char
                0x0000000040278630        0x7 lib/built-in.o
 *fill*         0x0000000040278637        0x1 
 .rodata.get_imx_type
                0x0000000040278638       0x47 arch/arm/mach-imx/built-in.o
 *fill*         0x000000004027867f        0x1 
 .rodata.get_root_src_clk
                0x0000000040278680        0xa arch/arm/mach-imx/built-in.o
 *fill*         0x000000004027868a        0x2 
 .rodata.if_type_uclass_id
                0x000000004027868c       0x34 drivers/built-in.o
 .rodata.imx7_src_signals
                0x00000000402786c0       0xd0 drivers/built-in.o
 .rodata.imx8mm_drampll_tbl
                0x0000000040278790       0x14 drivers/built-in.o
 .rodata.imx8mm_pll1416x_tbl
                0x00000000402787a4       0xa0 drivers/built-in.o
 .rodata.imx8mq_src_signals
                0x0000000040278844      0x1a0 drivers/built-in.o
 .rodata.inflate
                0x00000000402789e4       0x3a lib/built-in.o
 *fill*         0x0000000040278a1e        0x2 
 .rodata.init_uart_clk
                0x0000000040278a20        0x4 arch/arm/mach-imx/built-in.o
 .rodata.list_package_lists
                0x0000000040278a24        0xa lib/built-in.o
 *fill*         0x0000000040278a2e        0x2 
 .rodata.match  0x0000000040278a30       0x22 lib/built-in.o
 *fill*         0x0000000040278a52        0x2 
 .rodata.mmc_init
                0x0000000040278a54        0x4 drivers/built-in.o
 .rodata.mmc_modes_by_pref
                0x0000000040278a58       0x54 drivers/built-in.o
 .rodata.mmc_set_capacity
                0x0000000040278aac        0x8 drivers/built-in.o
 .rodata.mmc_set_card_speed
                0x0000000040278ab4        0xd drivers/built-in.o
 *fill*         0x0000000040278ac1        0x3 
 .rodata.mmc_versions.8999
                0x0000000040278ac4       0x24 drivers/built-in.o
 .rodata.mxc_get_clock
                0x0000000040278ae8        0x9 arch/arm/mach-imx/built-in.o
 *fill*         0x0000000040278af1        0x3 
 .rodata.net_check_prereq
                0x0000000040278af4        0xf net/built-in.o
 *fill*         0x0000000040278b03        0x1 
 .rodata.net_loop
                0x0000000040278b04        0x8 net/built-in.o
 .rodata.nfs_handler
                0x0000000040278b0c        0x7 net/built-in.o
 *fill*         0x0000000040278b13        0x1 
 .rodata.nfs_send
                0x0000000040278b14        0x7 net/built-in.o
 *fill*         0x0000000040278b1b        0x1 
 .rodata.parse_stream_outer
                0x0000000040278b1c        0xc common/built-in.o
 .rodata.part_print
                0x0000000040278b28        0xc disk/built-in.o
 .rodata.rx_handler_command
                0x0000000040278b34        0x6 drivers/usb/gadget/built-in.o
 *fill*         0x0000000040278b3a        0x2 
 .rodata.sd_au_size.8849
                0x0000000040278b3c       0x40 drivers/built-in.o
 .rodata.sd_modes_by_pref
                0x0000000040278b7c       0x54 drivers/built-in.o
 .rodata.sd_select_mode_and_width
                0x0000000040278bd0        0xa drivers/built-in.o
 *fill*         0x0000000040278bda        0x2 
 .rodata.sleep_thread.isra.0
                0x0000000040278bdc        0x8 drivers/usb/gadget/built-in.o
 .rodata.srec_decode
                0x0000000040278be4       0x16 common/built-in.o
 *fill*         0x0000000040278bfa        0x2 
 .rodata.tftp_send
                0x0000000040278bfc        0x7 net/built-in.o
 *fill*         0x0000000040278c03        0x1 
 .rodata.update_package_list
                0x0000000040278c04        0xa lib/built-in.o
 *fill*         0x0000000040278c0e        0x2 
 .rodata.usb_display_class_sub
                0x0000000040278c10        0x6 cmd/built-in.o
 *fill*         0x0000000040278c16        0x2 
 .rodata.usb_get_class_desc
                0x0000000040278c18        0xb cmd/built-in.o
 *fill*         0x0000000040278c23        0x1 
 .rodata.uuid_bin_to_str
                0x0000000040278c24        0x7 lib/built-in.o
 *fill*         0x0000000040278c2b        0x1 
 .rodata.vsnprintf_internal
                0x0000000040278c2c       0x2c lib/built-in.o
 .rodata.write_sparse_image
                0x0000000040278c58        0x8 lib/built-in.o
 .rodata.codepage
                0x0000000040278c60      0x100 lib/built-in.o
 .rodata.crc16_tab
                0x0000000040278d60      0x200 lib/built-in.o
 .rodata.crc16_table
                0x0000000040278f60      0x200 fs/built-in.o
 .rodata.dbase.7554
                0x0000000040279160       0x40 lib/built-in.o
 .rodata.dext.7555
                0x00000000402791a0       0x40 lib/built-in.o
 .rodata.distfix
                0x00000000402791e0       0x80 lib/built-in.o
 .rodata.efi_bootmgr_load.str2.2
                0x0000000040279260       0x26 lib/built-in.o
 .rodata.efi_init_obj_list.str2.2
                0x0000000040279286       0x6c lib/built-in.o
 .rodata.i2c_clk_div
                0x00000000402792f2       0xc8 drivers/i2c/built-in.o
 .rodata.lbase.7552
                0x00000000402793ba       0x3e lib/built-in.o
 .rodata.lenfix
                0x00000000402793f8      0x800 lib/built-in.o
 .rodata.lext.7553
                0x0000000040279bf8       0x3e lib/built-in.o
 .rodata.order.7648
                0x0000000040279c36       0x26 lib/built-in.o
 .rodata.string16.str2.2
                0x0000000040279c5c        0xe lib/built-in.o
 .rodata.try_load_entry.str2.2
                0x0000000040279c6a       0x4c lib/built-in.o
 .rodata        0x0000000040279cb6       0x14 drivers/built-in.o
 .rodata        0x0000000040279cca       0x3f drivers/usb/host/built-in.o
 .rodata        0x0000000040279d09       0x20 lib/built-in.o
 .rodata        0x0000000040279d29        0x7 net/built-in.o
 .rodata.CSWTCH.130
                0x0000000040279d30        0x3 drivers/usb/host/built-in.o
 .rodata.CSWTCH.36
                0x0000000040279d33       0x16 common/built-in.o
 .rodata.END    0x0000000040279d49        0x4 lib/built-in.o
 .rodata.ROOT   0x0000000040279d4d       0x14 lib/built-in.o
 .rodata.__FUNCTION__.7560
                0x0000000040279d61       0x17 common/built-in.o
 .rodata.__FUNCTION__.7733
                0x0000000040279d78       0x17 common/built-in.o
 .rodata.__assert_fail.str1.1
                0x0000000040279d8f       0x22 lib/built-in.o
 .rodata.__func__.10096
                0x0000000040279db1       0x15 lib/built-in.o
 .rodata.__func__.10394
                0x0000000040279dc6        0xc drivers/net/built-in.o
 .rodata.__func__.10443
                0x0000000040279dd2       0x10 drivers/net/built-in.o
 .rodata.__func__.11040
                0x0000000040279de2        0xc drivers/usb/gadget/built-in.o
 .rodata.__func__.11214
                0x0000000040279dee       0x11 drivers/usb/gadget/built-in.o
 .rodata.__func__.11371
                0x0000000040279dff       0x11 drivers/usb/gadget/built-in.o
 .rodata.__func__.11516
                0x0000000040279e10        0xf drivers/usb/gadget/built-in.o
 .rodata.__func__.7229
                0x0000000040279e1f        0xb fs/built-in.o
 .rodata.__func__.7386
                0x0000000040279e2a       0x13 lib/built-in.o
 .rodata.__func__.7436
                0x0000000040279e3d       0x18 common/built-in.o
 .rodata.__func__.7438
                0x0000000040279e55       0x12 disk/built-in.o
 .rodata.__func__.7449
                0x0000000040279e67       0x13 disk/built-in.o
 .rodata.__func__.7511
                0x0000000040279e7a        0xc disk/built-in.o
 .rodata.__func__.7529
                0x0000000040279e86       0x13 disk/built-in.o
 .rodata.__func__.7572
                0x0000000040279e99       0x1c disk/built-in.o
 .rodata.__func__.7589
                0x0000000040279eb5        0xd disk/built-in.o
 .rodata.__func__.7599
                0x0000000040279ec2        0xf disk/built-in.o
 .rodata.__func__.7608
                0x0000000040279ed1       0x17 disk/built-in.o
 .rodata.__func__.7608
                0x0000000040279ee8        0x8 lib/built-in.o
 .rodata.__func__.7613
                0x0000000040279ef0        0xd disk/built-in.o
 .rodata.__func__.7696
                0x0000000040279efd       0x13 fs/built-in.o
 .rodata.__func__.7705
                0x0000000040279f10       0x14 fs/built-in.o
 .rodata.__func__.7756
                0x0000000040279f24        0x7 cmd/built-in.o
 .rodata.__func__.7859
                0x0000000040279f2b        0xd drivers/built-in.o
 .rodata.__func__.7934
                0x0000000040279f38        0xe drivers/built-in.o
 .rodata.__func__.8070
                0x0000000040279f46        0xa drivers/built-in.o
 .rodata.__func__.8099
                0x0000000040279f50        0xb drivers/built-in.o
 .rodata.__func__.8117
                0x0000000040279f5b        0xa drivers/built-in.o
 .rodata.__func__.8129
                0x0000000040279f65        0xe drivers/built-in.o
 .rodata.__func__.8152
                0x0000000040279f73       0x1c fs/built-in.o
 .rodata.__func__.8812
                0x0000000040279f8f       0x12 drivers/net/phy/built-in.o
 .rodata.__func__.8924
                0x0000000040279fa1       0x16 drivers/built-in.o
 .rodata.__func__.8941
                0x0000000040279fb7        0xd drivers/built-in.o
 .rodata.__func__.8947
                0x0000000040279fc4       0x11 drivers/built-in.o
 .rodata.__func__.8951
                0x0000000040279fd5       0x18 drivers/built-in.o
 .rodata.__func__.8954
                0x0000000040279fed       0x16 drivers/built-in.o
 .rodata.__func__.8955
                0x000000004027a003       0x18 drivers/built-in.o
 .rodata.__func__.8959
                0x000000004027a01b        0xd drivers/built-in.o
 .rodata.__func__.8963
                0x000000004027a028       0x14 drivers/built-in.o
 .rodata.__func__.8967
                0x000000004027a03c       0x14 drivers/built-in.o
 .rodata.__func__.9013
                0x000000004027a050       0x10 drivers/built-in.o
 .rodata.__func__.9085
                0x000000004027a060       0x15 common/built-in.o
 .rodata.__func__.9108
                0x000000004027a075        0xd drivers/usb/gadget/built-in.o
 .rodata.__func__.9119
                0x000000004027a082        0xf lib/built-in.o
 .rodata.__func__.9136
                0x000000004027a091        0xe lib/built-in.o
 .rodata.__func__.9171
                0x000000004027a09f       0x1b lib/built-in.o
 .rodata.__func__.9189
                0x000000004027a0ba        0xc lib/built-in.o
 .rodata.__func__.9193
                0x000000004027a0c6        0xe common/built-in.o
 .rodata.__func__.9600
                0x000000004027a0d4       0x12 drivers/i2c/built-in.o
 .rodata.__func__.9634
                0x000000004027a0e6        0xd drivers/i2c/built-in.o
 .rodata.__func__.9643
                0x000000004027a0f3       0x16 drivers/built-in.o
 .rodata.__func__.9686
                0x000000004027a109        0xd drivers/i2c/built-in.o
 .rodata.__func__.9697
                0x000000004027a116       0x12 drivers/i2c/built-in.o
 .rodata.__func__.9704
                0x000000004027a128       0x17 drivers/usb/host/built-in.o
 .rodata.__func__.9765
                0x000000004027a13f        0xc lib/built-in.o
 .rodata.__of_translate_address.str1.1
                0x000000004027a14b       0x1b common/built-in.o
 .rodata._ctype
                0x000000004027a166      0x100 lib/built-in.o
                0x000000004027a166                _ctype
 .rodata._do_env_set.isra.0.str1.1
                0x000000004027a266       0x7c cmd/built-in.o
 .rodata._do_help.str1.1
                0x000000004027a2e2       0x5f common/built-in.o
 .rodata._ehci_create_int_queue.isra.0.str1.1
                0x000000004027a341       0x3d drivers/usb/host/built-in.o
 .rodata._ehci_destroy_int_queue.str1.1
                0x000000004027a37e       0x2d drivers/usb/host/built-in.o
 .rodata._fastboot_parts_load_from_ptable.str1.1
                0x000000004027a3ab       0xae drivers/built-in.o
                                         0xf5 (size before relaxing)
 .rodata._gpio_request_by_name_nodev.str1.1
                0x000000004027a459        0xc drivers/gpio/built-in.o
 .rodata.add_res_mem_dt_node.str1.1
                0x000000004027a465       0x48 arch/arm/mach-imx/built-in.o
                                         0x5a (size before relaxing)
 .rodata.android_image_check_header.str1.1
                0x000000004027a4ad        0x9 common/built-in.o
 .rodata.android_image_get_kernel.str1.1
                0x000000004027a4b6       0x77 common/built-in.o
                                         0x8c (size before relaxing)
 .rodata.android_image_get_ramdisk.str1.1
                0x000000004027a52d       0x27 common/built-in.o
 .rodata.android_image_get_second.str1.1
                0x000000004027a554       0x19 common/built-in.o
 .rodata.android_print_contents.str1.1
                0x000000004027a56d      0x1fe common/built-in.o
                                        0x202 (size before relaxing)
 .rodata.announce_dram_init.str1.1
                0x000000004027a76b        0x8 common/built-in.o
 .rodata.append_kernel_cmdline.str1.1
                0x000000004027a773      0x1a6 common/built-in.o
                                        0x1c1 (size before relaxing)
 .rodata.arch_auxiliary_core_up.str1.1
                0x000000004027a919       0x3b arch/arm/mach-imx/built-in.o
 .rodata.arch_cpu_init_dm.str1.1
                0x000000004027a954       0x48 arch/arm/mach-imx/built-in.o
 .rodata.arch_misc_init.str1.1
                0x000000004027a99c       0x5c arch/arm/mach-imx/built-in.o
 .rodata.arp_receive.str1.1
                0x000000004027a9f8       0x14 net/built-in.o
 .rodata.arp_request.str1.1
                0x000000004027aa0c       0x2a net/built-in.o
 .rodata.arp_timeout_check.str1.1
                0x000000004027aa36       0x2b net/built-in.o
 .rodata.autoboot_command.str1.1
                0x000000004027aa61       0x31 common/built-in.o
 .rodata.b_addqchr.str1.1
                0x000000004027aa92        0x5 common/built-in.o
 .rodata.binary_test.str1.1
                0x000000004027aa97       0x17 cmd/built-in.o
 .rodata.blk_common_cmd.str1.1
                0x000000004027aaae      0x10c cmd/built-in.o
                                        0x123 (size before relaxing)
 .rodata.blk_create_devicef.str1.1
                0x000000004027abba        0x6 drivers/built-in.o
 .rodata.blk_get_device_by_str.str1.1
                0x000000004027abc0       0x52 disk/built-in.o
 .rodata.blk_get_device_part_str.str1.1
                0x000000004027ac12       0xe1 disk/built-in.o
                                        0x109 (size before relaxing)
 .rodata.blk_list_devices.str1.1
                0x000000004027acf3       0x58 drivers/built-in.o
                                          0xc (size before relaxing)
 .rodata.blk_print_device_num.str1.1
                0x000000004027acf3       0x11 drivers/built-in.o
 .rodata.blk_show_device.str1.1
                0x000000004027ad04       0x1d drivers/built-in.o
 .rodata.blkc_configure.str1.1
                0x000000004027ad21       0x30 cmd/built-in.o
 .rodata.blkc_show.str1.1
                0x000000004027ad51       0x4c cmd/built-in.o
 .rodata.board_fastboot_setup.str1.1
                0x000000004027ad9d       0xba drivers/built-in.o
                                         0xe3 (size before relaxing)
 .rodata.board_init_f.str1.1
                0x000000004027ae57       0x31 common/built-in.o
 .rodata.board_init_r.str1.1
                0x000000004027ae88       0x31 common/built-in.o
 .rodata.board_late_init.str1.1
                0x000000004027ae88       0x9f board/variscite/imx8mm_var_dart/built-in.o
                                         0xb1 (size before relaxing)
 .rodata.board_late_mmc_env_init.str1.1
                0x000000004027af27       0x24 board/variscite/imx8mm_var_dart/built-in.o
                                         0x2b (size before relaxing)
 .rodata.boot_fdt_add_mem_rsv_regions.str1.1
                0x000000004027af4b       0x14 common/built-in.o
 .rodata.boot_fdt_reserve_region.str1.1
                0x000000004027af4b       0x42 common/built-in.o
 .rodata.boot_get_fdt.str1.1
                0x000000004027af8d      0x1b5 common/built-in.o
                                        0x1dc (size before relaxing)
 .rodata.boot_get_fdt_fit.str1.1
                0x000000004027b142       0x4f common/built-in.o
 .rodata.boot_get_loadable.str1.1
                0x000000004027b191       0x3e common/built-in.o
 .rodata.boot_get_ramdisk.str1.1
                0x000000004027b1cf       0xb7 common/built-in.o
                                        0x11e (size before relaxing)
 .rodata.boot_get_setup_fit.str1.1
                0x000000004027b286      0x22d common/built-in.o
                                          0x6 (size before relaxing)
 .rodata.boot_jump_linux.str1.1
                0x000000004027b286       0x30 arch/arm/lib/built-in.o
                                         0x31 (size before relaxing)
 .rodata.boot_prep_linux.str1.1
                0x000000004027b2b6       0x20 arch/arm/lib/built-in.o
                                         0x29 (size before relaxing)
 .rodata.boot_prep_vxworks.str1.1
                0x000000004027b2d6       0x2a arch/arm/lib/built-in.o
 .rodata.boot_ramdisk_high.str1.1
                0x000000004027b300       0x54 common/built-in.o
 .rodata.boot_relocate_fdt.str1.1
                0x000000004027b354       0xcf common/built-in.o
                                         0xd3 (size before relaxing)
 .rodata.bootdelay_process.str1.1
                0x000000004027b423       0xd1 common/built-in.o
                                         0xd9 (size before relaxing)
 .rodata.booti_setup.str1.1
                0x000000004027b4f4       0x4c arch/arm/lib/built-in.o
 .rodata.bootloader_mmc_offset.str1.1
                0x000000004027b540        0x9 drivers/built-in.o
 .rodata.bootm_find_images.str1.1
                0x000000004027b549       0x6c common/built-in.o
 .rodata.bootm_maybe_autostart.str1.1
                0x000000004027b5b5       0x37 cmd/built-in.o
                                         0x3b (size before relaxing)
 .rodata.bootp_request.str1.1
                0x000000004027b5ec       0x25 net/built-in.o
 .rodata.bootp_timeout_handler.str1.1
                0x000000004027b611       0x26 net/built-in.o
 .rodata.calc_parts_list_len.str1.1
                0x000000004027b637       0x2e cmd/built-in.o
 .rodata.calculate_hash.str1.1
                0x000000004027b665        0x4 common/built-in.o
                                         0x16 (size before relaxing)
 .rodata.check_and_invalidate_dcache_range.isra.0.str1.1
                0x000000004027b669       0x1f drivers/built-in.o
 .rodata.check_command.isra.0.str1.1
                0x000000004027b688        0x9 drivers/usb/gadget/built-in.o
 .rodata.check_reserved.str1.1
                0x000000004027b691       0x27 drivers/gpio/built-in.o
                                         0x28 (size before relaxing)
 .rodata.ci_ep_queue.str1.1
                0x000000004027b6b8       0x29 drivers/usb/gadget/built-in.o
 .rodata.ci_udc_otg_ofdata_to_platdata.str1.1
                0x000000004027b6e1        0xd drivers/usb/gadget/built-in.o
 .rodata.ci_udc_otg_probe.str1.1
                0x000000004027b6ee       0x60 drivers/usb/gadget/built-in.o
                                         0x6c (size before relaxing)
 .rodata.cli_process_fdt.str1.1
                0x000000004027b74e        0xb common/built-in.o
                                         0x13 (size before relaxing)
 .rodata.cli_readline_into_buffer.str1.1
                0x000000004027b759        0x4 common/built-in.o
                                          0x8 (size before relaxing)
 .rodata.cli_secure_boot_cmd.str1.1
                0x000000004027b75d       0x50 common/built-in.o
 .rodata.clk_disable.str1.1
                0x000000004027b7ad       0x2c drivers/built-in.o
 .rodata.clk_enable.str1.1
                0x000000004027b7d9       0x12 drivers/built-in.o
 .rodata.clk_fixed_factor_ofdata_to_platdata.str1.1
                0x000000004027b7eb       0x15 drivers/built-in.o
 .rodata.clk_fixed_rate_ofdata_to_platdata.str1.1
                0x000000004027b800       0x10 drivers/built-in.o
 .rodata.clk_get_by_index.str1.1
                0x000000004027b810        0xd drivers/built-in.o
                                         0x14 (size before relaxing)
 .rodata.clk_get_by_name.str1.1
                0x000000004027b81d        0xc drivers/built-in.o
 .rodata.clk_hw_register_fixed_factor.str1.1
                0x000000004027b829       0x15 drivers/built-in.o
 .rodata.clk_hw_register_mux_table.str1.1
                0x000000004027b83e       0x2c drivers/built-in.o
 .rodata.clk_mux_set_parent.str1.1
                0x000000004027b86a       0x17 drivers/built-in.o
 .rodata.clk_pll1416x_set_rate.str1.1
                0x000000004027b881        0x5 drivers/built-in.o
 .rodata.clk_pll1443x_set_rate.str1.1
                0x000000004027b886       0x2b drivers/built-in.o
 .rodata.clk_register.str1.1
                0x000000004027b8b1       0x68 drivers/built-in.o
 .rodata.clk_register_composite.str1.1
                0x000000004027b919        0xe drivers/built-in.o
 .rodata.clk_register_divider.str1.1
                0x000000004027b927       0x10 drivers/built-in.o
 .rodata.clk_register_gate.str1.1
                0x000000004027b937       0x28 drivers/built-in.o
 .rodata.clk_register_gate2.str1.1
                0x000000004027b95f        0xe drivers/built-in.o
 .rodata.clk_set_defaults.str1.1
                0x000000004027b96d       0x3c drivers/built-in.o
 .rodata.cmd_auto_complete.str1.1
                0x000000004027b9a9       0x5f common/built-in.o
                                         0x11 (size before relaxing)
 .rodata.cmd_process.str1.1
                0x000000004027b9a9       0x48 common/built-in.o
 .rodata.cmd_process_error.str1.1
                0x000000004027b9f1       0x1f common/built-in.o
 .rodata.cmd_usage.str1.1
                0x000000004027ba10       0x36 common/built-in.o
 .rodata.common_diskboot.str1.1
                0x000000004027ba46       0xbf cmd/built-in.o
 .rodata.compile.str1.1
                0x000000004027bb05       0x4a lib/built-in.o
 .rodata.complete_subcmdv.str1.1
                0x000000004027bb4f       0x5f common/built-in.o
                                          0x4 (size before relaxing)
 .rodata.composite_unbind.str1.1
                0x000000004027bb4f        0xe drivers/usb/gadget/built-in.o
                                         0x10 (size before relaxing)
 .rodata.confirm_yesno.str1.1
                0x000000004027bb5d       0x10 common/built-in.o
 .rodata.console_announce_r.str1.1
                0x000000004027bb6d        0x7 common/built-in.o
 .rodata.constraint.str1.1
                0x000000004027bb6d       0x14 cmd/built-in.o
                                         0x23 (size before relaxing)
 .rodata.count_ext_compat.str1.1
                0x000000004027bb81       0x38 drivers/usb/gadget/built-in.o
 .rodata.cread_add_char.str1.1
                0x000000004027bbb9        0x5 common/built-in.o
 .rodata.create_gpt_partitions_list.isra.0.str1.1
                0x000000004027bbbe       0x28 cmd/built-in.o
                                         0x2a (size before relaxing)
 .rodata.create_table.str1.1
                0x000000004027bbe6       0x62 arch/arm/cpu/armv8/built-in.o
 .rodata.curr_dev_and_platdata.str1.1
                0x000000004027bc48       0x76 cmd/built-in.o
 .rodata.decode_fracpll.str1.1
                0x000000004027bcbe        0xf arch/arm/mach-imx/built-in.o
 .rodata.decode_intpll.str1.1
                0x000000004027bccd       0x10 arch/arm/mach-imx/built-in.o
 .rodata.default_environment
                0x000000004027bcdd      0xc38 env/built-in.o
                0x000000004027bcdd                default_environment
 .rodata.dev_get_platdata.str1.1
                0x000000004027c915       0x11 drivers/built-in.o
 .rodata.dev_print.str1.1
                0x000000004027c926      0x165 disk/built-in.o
                                        0x176 (size before relaxing)
 .rodata.devfdt_get_addr_index.str1.1
                0x000000004027ca8b        0x4 drivers/built-in.o
 .rodata.device_bind_common.isra.0.str1.1
                0x000000004027ca8b       0x5b drivers/built-in.o
 .rodata.device_probe.str1.1
                0x000000004027cae6       0x30 drivers/built-in.o
                                         0x38 (size before relaxing)
 .rodata.device_remove.str1.1
                0x000000004027cb16       0x98 drivers/built-in.o
 .rodata.dhcp_extended.str1.1
                0x000000004027cbae       0x3f net/built-in.o
 .rodata.dhcp_handler.str1.1
                0x000000004027cbed       0x41 net/built-in.o
                                         0x4a (size before relaxing)
 .rodata.dhcp_process_options.str1.1
                0x000000004027cc2e       0x78 net/built-in.o
 .rodata.digits.9182
                0x000000004027cca6       0x10 lib/built-in.o
 .rodata.dirletter.9430
                0x000000004027ccb6        0x4 drivers/usb/gadget/built-in.o
 .rodata.disable_cpu_nodes.str1.1
                0x000000004027ccba       0x56 arch/arm/mach-imx/built-in.o
 .rodata.disable_fdt_nodes.str1.1
                0x000000004027cd10       0x58 arch/arm/mach-imx/built-in.o
                                         0x5f (size before relaxing)
 .rodata.disable_periodic.isra.0.str1.1
                0x000000004027cd68       0x33 drivers/usb/host/built-in.o
 .rodata.disable_vpu_nodes.str1.1
                0x000000004027cd9b       0x5d arch/arm/mach-imx/built-in.o
                                         0x6b (size before relaxing)
 .rodata.disk_write.str1.1
                0x000000004027cdf8       0x18 fs/built-in.o
 .rodata.display_options.str1.1
                0x000000004027cdf8        0x3 lib/built-in.o
 .rodata.display_options_get_banner_priv.str1.1
                0x000000004027cdf8        0xc lib/built-in.o
                                         0x15 (size before relaxing)
 .rodata.divider_recalc_rate.str1.1
                0x000000004027ce04       0x35 drivers/built-in.o
 .rodata.dm_dump_all.str1.1
                0x000000004027ce39       0x73 drivers/built-in.o
 .rodata.dm_dump_drivers.str1.1
                0x000000004027ceac       0x39 drivers/built-in.o
                                         0x61 (size before relaxing)
 .rodata.dm_dump_uclass.str1.1
                0x000000004027cee5       0x35 drivers/built-in.o
                                         0x37 (size before relaxing)
 .rodata.dm_extended_scan_fdt.str1.1
                0x000000004027cf1a        0x8 drivers/built-in.o
                                         0x12 (size before relaxing)
 .rodata.dm_gpio_get_value.str1.1
                0x000000004027cf22        0xa drivers/gpio/built-in.o
 .rodata.dm_gpio_set_dir_flags.str1.1
                0x000000004027cf2c        0x8 drivers/gpio/built-in.o
 .rodata.dm_gpio_set_value.str1.1
                0x000000004027cf34        0xa drivers/gpio/built-in.o
 .rodata.dm_init.str1.1
                0x000000004027cf3e       0x25 drivers/built-in.o
 .rodata.dm_ofnode_pre_reloc.str1.1
                0x000000004027cf63       0x45 drivers/built-in.o
 .rodata.dm_root.str1.1
                0x000000004027cfa8       0x25 drivers/built-in.o
 .rodata.dm_scan_fdt_node.str1.1
                0x000000004027cfcd       0x1d drivers/built-in.o
                                         0x2d (size before relaxing)
 .rodata.dm_scan_platdata.str1.1
                0x000000004027cfea       0x1d drivers/built-in.o
 .rodata.do_bad_error.str1.1
                0x000000004027d007       0x29 arch/arm/lib/built-in.o
 .rodata.do_bad_fiq.str1.1
                0x000000004027d030       0x27 arch/arm/lib/built-in.o
 .rodata.do_bad_irq.str1.1
                0x000000004027d057       0x27 arch/arm/lib/built-in.o
 .rodata.do_bad_sync.str1.1
                0x000000004027d07e       0x48 arch/arm/lib/built-in.o
 .rodata.do_bdinfo.str1.1
                0x000000004027d0c6       0x9e cmd/built-in.o
 .rodata.do_bootaux.str1.1
                0x000000004027d164       0x21 arch/arm/mach-imx/built-in.o
 .rodata.do_bootd.str1.1
                0x000000004027d185       0x2a cmd/built-in.o
                                          0x8 (size before relaxing)
 .rodata.do_bootefi.str1.1
                0x000000004027d185       0x6d cmd/built-in.o
 .rodata.do_bootefi_exec.str1.1
                0x000000004027d1f2       0x42 cmd/built-in.o
                                         0x4b (size before relaxing)
 .rodata.do_bootelf.str1.1
                0x000000004027d234       0x4f cmd/built-in.o
                                         0x5c (size before relaxing)
 .rodata.do_bootm.str1.1
                0x000000004027d283       0x2a cmd/built-in.o
 .rodata.do_bootm_efi.str1.1
                0x000000004027d2ad       0xb9 common/built-in.o
 .rodata.do_bootm_netbsd.str1.1
                0x000000004027d366       0x49 common/built-in.o
                                         0x4a (size before relaxing)
 .rodata.do_bootm_plan9.str1.1
                0x000000004027d3af       0x43 common/built-in.o
 .rodata.do_bootm_qnxelf.str1.1
                0x000000004027d3f2        0x4 common/built-in.o
 .rodata.do_bootm_rtems.str1.1
                0x000000004027d3f2       0x39 common/built-in.o
 .rodata.do_bootm_standalone.str1.1
                0x000000004027d42b       0x16 common/built-in.o
 .rodata.do_bootm_states.str1.1
                0x000000004027d42b      0x316 common/built-in.o
                                        0x392 (size before relaxing)
 .rodata.do_bootm_vxworks.str1.1
                0x000000004027d741       0x93 common/built-in.o
                                         0xba (size before relaxing)
 .rodata.do_bootvx.str1.1
                0x000000004027d7d4      0x1b8 cmd/built-in.o
                                        0x1d0 (size before relaxing)
 .rodata.do_clk_dump.str1.1
                0x000000004027d98c       0x15 cmd/built-in.o
 .rodata.do_coninfo.str1.1
                0x000000004027d9a1       0x2c cmd/built-in.o
                                         0x30 (size before relaxing)
 .rodata.do_current.str1.1
                0x000000004027d9cd       0x84 cmd/built-in.o
 .rodata.do_dcache.str1.1
                0x000000004027da51       0x21 cmd/built-in.o
 .rodata.do_dev.str1.1
                0x000000004027da72       0xbb cmd/built-in.o
 .rodata.do_disable.str1.1
                0x000000004027db2d       0x20 cmd/built-in.o
 .rodata.do_echo.str1.1
                0x000000004027db4d        0x3 cmd/built-in.o
 .rodata.do_enable.str1.1
                0x000000004027db50       0x1f cmd/built-in.o
 .rodata.do_env_default.str1.1
                0x000000004027db6f       0x25 cmd/built-in.o
 .rodata.do_env_edit.part.0.str1.1
                0x000000004027db94        0x7 cmd/built-in.o
                                          0xa (size before relaxing)
 .rodata.do_env_export.str1.1
                0x000000004027db9b       0x6b cmd/built-in.o
                                         0x74 (size before relaxing)
 .rodata.do_env_import.str1.1
                0x000000004027dc06      0x139 cmd/built-in.o
                                        0x13b (size before relaxing)
 .rodata.do_env_print.str1.1
                0x000000004027dd3f       0x3d cmd/built-in.o
 .rodata.do_error.str1.1
                0x000000004027dd7c       0x29 arch/arm/lib/built-in.o
                                         0x1d (size before relaxing)
 .rodata.do_fastboot.str1.1
                0x000000004027dd7c       0xc2 cmd/built-in.o
                                         0xc6 (size before relaxing)
 .rodata.do_fat_fsinfo.str1.1
                0x000000004027de3e       0x56 cmd/built-in.o
 .rodata.do_fat_fswrite.str1.1
                0x000000004027de94       0x6b cmd/built-in.o
 .rodata.do_fdt.str1.1
                0x000000004027deff      0x488 cmd/built-in.o
                                        0x4eb (size before relaxing)
 .rodata.do_fiq.str1.1
                0x000000004027e387       0x29 arch/arm/lib/built-in.o
                                         0x1b (size before relaxing)
 .rodata.do_fixup_by_path.str1.1
                0x000000004027e387       0x29 common/built-in.o
 .rodata.do_fs_uuid.str1.1
                0x000000004027e387        0x4 fs/built-in.o
 .rodata.do_fuse.str1.1
                0x000000004027e387      0x198 cmd/built-in.o
                                        0x1a4 (size before relaxing)
 .rodata.do_go.str1.1
                0x000000004027e51f       0x4f cmd/built-in.o
 .rodata.do_gpio.str1.1
                0x000000004027e56e       0xc4 cmd/built-in.o
                                         0xd2 (size before relaxing)
 .rodata.do_gpt.str1.1
                0x000000004027e632      0x1ad cmd/built-in.o
                                        0x1cb (size before relaxing)
 .rodata.do_i2c_bus_num.str1.1
                0x000000004027e7df       0x48 cmd/built-in.o
 .rodata.do_i2c_bus_speed.str1.1
                0x000000004027e827       0x53 cmd/built-in.o
 .rodata.do_i2c_crc.str1.1
                0x000000004027e87a       0x1f cmd/built-in.o
                                         0x26 (size before relaxing)
 .rodata.do_i2c_md.str1.1
                0x000000004027e899        0xc cmd/built-in.o
                                         0x16 (size before relaxing)
 .rodata.do_i2c_olen.str1.1
                0x000000004027e8a5       0x1f cmd/built-in.o
                                         0x23 (size before relaxing)
 .rodata.do_i2c_probe.str1.1
                0x000000004027e8c4       0x1c cmd/built-in.o
 .rodata.do_i2c_reset.str1.1
                0x000000004027e8e0       0x24 cmd/built-in.o
 .rodata.do_i2c_show_bus.str1.1
                0x000000004027e904       0x18 cmd/built-in.o
 .rodata.do_i2c_write.str1.1
                0x000000004027e91c        0x3 cmd/built-in.o
 .rodata.do_icache.str1.1
                0x000000004027e91f       0x1d cmd/built-in.o
                                         0x20 (size before relaxing)
 .rodata.do_imgextract.str1.1
                0x000000004027e93c      0x1af cmd/built-in.o
                                        0x296 (size before relaxing)
 .rodata.do_info.str1.1
                0x000000004027eaeb       0xee cmd/built-in.o
                                         0xf9 (size before relaxing)
 .rodata.do_irq.str1.1
                0x000000004027ebd9       0x29 arch/arm/lib/built-in.o
                                         0x1b (size before relaxing)
 .rodata.do_itest.str1.1
                0x000000004027ebd9       0x1e cmd/built-in.o
 .rodata.do_list.str1.1
                0x000000004027ebf7       0x33 cmd/built-in.o
                                         0x5e (size before relaxing)
 .rodata.do_load.str1.1
                0x000000004027ec2a       0x39 fs/built-in.o
                                         0x5c (size before relaxing)
 .rodata.do_load_serial.str1.1
                0x000000004027ec63       0x6b cmd/built-in.o
 .rodata.do_load_serial_bin.str1.1
                0x000000004027ecce      0x159 cmd/built-in.o
 .rodata.do_ls.str1.1
                0x000000004027ee27        0x2 fs/built-in.o
 .rodata.do_lzmadec.str1.1
                0x000000004027ee27       0x1f cmd/built-in.o
                                         0x28 (size before relaxing)
 .rodata.do_mdio.str1.1
                0x000000004027ee46       0x78 cmd/built-in.o
 .rodata.do_mem_base.str1.1
                0x000000004027eebe       0x17 cmd/built-in.o
 .rodata.do_mem_cmp.str1.1
                0x000000004027eed5       0x6a cmd/built-in.o
                                         0x6f (size before relaxing)
 .rodata.do_mem_cp.str1.1
                0x000000004027ef3f       0x11 cmd/built-in.o
 .rodata.do_mem_crc.str1.1
                0x000000004027ef50        0x6 cmd/built-in.o
 .rodata.do_mem_mtest.str1.1
                0x000000004027ef50       0xd4 cmd/built-in.o
                                         0xd5 (size before relaxing)
 .rodata.do_mii.str1.1
                0x000000004027f024      0x22e cmd/built-in.o
                                        0x24a (size before relaxing)
 .rodata.do_mkdir.str1.1
                0x000000004027f252       0x29 fs/built-in.o
 .rodata.do_mmc_boot_resize.str1.1
                0x000000004027f27b       0x83 cmd/built-in.o
 .rodata.do_mmc_bootbus.str1.1
                0x000000004027f2fe       0x24 cmd/built-in.o
 .rodata.do_mmc_dev.str1.1
                0x000000004027f322       0x80 cmd/built-in.o
                                         0x89 (size before relaxing)
 .rodata.do_mmc_erase.str1.1
                0x000000004027f3a2       0x67 cmd/built-in.o
 .rodata.do_mmc_hwpartition.str1.1
                0x000000004027f409      0x126 cmd/built-in.o
                                        0x142 (size before relaxing)
 .rodata.do_mmc_part.str1.1
                0x000000004027f52f       0x15 cmd/built-in.o
 .rodata.do_mmc_partconf.str1.1
                0x000000004027f544       0xac cmd/built-in.o
 .rodata.do_mmc_read.str1.1
                0x000000004027f5f0       0x43 cmd/built-in.o
 .rodata.do_mmc_rst_func.str1.1
                0x000000004027f633       0x40 cmd/built-in.o
 .rodata.do_mmc_setdsr.str1.1
                0x000000004027f673       0x1d cmd/built-in.o
 .rodata.do_mmc_write.str1.1
                0x000000004027f690       0x47 cmd/built-in.o
 .rodata.do_mmcinfo.str1.1
                0x000000004027f6d7      0x134 cmd/built-in.o
                                        0x186 (size before relaxing)
 .rodata.do_mmcops.str1.1
                0x000000004027f80b       0x19 cmd/built-in.o
 .rodata.do_mode.str1.1
                0x000000004027f824       0x6b cmd/built-in.o
 .rodata.do_mscale_showclocks.str1.1
                0x000000004027f88f      0x230 arch/arm/mach-imx/built-in.o
 .rodata.do_ping.str1.1
                0x000000004027fabf       0x35 cmd/built-in.o
 .rodata.do_random.str1.1
                0x000000004027faf4       0x6d cmd/built-in.o
 .rodata.do_raw_read.str1.1
                0x000000004027fb61       0x5c cmd/built-in.o
                                         0x7e (size before relaxing)
 .rodata.do_reset.str1.1
                0x000000004027fbbd        0xf drivers/built-in.o
 .rodata.do_run.str1.1
                0x000000004027fbcc       0x1c common/built-in.o
 .rodata.do_save.str1.1
                0x000000004027fbcc       0x1d fs/built-in.o
 .rodata.do_setexpr.str1.1
                0x000000004027fbe9       0x11 cmd/built-in.o
                                         0x15 (size before relaxing)
 .rodata.do_showvar.str1.1
                0x000000004027fbfa        0xc common/built-in.o
                                         0x2f (size before relaxing)
 .rodata.do_size.str1.1
                0x000000004027fc06        0x9 fs/built-in.o
 .rodata.do_source.str1.1
                0x000000004027fc06       0x1e cmd/built-in.o
 .rodata.do_status.str1.1
                0x000000004027fc24       0xc1 cmd/built-in.o
                                         0xfa (size before relaxing)
 .rodata.do_sync.str1.1
                0x000000004027fce5       0x29 arch/arm/lib/built-in.o
 .rodata.do_unzip.str1.1
                0x000000004027fce5       0x20 cmd/built-in.o
                                         0x29 (size before relaxing)
 .rodata.do_usb.str1.1
                0x000000004027fd05      0x279 cmd/built-in.o
                                        0x293 (size before relaxing)
 .rodata.do_usb_mass_storage.str1.1
                0x000000004027ff7e      0x123 cmd/built-in.o
                                        0x151 (size before relaxing)
 .rodata.do_usbboot.str1.1
                0x00000000402800a1      0x10d cmd/built-in.o
                                          0x4 (size before relaxing)
 .rodata.do_value.str1.1
                0x00000000402800a1       0x88 cmd/built-in.o
                                         0x8f (size before relaxing)
 .rodata.do_version.str1.1
                0x0000000040280129       0x4b cmd/built-in.o
 .rodata.do_write.str1.1
                0x0000000040280174       0x18 drivers/usb/gadget/built-in.o
 .rodata.download.str1.1
                0x000000004028018c       0x5b drivers/built-in.o
                                         0x5e (size before relaxing)
 .rodata.dp_unknown.str1.1
                0x00000000402801e7       0x13 lib/built-in.o
 .rodata.dump_field.str1.1
                0x00000000402801fa       0x1b cmd/built-in.o
 .rodata.efi_bl_bind.str1.1
                0x0000000040280215       0x12 lib/built-in.o
 .rodata.efi_bootmgr_load.str1.1
                0x0000000040280227       0x8b lib/built-in.o
 .rodata.efi_console_register.str1.1
                0x00000000402802b2       0x9b lib/built-in.o
                                         0xb8 (size before relaxing)
 .rodata.efi_convert_single_device_node_to_text.str1.1
                0x000000004028034d      0x122 lib/built-in.o
                                        0x13b (size before relaxing)
 .rodata.efi_cout_clear_screen.str1.1
                0x000000004028046f        0xb lib/built-in.o
 .rodata.efi_cout_enable_cursor.str1.1
                0x000000004028047a        0x8 lib/built-in.o
 .rodata.efi_cout_set_attribute.str1.1
                0x0000000040280482       0x17 lib/built-in.o
 .rodata.efi_cout_set_cursor_position.str1.1
                0x0000000040280499        0x9 lib/built-in.o
 .rodata.efi_disk_create_partitions.str1.1
                0x00000000402804a2       0x22 lib/built-in.o
 .rodata.efi_disk_register.str1.1
                0x00000000402804c4       0x67 lib/built-in.o
 .rodata.efi_dp_from_name.str1.1
                0x000000004028052b        0x4 lib/built-in.o
                                          0x7 (size before relaxing)
 .rodata.efi_driver_init.str1.1
                0x000000004028052f       0x58 lib/built-in.o
 .rodata.efi_exit.str1.1
                0x0000000040280587       0x17 lib/built-in.o
 .rodata.efi_file_from_path.str1.1
                0x000000004028059e       0x10 lib/built-in.o
 .rodata.efi_free_pages.str1.1
                0x00000000402805ae       0x20 lib/built-in.o
 .rodata.efi_free_pool.str1.1
                0x00000000402805ce       0x17 lib/built-in.o
 .rodata.efi_get_next_variable_name.str1.1
                0x00000000402805e5       0x16 lib/built-in.o
 .rodata.efi_get_variable.str1.1
                0x00000000402805fb        0x7 lib/built-in.o
                                          0xe (size before relaxing)
 .rodata.efi_init_obj_list.str1.1
                0x0000000040280602       0x39 lib/built-in.o
 .rodata.efi_install_fdt.str1.1
                0x000000004028063b      0x104 cmd/built-in.o
                                        0x118 (size before relaxing)
 .rodata.efi_load_pe.str1.1
                0x000000004028073f       0xca lib/built-in.o
 .rodata.efi_net_register.str1.1
                0x0000000040280809       0x6d lib/built-in.o
                                         0x83 (size before relaxing)
 .rodata.efi_print_image_infos.str1.1
                0x0000000040280876       0x29 lib/built-in.o
                                         0x2b (size before relaxing)
 .rodata.efi_reserve_memory.str1.1
                0x000000004028089f       0x34 cmd/built-in.o
 .rodata.efi_reset_system_init.str1.1
                0x00000000402808d3       0x1a drivers/built-in.o
                                          0x5 (size before relaxing)
 .rodata.efi_root_node_register.str1.1
                0x00000000402808d3       0x11 lib/built-in.o
 .rodata.efi_set_code_and_data_type.str1.1
                0x00000000402808e4       0x1c lib/built-in.o
 .rodata.efi_set_variable.str1.1
                0x0000000040280900       0x17 lib/built-in.o
                                         0x1d (size before relaxing)
 .rodata.efi_setup_loaded_image.str1.1
                0x0000000040280917       0x36 lib/built-in.o
 .rodata.efi_to_native.str1.1
                0x000000004028094d       0x34 lib/built-in.o
 .rodata.efi_uc_destroy.str1.1
                0x0000000040280981       0x18 lib/built-in.o
 .rodata.efi_uc_init.str1.1
                0x0000000040280999       0x1e lib/built-in.o
 .rodata.efi_uc_stop.str1.1
                0x00000000402809b7       0x1d lib/built-in.o
 .rodata.efi_watchdog_register.str1.1
                0x00000000402809d4       0x4f lib/built-in.o
 .rodata.efi_watchdog_timer_notify.str1.1
                0x0000000040280a23       0x18 lib/built-in.o
 .rodata.ehci_disable_async.part.0.str1.1
                0x0000000040280a3b       0x21 drivers/usb/host/built-in.o
 .rodata.ehci_register.str1.1
                0x0000000040280a5c       0x26 drivers/usb/host/built-in.o
 .rodata.ehci_shutdown.str1.1
                0x0000000040280a82       0x2b drivers/usb/host/built-in.o
 .rodata.ehci_submit_async.str1.1
                0x0000000040280aad       0x94 drivers/usb/host/built-in.o
 .rodata.ehci_submit_control_msg.str1.1
                0x0000000040280b41       0x16 drivers/usb/host/built-in.o
 .rodata.ehci_submit_int_msg.str1.1
                0x0000000040280b57       0x24 drivers/usb/host/built-in.o
 .rodata.ehci_td_buffer.str1.1
                0x0000000040280b7b       0x29 drivers/usb/host/built-in.o
 .rodata.ehci_usb_ofdata_to_platdata.str1.1
                0x0000000040280ba4        0x7 drivers/usb/host/built-in.o
 .rodata.ehci_usb_probe.str1.1
                0x0000000040280bab        0xc drivers/usb/host/built-in.o
                                         0x1b (size before relaxing)
 .rodata.emit.str1.1
                0x0000000040280bb7       0x1f lib/built-in.o
 .rodata.enable_periodic.isra.0.str1.1
                0x0000000040280bd6       0x32 drivers/usb/host/built-in.o
 .rodata.env_callback_init.str1.1
                0x0000000040280c08        0xb env/built-in.o
 .rodata.env_complete.str1.1
                0x0000000040280c13        0x7 env/built-in.o
                                         0x10 (size before relaxing)
 .rodata.env_export.str1.1
                0x0000000040280c1a       0x3d env/built-in.o
                                         0x27 (size before relaxing)
 .rodata.env_flags_init.str1.1
                0x0000000040280c1a        0x7 env/built-in.o
 .rodata.env_flags_parse_varaccess.str1.1
                0x0000000040280c21       0x3d env/built-in.o
 .rodata.env_flags_parse_vartype.str1.1
                0x0000000040280c5e       0x34 env/built-in.o
 .rodata.env_flags_validate.str1.1
                0x0000000040280c92       0xb2 env/built-in.o
                                         0xb3 (size before relaxing)
 .rodata.env_flags_varaccess_rep
                0x0000000040280d44        0x5 env/built-in.o
 .rodata.env_flags_vartype_rep
                0x0000000040280d49        0x7 env/built-in.o
 .rodata.env_get_bootm_low.str1.1
                0x0000000040280d50        0xa common/built-in.o
 .rodata.env_get_bootm_mapsize.str1.1
                0x0000000040280d5a        0xe common/built-in.o
 .rodata.env_get_bootm_size.str1.1
                0x0000000040280d68        0xb common/built-in.o
 .rodata.env_get_f.str1.1
                0x0000000040280d73       0x30 cmd/built-in.o
 .rodata.env_import.str1.1
                0x0000000040280da3       0x3d env/built-in.o
 .rodata.env_load.str1.1
                0x0000000040280de0       0x20 env/built-in.o
                                         0x24 (size before relaxing)
 .rodata.env_mmc_load.str1.1
                0x0000000040280e00        0xd env/built-in.o
 .rodata.env_mmc_save.str1.1
                0x0000000040280e0d       0x3b env/built-in.o
                                         0x48 (size before relaxing)
 .rodata.env_print.str1.1
                0x0000000040280e48       0x25 cmd/built-in.o
                                         0x2c (size before relaxing)
 .rodata.env_save.str1.1
                0x0000000040280e6d       0x2a env/built-in.o
 .rodata.env_set.str1.1
                0x0000000040280e97        0x7 cmd/built-in.o
 .rodata.env_set_default.str1.1
                0x0000000040280e9e       0x2e env/built-in.o
                                         0x5f (size before relaxing)
 .rodata.env_set_hex.str1.1
                0x0000000040280ecc        0x4 cmd/built-in.o
 .rodata.erase_seq
                0x0000000040280ed0        0x4 common/built-in.o
 .rodata.error_message
                0x0000000040280ed4        0x1 cmd/built-in.o
 .rodata.eth_current_changed.str1.1
                0x0000000040280ed5       0x14 net/built-in.o
 .rodata.eth_env_get_enetaddr_by_index.str1.1
                0x0000000040280ed5       0x10 net/built-in.o
 .rodata.eth_env_set_enetaddr.str1.1
                0x0000000040280ee5        0x4 cmd/built-in.o
 .rodata.eth_get_name.str1.1
                0x0000000040280ee9        0x8 net/built-in.o
 .rodata.eth_init.str1.1
                0x0000000040280ee9       0x11 net/built-in.o
                                         0x28 (size before relaxing)
 .rodata.eth_initialize.str1.1
                0x0000000040280efa       0x1c net/built-in.o
                                         0x1f (size before relaxing)
 .rodata.eth_mac_skip.str1.1
                0x0000000040280f16       0x18 net/built-in.o
 .rodata.eth_post_bind.str1.1
                0x0000000040280f2e       0x2b net/built-in.o
 .rodata.eth_post_probe.str1.1
                0x0000000040280f59       0xcb net/built-in.o
                                         0xe9 (size before relaxing)
 .rodata.eth_set_current.str1.1
                0x0000000040281024        0x9 net/built-in.o
 .rodata.eth_write_hwaddr.str1.1
                0x0000000040281024       0x4e net/built-in.o
 .rodata.ext4_read_file.str1.1
                0x0000000040281072       0x19 fs/built-in.o
 .rodata.ext4_write_file.str1.1
                0x000000004028108b       0x42 fs/built-in.o
 .rodata.ext4fs_allocate_blocks.str1.1
                0x00000000402810cd       0x23 fs/built-in.o
 .rodata.ext4fs_check_journal_state.str1.1
                0x00000000402810f0       0x2e fs/built-in.o
 .rodata.ext4fs_filename_unlink.str1.1
                0x000000004028111e       0x16 fs/built-in.o
 .rodata.ext4fs_get_bgdtable.str1.1
                0x0000000040281134       0x19 fs/built-in.o
 .rodata.ext4fs_get_parent_inode_num.str1.1
                0x000000004028114d       0x3e fs/built-in.o
                                         0x40 (size before relaxing)
 .rodata.ext4fs_init.str1.1
                0x000000004028118b       0x33 fs/built-in.o
 .rodata.ext4fs_iterate_dir.str1.1
                0x00000000402811be       0x43 fs/built-in.o
                                         0x4a (size before relaxing)
 .rodata.ext4fs_log_journal.str1.1
                0x0000000040281201       0x1c fs/built-in.o
 .rodata.ext4fs_ls.str1.1
                0x000000004028121d       0x1f fs/built-in.o
 .rodata.ext4fs_mount.str1.1
                0x000000004028123c       0x24 fs/built-in.o
 .rodata.ext4fs_push_revoke_blk.str1.1
                0x0000000040281260       0x2e fs/built-in.o
 .rodata.ext4fs_update_journal.str1.1
                0x000000004028128e       0x19 fs/built-in.o
 .rodata.ext4fs_update_parent_dentry.str1.1
                0x00000000402812a7       0x9f fs/built-in.o
 .rodata.ext4fs_write.str1.1
                0x0000000040281346       0xaf fs/built-in.o
 .rodata.extract_env.str1.1
                0x00000000402813f5        0x3 cmd/built-in.o
 .rodata.extract_val.str1.1
                0x00000000402813f8        0x4 cmd/built-in.o
 .rodata.failure.str1.1
                0x00000000402813f8       0x10 cmd/built-in.o
 .rodata.fastboot_add.str1.1
                0x0000000040281408        0xb drivers/usb/gadget/built-in.o
 .rodata.fastboot_bind.str1.1
                0x0000000040281413        0x8 drivers/usb/gadget/built-in.o
 .rodata.fastboot_boot.str1.1
                0x0000000040281413       0x2c drivers/built-in.o
                                         0x31 (size before relaxing)
 .rodata.fastboot_complete.str1.1
                0x000000004028143f       0x1e drivers/usb/gadget/built-in.o
 .rodata.fastboot_data_complete.str1.1
                0x000000004028145d       0x32 drivers/built-in.o
                                         0x3b (size before relaxing)
 .rodata.fastboot_data_download.str1.1
                0x000000004028148f       0x1d drivers/built-in.o
 .rodata.fastboot_fail.str1.1
                0x00000000402814ac        0x5 drivers/built-in.o
                                          0x8 (size before relaxing)
 .rodata.fastboot_fifo_complete.str1.1
                0x00000000402814b1       0x13 drivers/usb/gadget/built-in.o
 .rodata.fastboot_flash_dump_ptn.str1.1
                0x00000000402814c4       0x2a drivers/built-in.o
 .rodata.fastboot_getvar.str1.1
                0x00000000402814ee      0x143 drivers/built-in.o
                                        0x147 (size before relaxing)
 .rodata.fastboot_handle_command.str1.1
                0x0000000040281631       0x31 drivers/built-in.o
                                         0x35 (size before relaxing)
 .rodata.fastboot_init.str1.1
                0x0000000040281662       0x10 drivers/built-in.o
 .rodata.fastboot_name
                0x0000000040281672       0x11 drivers/usb/gadget/built-in.o
 .rodata.fastboot_okay.str1.1
                0x0000000040281683        0x5 drivers/built-in.o
 .rodata.fastboot_parts_get_name.str1.1
                0x0000000040281688        0x6 drivers/built-in.o
 .rodata.fastboot_parts_is_raw.str1.1
                0x000000004028168e        0x5 drivers/built-in.o
                                          0xa (size before relaxing)
 .rodata.fastboot_process_erase.str1.1
                0x0000000040281693       0x48 drivers/built-in.o
 .rodata.fastboot_run_bootmode.str1.1
                0x00000000402816db       0x12 drivers/built-in.o
 .rodata.fastboot_set_alt.str1.1
                0x00000000402816ed       0x5f drivers/usb/gadget/built-in.o
 .rodata.fastboot_setup.str1.1
                0x000000004028174c       0x26 drivers/built-in.o
 .rodata.fastboot_tx_write_more.str1.1
                0x000000004028174c       0x2a drivers/usb/gadget/built-in.o
 .rodata.fastboot_unbind.str1.1
                0x0000000040281776        0x9 drivers/usb/gadget/built-in.o
 .rodata.fat_itr_resolve.str1.1
                0x0000000040281776       0x22 fs/built-in.o
                                          0x5 (size before relaxing)
 .rodata.fat_itr_root.str1.1
                0x0000000040281776       0x85 fs/built-in.o
 .rodata.fat_mkdir.str1.1
                0x00000000402817fb       0x26 fs/built-in.o
                                         0x2a (size before relaxing)
 .rodata.fat_read_file.str1.1
                0x0000000040281821       0x1e fs/built-in.o
 .rodata.fat_set_blk_dev.str1.1
                0x000000004028183f        0x3 fs/built-in.o
                                          0xd (size before relaxing)
 .rodata.fat_unlink.str1.1
                0x0000000040281842       0x8b fs/built-in.o
                                         0x8c (size before relaxing)
 .rodata.fdt_address_cells.str1.1
                0x00000000402818cd        0xf lib/built-in.o
 .rodata.fdt_chosen.str1.1
                0x00000000402818cd       0x35 common/built-in.o
                                         0x3e (size before relaxing)
 .rodata.fdt_error.str1.1
                0x0000000040281902       0x2d common/built-in.o
 .rodata.fdt_find_or_add_subnode.str1.1
                0x000000004028192f        0xc common/built-in.o
 .rodata.fdt_fixup_esdhc.str1.1
                0x000000004028193b        0xa drivers/built-in.o
                                         0x1a (size before relaxing)
 .rodata.fdt_fixup_ethernet.str1.1
                0x0000000040281945       0x2e common/built-in.o
                                         0x42 (size before relaxing)
 .rodata.fdt_fixup_memory_banks.str1.1
                0x0000000040281973       0x81 common/built-in.o
                                         0x94 (size before relaxing)
 .rodata.fdt_get_alias_namelen.str1.1
                0x00000000402819f4        0x9 lib/built-in.o
 .rodata.fdt_get_phandle.str1.1
                0x00000000402819f4       0x16 lib/built-in.o
 .rodata.fdt_initrd.str1.1
                0x00000000402819f4       0x90 common/built-in.o
                                         0x97 (size before relaxing)
 .rodata.fdt_node_check_compatible.str1.1
                0x0000000040281a84        0xb lib/built-in.o
 .rodata.fdt_overlay_apply.str1.1
                0x0000000040281a84       0x39 lib/built-in.o
                                         0x5f (size before relaxing)
 .rodata.fdt_overlay_apply_verbose.str1.1
                0x0000000040281abd       0x83 common/built-in.o
 .rodata.fdt_root.str1.1
                0x0000000040281b40       0x4e common/built-in.o
 .rodata.fdt_size_cells.str1.1
                0x0000000040281b8e        0xc lib/built-in.o
 .rodata.fdt_strerror.str1.1
                0x0000000040281b8e       0x31 lib/built-in.o
 .rodata.fdt_support_default_count_cells.str1.1
                0x0000000040281bbf        0xc common/built-in.o
 .rodata.fdt_translate_address.str1.1
                0x0000000040281bbf        0x7 common/built-in.o
 .rodata.fdt_valid.str1.1
                0x0000000040281bbf       0x79 cmd/built-in.o
                                         0x7b (size before relaxing)
 .rodata.fdtdec_add_aliases_for_id.str1.1
                0x0000000040281c38        0x9 lib/built-in.o
 .rodata.fdtdec_get_config_int.str1.1
                0x0000000040281c38        0x8 lib/built-in.o
 .rodata.fdtdec_get_is_enabled.str1.1
                0x0000000040281c40        0x5 lib/built-in.o
                                          0xc (size before relaxing)
 .rodata.fdtdec_prepare_fdt.str1.1
                0x0000000040281c45       0x96 lib/built-in.o
 .rodata.fdtdec_setup.str1.1
                0x0000000040281cdb        0xf lib/built-in.o
 .rodata.fec_get_miibus.str1.1
                0x0000000040281cdb       0x33 drivers/net/built-in.o
 .rodata.fec_mii_setspeed.str1.1
                0x0000000040281d0e       0x1e drivers/net/built-in.o
 .rodata.fec_phy_read.str1.1
                0x0000000040281d2c       0x15 drivers/net/built-in.o
 .rodata.fec_phy_write.str1.1
                0x0000000040281d41       0x16 drivers/net/built-in.o
 .rodata.fecmxc_init.str1.1
                0x0000000040281d57       0x1d drivers/net/built-in.o
 .rodata.fecmxc_ofdata_to_platdata.str1.1
                0x0000000040281d74       0xb0 drivers/net/built-in.o
 .rodata.fecmxc_probe.str1.1
                0x0000000040281e24       0xb3 drivers/net/built-in.o
                                         0xbf (size before relaxing)
 .rodata.fecmxc_recv.str1.1
                0x0000000040281ed7       0x33 drivers/net/built-in.o
 .rodata.fecmxc_send.str1.1
                0x0000000040281f0a       0x18 drivers/net/built-in.o
 .rodata.file_fat_detectfs.str1.1
                0x0000000040281f22       0x64 fs/built-in.o
                                         0x84 (size before relaxing)
 .rodata.file_fat_read_at.str1.1
                0x0000000040281f86       0x2a fs/built-in.o
 .rodata.file_fat_write_at.str1.1
                0x0000000040281fb0       0xa7 fs/built-in.o
 .rodata.file_get.str1.1
                0x0000000040282057        0xa common/built-in.o
                                          0xd (size before relaxing)
 .rodata.file_open.str1.1
                0x0000000040282061        0xa lib/built-in.o
                                          0xb (size before relaxing)
 .rodata.find_mmc_device.str1.1
                0x000000004028206b       0x19 drivers/built-in.o
 .rodata.find_valid_gpt.str1.1
                0x0000000040282084       0x27 disk/built-in.o
 .rodata.finish_access.str1.1
                0x00000000402820ab       0x26 drivers/built-in.o
 .rodata.fit_all_image_verify.str1.1
                0x00000000402820d1       0x51 common/built-in.o
 .rodata.fit_get_desc.str1.1
                0x0000000040282122        0xc common/built-in.o
 .rodata.fit_image_get_address.str1.1
                0x000000004028212e       0x1d common/built-in.o
 .rodata.fit_image_get_arch.str1.1
                0x000000004028214b        0xc common/built-in.o
                                          0x5 (size before relaxing)
 .rodata.fit_image_get_comp.str1.1
                0x000000004028214b        0xc common/built-in.o
 .rodata.fit_image_get_data.str1.1
                0x000000004028214b        0x6 common/built-in.o
                                          0x5 (size before relaxing)
 .rodata.fit_image_get_data_offset.str1.1
                0x000000004028214b        0xc common/built-in.o
 .rodata.fit_image_get_data_position.str1.1
                0x0000000040282157        0xe common/built-in.o
 .rodata.fit_image_get_data_size.str1.1
                0x0000000040282165        0xa common/built-in.o
 .rodata.fit_image_get_entry.str1.1
                0x000000004028216f        0x6 common/built-in.o
 .rodata.fit_image_get_load.str1.1
                0x0000000040282175        0x5 common/built-in.o
 .rodata.fit_image_get_node.str1.1
                0x0000000040282175        0x8 common/built-in.o
 .rodata.fit_image_get_os.str1.1
                0x0000000040282175        0xc common/built-in.o
                                          0x3 (size before relaxing)
 .rodata.fit_image_get_type.str1.1
                0x0000000040282175        0xc common/built-in.o
                                          0x5 (size before relaxing)
 .rodata.fit_image_hash_get_algo.str1.1
                0x0000000040282175        0x5 common/built-in.o
 .rodata.fit_image_hash_get_value.str1.1
                0x000000004028217a        0x6 common/built-in.o
 .rodata.fit_image_load.str1.1
                0x000000004028217a      0x22d common/built-in.o
                                        0x240 (size before relaxing)
 .rodata.fit_image_print.str1.1
                0x00000000402823a7       0xd2 common/built-in.o
                                         0xdf (size before relaxing)
 .rodata.fit_image_print_data.str1.1
                0x0000000040282479       0x83 common/built-in.o
                                         0x91 (size before relaxing)
 .rodata.fit_image_print_verification_data.str1.1
                0x00000000402824fc       0x19 common/built-in.o
 .rodata.fit_image_verify.str1.1
                0x0000000040282515       0x1a common/built-in.o
                                         0x4b (size before relaxing)
 .rodata.fit_image_verify_with_data.str1.1
                0x000000004028252f       0xe0 common/built-in.o
 .rodata.fit_print_contents.str1.1
                0x000000004028260f      0x127 common/built-in.o
                                        0x15e (size before relaxing)
 .rodata.fixed_regulator_ofdata_to_platdata.str1.1
                0x0000000040282736        0x5 drivers/power/regulator/built-in.o
 .rodata.flash.str1.1
                0x0000000040282736       0x17 drivers/built-in.o
 .rodata.fs_devread.str1.1
                0x000000004028274d       0x98 fs/built-in.o
 .rodata.fs_ln.str1.1
                0x00000000402827e5       0x26 fs/built-in.o
 .rodata.fs_ls_generic.str1.1
                0x000000004028280b       0x37 fs/built-in.o
 .rodata.fs_probe_unsupported.str1.1
                0x0000000040282842       0x24 fs/built-in.o
 .rodata.fs_read_lmb_check.isra.0.str1.1
                0x0000000040282866       0x34 fs/built-in.o
 .rodata.fs_write.str1.1
                0x000000004028289a       0x1f fs/built-in.o
 .rodata.fsg_add.str1.1
                0x00000000402828b9       0x5b drivers/usb/gadget/built-in.o
 .rodata.fsg_main_thread.str1.1
                0x0000000040282914        0xe drivers/usb/gadget/built-in.o
 .rodata.fsg_setup.str1.1
                0x0000000040282922        0x8 drivers/usb/gadget/built-in.o
 .rodata.fsg_string_interface
                0x0000000040282922        0xd drivers/usb/gadget/built-in.o
 .rodata.fsl_esdhc_probe.str1.1
                0x000000004028292f      0x151 drivers/built-in.o
                                        0x188 (size before relaxing)
 .rodata.fsl_esdhc_send_cmd.str1.1
                0x0000000040282a80       0xb8 drivers/built-in.o
 .rodata.fsl_esdhc_set_ios.str1.1
                0x0000000040282b38       0x9c drivers/built-in.o
                                         0xa4 (size before relaxing)
 .rodata.ft_add_optee_node.str1.1
                0x0000000040282bd4       0xb6 arch/arm/mach-imx/built-in.o
                                         0xc8 (size before relaxing)
 .rodata.fuse_sense.str1.1
                0x0000000040282c8a       0x28 drivers/built-in.o
 .rodata.g_dnl_bind.str1.1
                0x0000000040282cb2        0xb drivers/usb/gadget/built-in.o
                                         0x12 (size before relaxing)
 .rodata.g_dnl_register.str1.1
                0x0000000040282cbd       0x18 drivers/usb/gadget/built-in.o
 .rodata.genimg_get_arch_id.str1.1
                0x0000000040282cd5       0xd0 common/built-in.o
                                          0x4 (size before relaxing)
 .rodata.genimg_get_arch_name.str1.1
                0x0000000040282cd5       0x15 common/built-in.o
 .rodata.genimg_get_comp_id.str1.1
                0x0000000040282cea       0xd0 common/built-in.o
                                          0xc (size before relaxing)
 .rodata.genimg_get_comp_name.str1.1
                0x0000000040282cea       0x14 common/built-in.o
 .rodata.genimg_get_os_id.str1.1
                0x0000000040282cfe       0xd0 common/built-in.o
                                          0x3 (size before relaxing)
 .rodata.genimg_get_os_name.str1.1
                0x0000000040282cfe        0xb common/built-in.o
 .rodata.genimg_get_type_id.str1.1
                0x0000000040282d09       0xd0 common/built-in.o
                                          0x6 (size before relaxing)
 .rodata.genimg_get_type_name.str1.1
                0x0000000040282d09        0xe common/built-in.o
 .rodata.genimg_print_size.str1.1
                0x0000000040282d17        0xc common/built-in.o
                                          0xe (size before relaxing)
 .rodata.genphy_update_link.str1.1
                0x0000000040282d23       0x54 drivers/net/phy/built-in.o
                                         0x56 (size before relaxing)
 .rodata.get_block_size.str1.1
                0x0000000040282d77       0x2e drivers/built-in.o
 .rodata.get_board_id.str1.1
                0x0000000040282d77       0x19 board/variscite/imx8mm_var_dart/built-in.o
                                         0x33 (size before relaxing)
 .rodata.get_current.str1.1
                0x0000000040282d90       0x15 drivers/serial/built-in.o
 .rodata.get_descriptor_len.str1.1
                0x0000000040282da5       0x64 common/built-in.o
 .rodata.get_fastboot_target_dev.str1.1
                0x0000000040282e09       0x57 drivers/built-in.o
                                         0x62 (size before relaxing)
 .rodata.get_fatent.str1.1
                0x0000000040282e60       0x22 fs/built-in.o
 .rodata.get_gpt_info.str1.1
                0x0000000040282e82       0x21 cmd/built-in.o
 .rodata.get_imx_type.str1.1
                0x0000000040282ea3       0xf8 arch/arm/mach-imx/built-in.o
                                         0xfb (size before relaxing)
 .rodata.get_local_var.str1.1
                0x0000000040282f9b        0x5 common/built-in.o
                                          0x3 (size before relaxing)
 .rodata.get_phy_device_by_mask.str1.1
                0x0000000040282f9b       0x3f drivers/net/phy/built-in.o
 .rodata.get_reset_cause.str1.1
                0x0000000040282fda       0x4e arch/arm/mach-imx/built-in.o
 .rodata.get_serial.str1.1
                0x0000000040283028        0x9 drivers/built-in.o
 .rodata.get_single_var.str1.1
                0x0000000040283028      0x1fb drivers/built-in.o
                                        0x25a (size before relaxing)
 .rodata.gpio_direction_input.str1.1
                0x0000000040283223        0xa drivers/gpio/built-in.o
 .rodata.gpio_direction_output.str1.1
                0x000000004028322d        0xb drivers/gpio/built-in.o
 .rodata.gpio_get_description.str1.1
                0x0000000040283238        0xa cmd/built-in.o
                                         0x18 (size before relaxing)
 .rodata.gpio_get_status.str1.1
                0x0000000040283242       0x17 drivers/gpio/built-in.o
                                         0x19 (size before relaxing)
 .rodata.gpio_regulator_ofdata_to_platdata.str1.1
                0x0000000040283259       0x14 drivers/power/regulator/built-in.o
                                         0x1a (size before relaxing)
 .rodata.gpio_regulator_set_value.str1.1
                0x000000004028326d       0x26 drivers/power/regulator/built-in.o
 .rodata.gpio_request_tail.str1.1
                0x000000004028326d        0x8 drivers/gpio/built-in.o
                                          0xe (size before relaxing)
 .rodata.gpt_fill_header.str1.1
                0x0000000040283275       0x24 disk/built-in.o
 .rodata.gpt_fill_pte.str1.1
                0x0000000040283299       0x5b disk/built-in.o
 .rodata.gpt_verify_headers.str1.1
                0x00000000402832f4       0x20 disk/built-in.o
 .rodata.gpt_verify_partitions.str1.1
                0x0000000040283314       0xa3 disk/built-in.o
 .rodata.gzip_parse_header.str1.1
                0x00000000402833b7       0x3e lib/built-in.o
 .rodata.gzwrite.str1.1
                0x00000000402833f5      0x149 lib/built-in.o
 .rodata.gzwrite_progress.str1.1
                0x000000004028353e        0xb lib/built-in.o
 .rodata.gzwrite_progress_finish.str1.1
                0x0000000040283549       0x4e lib/built-in.o
 .rodata.hang.str1.1
                0x0000000040283597       0x2a lib/built-in.o
 .rodata.hash_command.str1.1
                0x00000000402835c1       0x58 common/built-in.o
                                         0x5f (size before relaxing)
 .rodata.hex_asc
                0x0000000040283619       0x11 lib/built-in.o
                0x0000000040283619                hex_asc
 .rodata.hexport_r.str1.1
                0x000000004028362a       0x30 lib/built-in.o
 .rodata.himport_r.str1.1
                0x000000004028365a       0x99 lib/built-in.o
 .rodata.i2c_chip_ofdata_to_platdata.str1.1
                0x00000000402836f3       0x16 drivers/i2c/built-in.o
                                         0x1a (size before relaxing)
 .rodata.i2c_deblock.str1.1
                0x0000000040283709       0x20 drivers/i2c/built-in.o
                                         0x13 (size before relaxing)
 .rodata.i2c_get_chip.str1.1
                0x0000000040283709       0x20 drivers/i2c/built-in.o
 .rodata.i2c_get_cur_bus.str1.1
                0x0000000040283729       0x15 cmd/built-in.o
 .rodata.i2c_idle_bus.str1.1
                0x000000004028373e       0x28 drivers/i2c/built-in.o
                                         0x30 (size before relaxing)
 .rodata.i2c_imx_stop.str1.1
                0x0000000040283766       0x18 drivers/i2c/built-in.o
 .rodata.i2c_init_transfer.constprop.0.str1.1
                0x000000004028377e       0x3f drivers/i2c/built-in.o
 .rodata.i2c_post_probe.str1.1
                0x00000000402837bd       0x10 drivers/i2c/built-in.o
 .rodata.i2c_pre_probe.str1.1
                0x00000000402837bd       0x1d drivers/i2c/built-in.o
 .rodata.i2c_uclass_init.str1.1
                0x00000000402837da        0x4 drivers/i2c/built-in.o
 .rodata.illegal
                0x00000000402837da       0x11 lib/built-in.o
 .rodata.image_decomp.str1.1
                0x00000000402837eb       0x2b common/built-in.o
                                         0x4e (size before relaxing)
 .rodata.image_info.str1.1
                0x0000000040283816      0x107 cmd/built-in.o
 .rodata.image_print_contents.str1.1
                0x000000004028391d       0xd0 common/built-in.o
                                         0xd4 (size before relaxing)
 .rodata.image_setup_libfdt.str1.1
                0x00000000402839ed       0xbc common/built-in.o
 .rodata.image_source_script.str1.1
                0x0000000040283aa9      0x106 cmd/built-in.o
                                        0x124 (size before relaxing)
 .rodata.imx7_reset_probe.str1.1
                0x0000000040283baf       0x1d drivers/built-in.o
 .rodata.imx8mm_clk_probe.str1.1
                0x0000000040283bcc      0x396 drivers/built-in.o
 .rodata.imx_clk_pfd.str1.1
                0x0000000040283f62        0xc drivers/built-in.o
 .rodata.imx_clk_pll14xx.str1.1
                0x0000000040283f6e       0x69 drivers/built-in.o
 .rodata.imx_clk_pllv3.str1.1
                0x0000000040283fd7       0x4b drivers/built-in.o
 .rodata.imx_pinctrl_probe.str1.1
                0x0000000040284022       0x58 drivers/built-in.o
                                         0x5c (size before relaxing)
 .rodata.imx_pinctrl_set_state.str1.1
                0x000000004028407a       0x84 drivers/built-in.o
 .rodata.inflate.str1.1
                0x00000000402840fe      0x158 lib/built-in.o
 .rodata.inflate_fast.str1.1
                0x0000000040284256       0x50 lib/built-in.o
 .rodata.init_baud_rate.str1.1
                0x00000000402842a6        0x9 common/built-in.o
 .rodata.init_mmc_device.str1.1
                0x00000000402842af       0x1a cmd/built-in.o
 .rodata.init_uart_clk.str1.1
                0x00000000402842c9       0x14 arch/arm/mach-imx/built-in.o
 .rodata.initr_env.str1.1
                0x00000000402842dd       0x11 common/built-in.o
                                         0x29 (size before relaxing)
 .rodata.initr_ethaddr.str1.1
                0x00000000402842ee        0x8 common/built-in.o
 .rodata.initr_mmc.str1.1
                0x00000000402842ee        0x8 common/built-in.o
 .rodata.initr_net.str1.1
                0x00000000402842f6        0x8 common/built-in.o
 .rodata.insert_var_value_sub.str1.1
                0x00000000402842fe        0x6 common/built-in.o
 .rodata.ip_to_string.str1.1
                0x0000000040284304        0xc net/built-in.o
 .rodata.is_gpt_valid.str1.1
                0x0000000040284310       0xea disk/built-in.o
 .rodata.list_sort.str1.1
                0x00000000402843fa       0x34 lib/built-in.o
 .rodata.lists_bind_drivers.str1.1
                0x000000004028442e       0x1a drivers/built-in.o
 .rodata.lists_bind_fdt.str1.1
                0x0000000040284448       0x3f drivers/built-in.o
                                         0x4a (size before relaxing)
 .rodata.lmb_alloc_base.str1.1
                0x0000000040284487       0x34 lib/built-in.o
 .rodata.load_serial.str1.1
                0x00000000402844bb       0x65 cmd/built-in.o
 .rodata.load_serial_ymodem.str1.1
                0x0000000040284520       0x28 cmd/built-in.o
                                         0x35 (size before relaxing)
 .rodata.main_loop.str1.1
                0x0000000040284548       0x11 common/built-in.o
 .rodata.manufacturer
                0x0000000040284559        0xa drivers/usb/gadget/built-in.o
 .rodata.match.str1.1
                0x0000000040284563       0x18 lib/built-in.o
 .rodata.match_entry.str1.1
                0x000000004028457b       0x1b lib/built-in.o
 .rodata.match_string.str1.1
                0x000000004028457b       0x2c lib/built-in.o
 .rodata.mdio_list_devices.str1.1
                0x00000000402845a7       0x12 common/built-in.o
                                         0x19 (size before relaxing)
 .rodata.mdio_phydev_for_ethname.str1.1
                0x00000000402845b9       0x1c common/built-in.o
 .rodata.mdio_register.str1.1
                0x00000000402845d5       0x2c common/built-in.o
 .rodata.miiphy_duplex.str1.1
                0x0000000040284601       0x5a common/built-in.o
                                         0x68 (size before relaxing)
 .rodata.miiphy_get_dev_by_name.str1.1
                0x000000004028465b       0x13 common/built-in.o
 .rodata.miiphy_is_1000base_x.str1.1
                0x000000004028466e       0x39 common/built-in.o
 .rodata.miiphy_listdev.str1.1
                0x00000000402846a7       0x2a common/built-in.o
 .rodata.miiphy_set_current_dev.str1.1
                0x00000000402846d1       0x14 common/built-in.o
 .rodata.miiphy_speed.str1.1
                0x00000000402846e5       0x5b common/built-in.o
 .rodata.mmc_berase.str1.1
                0x0000000040284740       0x6f drivers/built-in.o
 .rodata.mmc_bind.str1.1
                0x00000000402847af        0x8 drivers/built-in.o
                                          0xc (size before relaxing)
 .rodata.mmc_bread.str1.1
                0x00000000402847b7       0x47 drivers/built-in.o
 .rodata.mmc_bwrite.str1.1
                0x00000000402847fe       0x12 drivers/built-in.o
                                         0x59 (size before relaxing)
 .rodata.mmc_get_env_addr.str1.1
                0x0000000040284810       0x2f env/built-in.o
                                         0x35 (size before relaxing)
 .rodata.mmc_get_env_dev.str1.1
                0x000000004028483f        0x7 arch/arm/mach-imx/built-in.o
 .rodata.mmc_get_op_cond.str1.1
                0x0000000040284846       0x42 drivers/built-in.o
 .rodata.mmc_hwpart_config.str1.1
                0x0000000040284888      0x19f drivers/built-in.o
 .rodata.mmc_init.str1.1
                0x0000000040284a27       0x36 drivers/built-in.o
                                         0x3c (size before relaxing)
 .rodata.mmc_initialize.str1.1
                0x0000000040284a5d       0x17 drivers/built-in.o
 .rodata.mmc_mode_name.str1.1
                0x0000000040284a74        0xd drivers/built-in.o
 .rodata.mmc_of_parse.str1.1
                0x0000000040284a81      0x139 drivers/built-in.o
 .rodata.mmc_poll_for_busy.str1.1
                0x0000000040284bba       0x32 drivers/built-in.o
 .rodata.mmc_power_on.isra.0.str1.1
                0x0000000040284bec       0x1c drivers/built-in.o
 .rodata.mmc_select_mode_and_width.str1.1
                0x0000000040284c08       0x58 drivers/built-in.o
 .rodata.mmc_start_init.str1.1
                0x0000000040284c60       0x16 drivers/built-in.o
 .rodata.mod_i2c_mem.isra.0.part.0.str1.1
                0x0000000040284c76       0x21 cmd/built-in.o
                                         0x28 (size before relaxing)
 .rodata.mod_mem.isra.0.part.0.str1.1
                0x0000000040284c97       0x15 cmd/built-in.o
                                         0x26 (size before relaxing)
 .rodata.multipliers
                0x0000000040284cac       0x10 drivers/built-in.o
 .rodata.mx6_init_after_reset.str1.1
                0x0000000040284cbc       0x1c drivers/usb/host/built-in.o
                                         0x40 (size before relaxing)
 .rodata.mxc_get_clock.str1.1
                0x0000000040284cd8       0x1a arch/arm/mach-imx/built-in.o
 .rodata.mxc_gpio_probe.str1.1
                0x0000000040284cf2        0x8 drivers/gpio/built-in.o
 .rodata.mxc_i2c_probe.str1.1
                0x0000000040284cfa       0x76 drivers/i2c/built-in.o
                                         0x89 (size before relaxing)
 .rodata.names.7492
                0x0000000040284d70        0x6 lib/built-in.o
 .rodata.net_auto_load.str1.1
                0x0000000040284d76       0x45 net/built-in.o
 .rodata.net_bcast_ethaddr
                0x0000000040284dbb        0x6 net/built-in.o
                0x0000000040284dbb                net_bcast_ethaddr
 .rodata.net_check_prereq.str1.1
                0x0000000040284dc1       0xbc net/built-in.o
 .rodata.net_loop.str1.1
                0x0000000040284e7d       0x29 net/built-in.o
                                         0x3b (size before relaxing)
 .rodata.net_null_ethaddr
                0x0000000040284ea6        0x6 net/built-in.o
                0x0000000040284ea6                net_null_ethaddr
 .rodata.net_process_received_packet.str1.1
                0x0000000040284eac       0x1d net/built-in.o
 .rodata.net_start_again.str1.1
                0x0000000040284ec9        0xe net/built-in.o
                                         0x15 (size before relaxing)
 .rodata.netboot_common.str1.1
                0x0000000040284ed7       0x16 cmd/built-in.o
                                         0x53 (size before relaxing)
 .rodata.new_dir_table.str1.1
                0x0000000040284eed       0x34 fs/built-in.o
 .rodata.nfs_handler.str1.1
                0x0000000040284f21       0x56 net/built-in.o
 .rodata.nfs_lookup_reply.str1.1
                0x0000000040284f77       0x25 net/built-in.o
                                         0x27 (size before relaxing)
 .rodata.nfs_read_reply.str1.1
                0x0000000040284f9c        0x4 net/built-in.o
 .rodata.nfs_readlink_reply.str1.1
                0x0000000040284fa0        0x2 net/built-in.o
 .rodata.nfs_start.str1.1
                0x0000000040284fa0      0x104 net/built-in.o
                                        0x105 (size before relaxing)
 .rodata.nfs_timeout_handler.str1.1
                0x00000000402850a4       0x2a net/built-in.o
 .rodata.nxp_tmu_bind.str1.1
                0x00000000402850ce        0xe drivers/built-in.o
                                         0x38 (size before relaxing)
 .rodata.nxp_tmu_get_temp.str1.1
                0x00000000402850dc       0x61 drivers/built-in.o
 .rodata.nxp_tmu_probe.str1.1
                0x000000004028513d       0xe1 drivers/built-in.o
                                         0xe6 (size before relaxing)
 .rodata.ofnode_pre_reloc.str1.1
                0x000000004028521e       0x45 drivers/built-in.o
 .rodata.on_baudrate.str1.1
                0x000000004028521e       0x42 drivers/serial/built-in.o
                                         0x74 (size before relaxing)
 .rodata.on_callbacks.str1.1
                0x0000000040285260      0x105 env/built-in.o
 .rodata.on_console.str1.1
                0x0000000040285365        0x4 common/built-in.o
                                         0x27 (size before relaxing)
 .rodata.on_flags.str1.1
                0x0000000040285365       0x50 env/built-in.o
 .rodata.overlay_adjust_node_phandles.str1.1
                0x00000000402853b5        0xe lib/built-in.o
                                         0x16 (size before relaxing)
 .rodata.overlay_get_target.str1.1
                0x00000000402853c3        0xc lib/built-in.o
                                         0x13 (size before relaxing)
 .rodata.parse_argv.str1.1
                0x00000000402853cf        0x6 cmd/built-in.o
                                          0xd (size before relaxing)
 .rodata.parse_attr.part.0.str1.1
                0x00000000402853d5       0x17 lib/built-in.o
                                         0x26 (size before relaxing)
 .rodata.parse_stream_outer.str1.1
                0x00000000402853ec       0x4d common/built-in.o
 .rodata.parse_string_outer.str1.1
                0x0000000040285439        0x2 common/built-in.o
 .rodata.part_get_info_efi.str1.1
                0x0000000040285439        0xa disk/built-in.o
 .rodata.part_get_info_extended.str1.1
                0x0000000040285439        0xa disk/built-in.o
                                         0x11 (size before relaxing)
 .rodata.part_get_info_whole_disk.str1.1
                0x0000000040285443        0xb disk/built-in.o
                                         0x12 (size before relaxing)
 .rodata.part_print.str1.1
                0x000000004028544e       0x8e disk/built-in.o
                                         0x97 (size before relaxing)
 .rodata.part_print_dos.str1.1
                0x00000000402854dc       0x2a disk/built-in.o
 .rodata.part_print_efi.str1.1
                0x0000000040285506       0x8d disk/built-in.o
 .rodata.part_set_generic_name.str1.1
                0x0000000040285593        0x7 disk/built-in.o
                                          0xa (size before relaxing)
 .rodata.phy_connect.str1.1
                0x000000004028559a       0x23 drivers/net/phy/built-in.o
 .rodata.phy_connect_dev.str1.1
                0x00000000402855bd       0x2f drivers/net/phy/built-in.o
 .rodata.phy_reset.str1.1
                0x00000000402855ec       0x15 drivers/net/phy/built-in.o
 .rodata.pinconfig_post_bind.str1.1
                0x0000000040285601       0x1a drivers/built-in.o
                                         0x25 (size before relaxing)
 .rodata.pinctrl_select_state.str1.1
                0x000000004028561b       0x31 drivers/built-in.o
 .rodata.ping_start.str1.1
                0x000000004028564c       0x11 net/built-in.o
 .rodata.prepare_access.str1.1
                0x000000004028564c       0x22 drivers/built-in.o
 .rodata.print_buffer.str1.1
                0x000000004028566e        0x8 lib/built-in.o
                                         0x19 (size before relaxing)
 .rodata.print_cpuinfo.str1.1
                0x0000000040285676       0xdd arch/arm/mach-imx/built-in.o
                                         0xfb (size before relaxing)
 .rodata.print_data.str1.1
                0x0000000040285753       0x27 cmd/built-in.o
                                         0x32 (size before relaxing)
 .rodata.print_freq.str1.1
                0x000000004028577a       0x1b lib/built-in.o
 .rodata.print_gpt_info.str1.1
                0x0000000040285795       0x62 cmd/built-in.o
                                         0x64 (size before relaxing)
 .rodata.print_jrnl_status.str1.1
                0x00000000402857f7       0x34 fs/built-in.o
 .rodata.print_mmc_devices.str1.1
                0x000000004028582b       0x12 drivers/built-in.o
                                         0x1c (size before relaxing)
 .rodata.print_num.str1.1
                0x000000004028583d       0x10 cmd/built-in.o
 .rodata.print_partition_extended.str1.1
                0x000000004028584d       0xb3 disk/built-in.o
                                         0xb4 (size before relaxing)
 .rodata.print_resetinfo.str1.1
                0x0000000040285900        0x3 common/built-in.o
 .rodata.print_size.str1.1
                0x0000000040285900       0x15 lib/built-in.o
 .rodata.process_erase_blkdev.str1.1
                0x0000000040285915      0x150 drivers/built-in.o
                                        0x177 (size before relaxing)
 .rodata.process_flash_blkdev.str1.1
                0x0000000040285a65      0x1db drivers/built-in.o
                                        0x1e4 (size before relaxing)
 .rodata.product
                0x0000000040285c40       0x14 drivers/usb/gadget/built-in.o
 .rodata.psci_bind.str1.1
                0x0000000040285c54       0x1a drivers/built-in.o
                                         0x28 (size before relaxing)
 .rodata.psci_probe.str1.1
                0x0000000040285c6e        0x4 drivers/built-in.o
                                          0xf (size before relaxing)
 .rodata.put_ext4.str1.1
                0x0000000040285c72       0x42 fs/built-in.o
 .rodata.quantifier.str1.1
                0x0000000040285cb4       0x17 lib/built-in.o
 .rodata.read_allocated_block.str1.1
                0x0000000040285ccb      0x240 fs/built-in.o
 .rodata.read_bootsectandvi.str1.1
                0x0000000040285f0b       0x1b fs/built-in.o
 .rodata.realloc.str1.1
                0x0000000040285f26       0x25 common/built-in.o
 .rodata.regex_callback.str1.1
                0x0000000040285f4b        0x5 env/built-in.o
                                         0x20 (size before relaxing)
 .rodata.regex_sub.part.0.str1.1
                0x0000000040285f50       0xbd cmd/built-in.o
 .rodata.regmap_init_mem_index.str1.1
                0x000000004028600d       0x27 drivers/built-in.o
                                         0x2b (size before relaxing)
 .rodata.regulator_common_ofdata_to_platdata.str1.1
                0x0000000040286034       0x3b drivers/power/regulator/built-in.o
                                         0x4b (size before relaxing)
 .rodata.regulator_common_set_enable.str1.1
                0x000000004028606f       0x26 drivers/power/regulator/built-in.o
 .rodata.regulator_post_bind.str1.1
                0x0000000040286095        0xf drivers/power/regulator/built-in.o
 .rodata.regulator_pre_probe.str1.1
                0x0000000040286095       0xfb drivers/power/regulator/built-in.o
 .rodata.run_acmd.str1.1
                0x0000000040286190       0x4e drivers/built-in.o
 .rodata.run_list_real.str1.1
                0x00000000402861de       0x45 common/built-in.o
                                         0x4b (size before relaxing)
 .rodata.rx_handler_command.str1.1
                0x0000000040286223       0x10 drivers/usb/gadget/built-in.o
                                         0x1a (size before relaxing)
 .rodata.rx_handler_dl_image.str1.1
                0x0000000040286233       0x10 drivers/usb/gadget/built-in.o
 .rodata.sd_select_mode_and_width.str1.1
                0x0000000040286243       0x19 drivers/built-in.o
 .rodata.search_dir.str1.1
                0x000000004028625c       0x1b fs/built-in.o
 .rodata.set_contents.str1.1
                0x0000000040286277       0x3b fs/built-in.o
 .rodata.set_gpt_info.isra.0.str1.1
                0x00000000402862b2       0x69 cmd/built-in.o
                                         0x80 (size before relaxing)
 .rodata.set_local_var.str1.1
                0x000000004028631b       0x59 common/built-in.o
 .rodata.set_working_fdt_addr.str1.1
                0x0000000040286374        0x8 cmd/built-in.o
 .rodata.setup_pgtables.str1.1
                0x000000004028637c       0x2d arch/arm/cpu/armv8/built-in.o
 .rodata.sha1_padding
                0x00000000402863a9       0x40 lib/built-in.o
 .rodata.show_board_info.str1.1
                0x00000000402863e9       0x11 common/built-in.o
 .rodata.show_bus.str1.1
                0x00000000402863fa       0x3f cmd/built-in.o
                                         0x41 (size before relaxing)
 .rodata.show_clks.str1.1
                0x0000000040286439       0x23 cmd/built-in.o
                                         0x2c (size before relaxing)
 .rodata.show_devices.str1.1
                0x000000004028645c       0x24 drivers/built-in.o
                                         0x3c (size before relaxing)
 .rodata.show_dram_config.str1.1
                0x0000000040286480        0x1 common/built-in.o
 .rodata.show_pinmux.str1.1
                0x0000000040286480       0x6d cmd/built-in.o
 .rodata.show_regs.str1.1
                0x00000000402864ed       0x66 arch/arm/lib/built-in.o
                                         0x6e (size before relaxing)
 .rodata.simple_bus_post_bind.str1.1
                0x0000000040286553        0x7 drivers/built-in.o
 .rodata.sleep_thread.isra.0.str1.1
                0x0000000040286553        0xc drivers/usb/gadget/built-in.o
 .rodata.smbios_write_type0.str1.1
                0x000000004028655f        0xb lib/built-in.o
                                         0x46 (size before relaxing)
 .rodata.smbios_write_type1.str1.1
                0x000000004028656a        0x8 lib/built-in.o
 .rodata.smbios_write_type2.str1.1
                0x000000004028656a       0x10 lib/built-in.o
 .rodata.smbios_write_type3.str1.1
                0x000000004028657a        0xa lib/built-in.o
 .rodata.smbios_write_type4.str1.1
                0x0000000040286584        0x8 lib/built-in.o
 .rodata.soc_clk_dump.str1.1
                0x0000000040286584       0x26 cmd/built-in.o
                                         0x52 (size before relaxing)
 .rodata.split_block.str1.1
                0x00000000402865aa       0x74 arch/arm/cpu/armv8/built-in.o
 .rodata.split_filename.str1.1
                0x000000004028661e        0x2 fs/built-in.o
 .rodata.stdio_add_devices.str1.1
                0x000000004028661e        0x7 common/built-in.o
 .rodata.stdio_deregister_dev.str1.1
                0x000000004028661e        0x8 common/built-in.o
 .rodata.stdio_print_current_devices.str1.1
                0x0000000040286626       0x70 common/built-in.o
                                         0x74 (size before relaxing)
 .rodata.store_char_in_data.str1.1
                0x0000000040286696       0x1f lib/built-in.o
 .rodata.str1.1
                0x00000000402866b5       0x8a arch/arm/mach-imx/built-in.o
                                         0x92 (size before relaxing)
 .rodata.str1.1
                0x000000004028673f     0x4028 cmd/built-in.o
                                       0x4325 (size before relaxing)
 .rodata.str1.1
                0x000000004028a767      0x904 common/built-in.o
                                        0x979 (size before relaxing)
 .rodata.str1.1
                0x000000004028b06b       0x1b disk/built-in.o
                                         0x1e (size before relaxing)
 .rodata.str1.1
                0x000000004028b086      0x3fb drivers/built-in.o
                                        0x469 (size before relaxing)
 .rodata.str1.1
                0x000000004028b481       0x24 drivers/gpio/built-in.o
                                         0x3e (size before relaxing)
 .rodata.str1.1
                0x000000004028b4a5       0x30 drivers/i2c/built-in.o
 .rodata.str1.1
                0x000000004028b4d5       0x8a drivers/net/built-in.o
 .rodata.str1.1
                0x000000004028b55f       0xa9 drivers/net/phy/built-in.o
                                         0xc8 (size before relaxing)
 .rodata.str1.1
                0x000000004028b608       0x3e drivers/power/regulator/built-in.o
                                         0x48 (size before relaxing)
 .rodata.str1.1
                0x000000004028b646        0x9 drivers/serial/built-in.o
 .rodata.str1.1
                0x000000004028b646       0x40 drivers/usb/common/built-in.o
                                         0x52 (size before relaxing)
 .rodata.str1.1
                0x000000004028b686       0x50 drivers/usb/gadget/built-in.o
                                         0x76 (size before relaxing)
 .rodata.str1.1
                0x000000004028b6d6        0x4 drivers/usb/gadget/udc/built-in.o
 .rodata.str1.1
                0x000000004028b6d6       0x27 drivers/usb/host/built-in.o
                                         0x2b (size before relaxing)
 .rodata.str1.1
                0x000000004028b6fd       0xb2 env/built-in.o
                                         0x14 (size before relaxing)
 .rodata.str1.1
                0x000000004028b6fd       0x10 fs/built-in.o
                                         0x15 (size before relaxing)
 .rodata.str1.1
                0x000000004028b70d      0x4c1 lib/built-in.o
                                        0x4c9 (size before relaxing)
 .rodata.str1.1
                0x000000004028bbce        0x6 net/built-in.o
                                         0x35 (size before relaxing)
 .rodata.string.str1.1
                0x000000004028bbd4        0x7 lib/built-in.o
 .rodata.substitute.str1.1
                0x000000004028bbdb       0x28 cmd/built-in.o
 .rodata.syntax_err.str1.1
                0x000000004028bc03        0xe common/built-in.o
 .rodata.syscon_probe_by_ofnode.str1.1
                0x000000004028bc11        0x7 drivers/built-in.o
 .rodata.tab_seq
                0x000000004028bc18        0x9 common/built-in.o
 .rodata.test_block_type.str1.1
                0x000000004028bc21        0xa disk/built-in.o
 .rodata.tftp_handler.str1.1
                0x000000004028bc2b       0x9a net/built-in.o
                                         0xa8 (size before relaxing)
 .rodata.tftp_send.str1.1
                0x000000004028bcc5       0x36 net/built-in.o
                                         0x42 (size before relaxing)
 .rodata.tftp_start.str1.1
                0x000000004028bcfb       0xe8 net/built-in.o
                                        0x181 (size before relaxing)
 .rodata.tftp_timeout_handler.str1.1
                0x000000004028bde3       0x2a net/built-in.o
                                         0x2d (size before relaxing)
 .rodata.try_load_entry.str1.1
                0x000000004028be0d       0x4a lib/built-in.o
 .rodata.tuning_blk_pattern_4bit
                0x000000004028be57       0x40 drivers/built-in.o
 .rodata.tuning_blk_pattern_8bit
                0x000000004028be97       0x80 drivers/built-in.o
 .rodata.u_boot_hush_start.str1.1
                0x000000004028bf17       0x12 common/built-in.o
 .rodata.uclass_resolve_seq.str1.1
                0x000000004028bf29       0x27 drivers/built-in.o
 .rodata.udc_irq.str1.1
                0x000000004028bf50       0x27 drivers/usb/gadget/built-in.o
                                         0x2e (size before relaxing)
 .rodata.upload.str1.1
                0x000000004028bf77       0x20 drivers/built-in.o
                                         0x26 (size before relaxing)
 .rodata.us_direction
                0x000000004028bf97       0x20 common/built-in.o
 .rodata.usb_child_post_bind.str1.1
                0x000000004028bfb7       0x25 drivers/usb/host/built-in.o
 .rodata.usb_composite_register.str1.1
                0x000000004028bfdc       0x38 drivers/usb/gadget/built-in.o
                                          0xa (size before relaxing)
 .rodata.usb_del_gadget_udc.str1.1
                0x000000004028bfdc       0x18 drivers/usb/gadget/udc/built-in.o
 .rodata.usb_display_class_sub.str1.1
                0x000000004028bff4       0xb6 cmd/built-in.o
                                         0xbc (size before relaxing)
 .rodata.usb_display_config.str1.1
                0x000000004028c0aa      0x10d cmd/built-in.o
                                        0x118 (size before relaxing)
 .rodata.usb_display_desc.str1.1
                0x000000004028c1b7       0xac cmd/built-in.o
                                         0xae (size before relaxing)
 .rodata.usb_display_string.str1.1
                0x000000004028c263        0xd cmd/built-in.o
 .rodata.usb_find_usb2_hub_address_port.str1.1
                0x000000004028c270       0x36 common/built-in.o
 .rodata.usb_gadget_handle_interrupts.str1.1
                0x000000004028c2a6       0x25 drivers/usb/gadget/udc/built-in.o
 .rodata.usb_gadget_initialize.str1.1
                0x000000004028c2cb       0x15 drivers/usb/gadget/udc/built-in.o
 .rodata.usb_gadget_probe_driver.str1.1
                0x000000004028c2e0       0x38 drivers/usb/gadget/udc/built-in.o
 .rodata.usb_get_class_desc.str1.1
                0x000000004028c318       0x64 cmd/built-in.o
                                         0x65 (size before relaxing)
 .rodata.usb_get_configuration_len.str1.1
                0x000000004028c37c       0x58 common/built-in.o
 .rodata.usb_get_dr_mode.str1.1
                0x000000004028c3d4       0x1f drivers/usb/common/built-in.o
 .rodata.usb_hub_configure.str1.1
                0x000000004028c3f3       0x5f common/built-in.o
 .rodata.usb_hub_port_connect_change.str1.1
                0x000000004028c452       0x18 common/built-in.o
 .rodata.usb_init.str1.1
                0x000000004028c46a       0x54 drivers/usb/host/built-in.o
 .rodata.usb_mass_storage_probe.str1.1
                0x000000004028c4be       0x16 common/built-in.o
 .rodata.usb_scan_bus.isra.0.str1.1
                0x000000004028c4d4       0x4d drivers/usb/host/built-in.o
                                         0x5f (size before relaxing)
 .rodata.usb_scan_device.str1.1
                0x000000004028c521       0x2a drivers/usb/host/built-in.o
 .rodata.usb_select_config.str1.1
                0x000000004028c54b      0x220 common/built-in.o
 .rodata.usb_set_interface.str1.1
                0x000000004028c76b       0x1f common/built-in.o
 .rodata.usb_setup_descriptor.str1.1
                0x000000004028c78a       0x1d common/built-in.o
 .rodata.usb_setup_device.str1.1
                0x000000004028c7a7       0x68 common/built-in.o
 .rodata.usb_show_tree_graph.str1.1
                0x000000004028c80f       0x2f cmd/built-in.o
                                         0x3a (size before relaxing)
 .rodata.usb_stor_CBI_get_status.isra.0.str1.1
                0x000000004028c83e       0x1f common/built-in.o
 .rodata.usb_stor_CB_transport.str1.1
                0x000000004028c85d       0x6e common/built-in.o
 .rodata.usb_stor_get_info.str1.1
                0x000000004028c8cb       0x5d common/built-in.o
 .rodata.usb_stor_info.str1.1
                0x000000004028c928       0x32 common/built-in.o
                                         0x40 (size before relaxing)
 .rodata.usb_stor_scan.str1.1
                0x000000004028c95a       0x48 common/built-in.o
 .rodata.usb_storage_probe.str1.1
                0x000000004028c9a2       0x5c common/built-in.o
 .rodata.uuid_bin_to_str.str1.1
                0x000000004028c9fe       0x4a lib/built-in.o
                                          0xa (size before relaxing)
 .rodata.valid_elf_image.str1.1
                0x000000004028c9fe       0x52 cmd/built-in.o
 .rodata.validate_gpt_header.str1.1
                0x000000004028ca50       0xe1 disk/built-in.o
 .rodata.var_carrier_eeprom_get_revision.str1.1
                0x000000004028cb31       0x52 board/variscite/imx8mm_var_dart/built-in.o
                                          0x7 (size before relaxing)
 .rodata.var_carrier_eeprom_is_valid.str1.1
                0x000000004028cb31       0x52 board/variscite/imx8mm_var_dart/built-in.o
 .rodata.var_complete.str1.1
                0x000000004028cb83        0x1 common/built-in.o
 .rodata.var_eeprom_print_prod_info.str1.1
                0x000000004028cb83       0xb7 board/variscite/imx8mm_var_dart/built-in.o
 .rodata.var_setup_mac.str1.1
                0x000000004028cc3a        0x8 board/variscite/imx8mm_var_dart/built-in.o
 .rodata.vendor_id.9281
                0x000000004028cc42        0x9 drivers/usb/gadget/built-in.o
 .rodata.version_string
                0x000000004028cc4b       0x5a cmd/built-in.o
                0x000000004028cc4b                version_string
 .rodata.wait_for_sr_state.str1.1
                0x000000004028cca5       0x4c drivers/i2c/built-in.o
 .rodata.write_backup_gpt.str1.1
                0x000000004028ccf1       0x70 drivers/built-in.o
 .rodata.write_gpt_table.str1.1
                0x000000004028cd61       0x55 disk/built-in.o
 .rodata.write_mbr_and_gpt_partitions.str1.1
                0x000000004028cdb6       0x7c disk/built-in.o
 .rodata.write_smbios_table.str1.1
                0x000000004028ce32       0x38 lib/built-in.o
 .rodata.write_sparse_image.str1.1
                0x000000004028ce6a      0x1f9 lib/built-in.o
 .rodata.xmalloc.str1.1
                0x000000004028d063       0x1e common/built-in.o
 .rodata.xyzModem_error.str1.1
                0x000000004028d081        0xe common/built-in.o
 .rodata.xyzModem_stream_close.str1.1
                0x000000004028d08f       0x47 common/built-in.o
                                         0x4b (size before relaxing)
 .rodata.xyzModem_stream_open.str1.1
                0x000000004028d0d6        0x2 common/built-in.o

.hash           0x000000004028d0d8       0x18
 .hash          0x000000004028d0d8       0x18 arch/arm/cpu/armv8/start.o
                0x000000004028d0f0                . = ALIGN (0x8)

.data           0x000000004028d0f0     0x5f80
 *(.data*)
 .data.rel.ro   0x000000004028d0f0        0x0 arch/arm/cpu/armv8/start.o
 .data.reset_cause
                0x000000004028d0f0        0x4 arch/arm/mach-imx/built-in.o
 .data.root_array
                0x000000004028d0f4      0x730 arch/arm/mach-imx/built-in.o
 *fill*         0x000000004028d824        0x4 
 .data.imx8m_mem_map
                0x000000004028d828      0x100 arch/arm/mach-imx/built-in.o
 .data.mem_map  0x000000004028d928        0x8 arch/arm/mach-imx/built-in.o
                0x000000004028d928                mem_map
 .data.board_id.10872
                0x000000004028d930        0x4 board/variscite/imx8mm_var_dart/built-in.o
 .data.dart_carrier_rev.10910
                0x000000004028d934        0x4 board/variscite/imx8mm_var_dart/built-in.o
 .data.bootm_help_text
                0x000000004028d938      0x4cf cmd/built-in.o
 *fill*         0x000000004028de07        0x1 
 .data.cmd_bootm_sub
                0x000000004028de08      0x1f8 cmd/built-in.o
 .data.source_help_text
                0x000000004028e000       0xac cmd/built-in.o
 *fill*         0x000000004028e0ac        0x4 
 .data.cmd_blkc_sub
                0x000000004028e0b0       0x70 cmd/built-in.o
 .data.bootefi_help_text
                0x000000004028e120      0x18b cmd/built-in.o
 .data.booti_help_text
                0x000000004028e2ab      0x1dd cmd/built-in.o
 .data.clk_help_text
                0x000000004028e488       0x1f cmd/built-in.o
 *fill*         0x000000004028e4a7        0x1 
 .data.cmd_clk_sub
                0x000000004028e4a8       0x38 cmd/built-in.o
 .data.test_commands
                0x000000004028e4e0       0xe0 cmd/built-in.o
 .data.fdt_help_text
                0x000000004028e5c0      0x6e5 cmd/built-in.o
 .data.root.7452
                0x000000004028eca5        0x2 cmd/built-in.o
 .data.tabs.7539
                0x000000004028eca7       0x21 cmd/built-in.o
 .data.cmd_i2c_sub
                0x000000004028ecc8      0x348 cmd/built-in.o
 .data.i2c_dp_last_length
                0x000000004028f010        0x4 cmd/built-in.o
 .data.i2c_help_text
                0x000000004028f014      0x3ed cmd/built-in.o
 *fill*         0x000000004028f401        0x3 
 .data.do_echo  0x000000004028f404        0x4 cmd/built-in.o
 .data.dp_last_length
                0x000000004028f408        0x8 cmd/built-in.o
 .data.cmd_mmc  0x000000004028f410      0x310 cmd/built-in.o
 .data.curr_device
                0x000000004028f720        0x4 cmd/built-in.o
 *fill*         0x000000004028f724        0x4 
 .data.pinmux_subcmd
                0x000000004028f728       0xa8 cmd/built-in.o
 .data.usb_stor_curr_dev
                0x000000004028f7d0        0x4 cmd/built-in.o
 .data.fastboot_help_text
                0x000000004028f7d4       0xac cmd/built-in.o
 .data.imgextract_help_text
                0x000000004028f880       0xb2 cmd/built-in.o
 *fill*         0x000000004028f932        0x6 
 .data.disk_partitions
                0x000000004028f938       0x10 cmd/built-in.o
 .data.subcmd   0x000000004028f948      0x1f8 cmd/built-in.o
 .data.cmd_env_sub
                0x000000004028fb40      0x230 cmd/built-in.o
 .data.env_help_text
                0x000000004028fd70      0x259 cmd/built-in.o
 *fill*         0x000000004028ffc9        0x3 
 .data.env_id   0x000000004028ffcc        0x4 cmd/built-in.o
 .data.hash_algo
                0x000000004028ffd0       0xe0 common/built-in.o
 .data.reserved_list
                0x00000000402900b0      0x108 common/built-in.o
 .data.init_sequence_r
                0x00000000402901b8      0x108 common/built-in.o
 .data.of_busses
                0x00000000402902c0       0x30 common/built-in.o
 .data.usb_scan_list
                0x00000000402902f0       0x10 common/built-in.o
 .data.hist_cur
                0x0000000040290300        0x4 common/built-in.o
 *fill*         0x0000000040290304        0x4 
 .data.av_      0x0000000040290308      0x810 common/built-in.o
 .data.sbrk_base
                0x0000000040290b18        0x8 common/built-in.o
 .data.trim_threshold
                0x0000000040290b20        0x8 common/built-in.o
 .data.image_load_addr
                0x0000000040290b28        0x8 common/built-in.o
                0x0000000040290b28                image_load_addr
 .data.stdio_names
                0x0000000040290b30       0x18 common/built-in.o
                0x0000000040290b30                stdio_names
 .data          0x0000000040290b48       0x18 drivers/built-in.o
 .data.arm_pll_bypass_sels
                0x0000000040290b60       0x10 drivers/built-in.o
 .data.dram_pll_bypass_sels
                0x0000000040290b70       0x10 drivers/built-in.o
 .data.imx8mm_a53_sels
                0x0000000040290b80       0x40 drivers/built-in.o
 .data.imx8mm_ahb_sels
                0x0000000040290bc0       0x40 drivers/built-in.o
 .data.imx8mm_arm_pll
                0x0000000040290c00       0x18 drivers/built-in.o
 .data.imx8mm_clk_ops
                0x0000000040290c18       0x40 drivers/built-in.o
 .data.imx8mm_dram_pll
                0x0000000040290c58       0x18 drivers/built-in.o
 .data.imx8mm_enet_axi_sels
                0x0000000040290c70       0x40 drivers/built-in.o
 .data.imx8mm_enet_phy_sels
                0x0000000040290cb0       0x38 drivers/built-in.o
 .data.imx8mm_enet_ref_sels
                0x0000000040290ce8       0x40 drivers/built-in.o
 .data.imx8mm_enet_timer_sels
                0x0000000040290d28       0x40 drivers/built-in.o
 .data.imx8mm_i2c1_sels
                0x0000000040290d68       0x40 drivers/built-in.o
 .data.imx8mm_i2c2_sels
                0x0000000040290da8       0x40 drivers/built-in.o
 .data.imx8mm_i2c3_sels
                0x0000000040290de8       0x40 drivers/built-in.o
 .data.imx8mm_i2c4_sels
                0x0000000040290e28       0x40 drivers/built-in.o
 .data.imx8mm_nand_usdhc_sels
                0x0000000040290e68       0x40 drivers/built-in.o
 .data.imx8mm_qspi_sels
                0x0000000040290ea8       0x40 drivers/built-in.o
 .data.imx8mm_sys_pll
                0x0000000040290ee8       0x18 drivers/built-in.o
 .data.imx8mm_usb_bus_sels
                0x0000000040290f00       0x40 drivers/built-in.o
 .data.imx8mm_usb_core_sels
                0x0000000040290f40       0x40 drivers/built-in.o
 .data.imx8mm_usb_phy_sels
                0x0000000040290f80       0x40 drivers/built-in.o
 .data.imx8mm_usdhc1_sels
                0x0000000040290fc0       0x40 drivers/built-in.o
 .data.imx8mm_usdhc2_sels
                0x0000000040291000       0x40 drivers/built-in.o
 .data.imx8mm_usdhc3_sels
                0x0000000040291040       0x40 drivers/built-in.o
 .data.imx8mm_wdog_sels
                0x0000000040291080       0x40 drivers/built-in.o
 .data.pll_ref_sels
                0x00000000402910c0       0x20 drivers/built-in.o
 .data.sys_pll1_bypass_sels
                0x00000000402910e0       0x10 drivers/built-in.o
 .data.sys_pll2_bypass_sels
                0x00000000402910f0       0x10 drivers/built-in.o
 .data.sys_pll3_bypass_sels
                0x0000000040291100       0x10 drivers/built-in.o
 .data.psci_sysreset_ops
                0x0000000040291110       0x18 drivers/built-in.o
 .data._stats   0x0000000040291128       0x14 drivers/built-in.o
 *fill*         0x000000004029113c        0x4 
 .data.block_cache
                0x0000000040291140       0x10 drivers/built-in.o
 .data.fastboot_devinfo
                0x0000000040291150        0x2 drivers/built-in.o
                0x0000000040291150                fastboot_devinfo
 *fill*         0x0000000040291152        0x6 
 .data.g_fastboot_stdio
                0x0000000040291158       0x70 drivers/built-in.o
                0x0000000040291158                g_fastboot_stdio
 .data.fastboot_common_var
                0x00000000402911c8       0x70 drivers/built-in.o
                0x00000000402911c8                fastboot_common_var
 .data.usdhc_imx7d_data
                0x0000000040291238        0x4 drivers/built-in.o
 .data.usdhc_imx8qm_data
                0x000000004029123c        0x4 drivers/built-in.o
 .data.genphy_driver
                0x0000000040291240       0x70 drivers/net/phy/built-in.o
 .data.phy_drivers
                0x00000000402912b0       0x10 drivers/net/phy/built-in.o
 .data.AR8021_driver
                0x00000000402912c0       0x70 drivers/net/phy/built-in.o
 .data.AR8031_driver
                0x0000000040291330       0x70 drivers/net/phy/built-in.o
 .data.AR8035_driver
                0x00000000402913a0       0x70 drivers/net/phy/built-in.o
 .data.mxc_base
                0x0000000040291410        0x8 drivers/serial/built-in.o
                0x0000000040291410                mxc_base
 .data.mxc_serial_drv
                0x0000000040291418       0x50 drivers/serial/built-in.o
 .data.one_time_rx_line_always_low_workaround_needed
                0x0000000040291468        0x4 drivers/serial/built-in.o
 *fill*         0x000000004029146c        0x4 
 .data.ci_ep_ops
                0x0000000040291470       0x50 drivers/usb/gadget/built-in.o
 .data.ci_udc_ops
                0x00000000402914c0       0x68 drivers/usb/gadget/built-in.o
 .data.controller
                0x0000000040291528      0x310 drivers/usb/gadget/built-in.o
 .data.ep0_desc
                0x0000000040291838        0x9 drivers/usb/gadget/built-in.o
 *fill*         0x0000000040291841        0x7 
 .data.composite_driver
                0x0000000040291848       0x48 drivers/usb/gadget/built-in.o
 .data.device_desc
                0x0000000040291890       0x12 drivers/usb/gadget/built-in.o
 *fill*         0x00000000402918a2        0x6 
 .data.g_dnl_composite_strings
                0x00000000402918a8       0x10 drivers/usb/gadget/built-in.o
 .data.g_dnl_driver
                0x00000000402918b8       0x48 drivers/usb/gadget/built-in.o
 .data.g_dnl_string_defs
                0x0000000040291900       0x40 drivers/usb/gadget/built-in.o
 .data.g_dnl_string_tab
                0x0000000040291940       0x10 drivers/usb/gadget/built-in.o
 .data.qw_sign_buf
                0x0000000040291950        0x7 drivers/usb/gadget/built-in.o
 .data.fsg_fs_bulk_in_desc
                0x0000000040291957        0x9 drivers/usb/gadget/built-in.o
 .data.fsg_fs_bulk_out_desc
                0x0000000040291960        0x9 drivers/usb/gadget/built-in.o
 *fill*         0x0000000040291969        0x7 
 .data.fsg_fs_function
                0x0000000040291970       0x20 drivers/usb/gadget/built-in.o
 .data.fsg_hs_bulk_in_desc
                0x0000000040291990        0x9 drivers/usb/gadget/built-in.o
 .data.fsg_hs_bulk_out_desc
                0x0000000040291999        0x9 drivers/usb/gadget/built-in.o
 *fill*         0x00000000402919a2        0x6 
 .data.fsg_hs_function
                0x00000000402919a8       0x20 drivers/usb/gadget/built-in.o
 .data.fsg_intf_desc
                0x00000000402919c8        0x9 drivers/usb/gadget/built-in.o
 *fill*         0x00000000402919d1        0x7 
 .data.fsg_strings
                0x00000000402919d8       0x20 drivers/usb/gadget/built-in.o
 .data.fsg_strings_array
                0x00000000402919f8       0x10 drivers/usb/gadget/built-in.o
 .data.fsg_stringtab
                0x0000000040291a08       0x10 drivers/usb/gadget/built-in.o
 .data.fastboot_string_defs
                0x0000000040291a18       0x20 drivers/usb/gadget/built-in.o
 .data.fastboot_strings
                0x0000000040291a38       0x10 drivers/usb/gadget/built-in.o
 .data.fb_cid   0x0000000040291a48       0x10 drivers/usb/gadget/built-in.o
 .data.fb_ext_prop
                0x0000000040291a58       0x30 drivers/usb/gadget/built-in.o
 .data.fb_ext_prop_data
                0x0000000040291a88       0x27 drivers/usb/gadget/built-in.o
 .data.fb_ext_prop_name
                0x0000000040291aaf       0x14 drivers/usb/gadget/built-in.o
 *fill*         0x0000000040291ac3        0x5 
 .data.fb_fs_function
                0x0000000040291ac8       0x18 drivers/usb/gadget/built-in.o
 .data.fb_hs_function
                0x0000000040291ae0       0x20 drivers/usb/gadget/built-in.o
 .data.fb_os_desc
                0x0000000040291b00       0x20 drivers/usb/gadget/built-in.o
 .data.fb_os_desc_table
                0x0000000040291b20       0x10 drivers/usb/gadget/built-in.o
 .data.fb_ss_bulk_comp_desc
                0x0000000040291b30        0x6 drivers/usb/gadget/built-in.o
 *fill*         0x0000000040291b36        0x2 
 .data.fb_ss_function
                0x0000000040291b38       0x30 drivers/usb/gadget/built-in.o
 .data.fs_ep_in
                0x0000000040291b68        0x9 drivers/usb/gadget/built-in.o
 .data.fs_ep_out
                0x0000000040291b71        0x9 drivers/usb/gadget/built-in.o
 .data.hs_ep_in
                0x0000000040291b7a        0x9 drivers/usb/gadget/built-in.o
 .data.hs_ep_out
                0x0000000040291b83        0x9 drivers/usb/gadget/built-in.o
 .data.interface_desc
                0x0000000040291b8c        0x9 drivers/usb/gadget/built-in.o
 .data.ss_ep_in
                0x0000000040291b95        0x9 drivers/usb/gadget/built-in.o
 .data.ss_ep_out
                0x0000000040291b9e        0x9 drivers/usb/gadget/built-in.o
 *fill*         0x0000000040291ba7        0x1 
 .data.stringtab_fastboot
                0x0000000040291ba8       0x10 drivers/usb/gadget/built-in.o
 .data.udc_list
                0x0000000040291bb8       0x10 drivers/usb/gadget/udc/built-in.o
 .data.descriptor
                0x0000000040291bc8       0x39 drivers/usb/host/built-in.o
 *fill*         0x0000000040291c01        0x7 
 .data.ehci_usb_ops
                0x0000000040291c08       0x58 drivers/usb/host/built-in.o
                0x0000000040291c08                ehci_usb_ops
 .data.env_htab
                0x0000000040291c60       0x18 env/built-in.o
                0x0000000040291c60                env_htab
 .data.first_call
                0x0000000040291c78        0x8 env/built-in.o
 .data.fstypes  0x0000000040291c80      0x198 fs/built-in.o
 .data.ext4fs_indir1_blkno
                0x0000000040291e18        0x4 fs/built-in.o
                0x0000000040291e18                ext4fs_indir1_blkno
 .data.ext4fs_indir2_blkno
                0x0000000040291e1c        0x4 fs/built-in.o
                0x0000000040291e1c                ext4fs_indir2_blkno
 .data.ext4fs_indir3_blkno
                0x0000000040291e20        0x4 fs/built-in.o
                0x0000000040291e20                ext4fs_indir3_blkno
 .data.prev_bg_bitmap_index.8075
                0x0000000040291e24        0x4 fs/built-in.o
 .data.prev_inode_bitmap_index.8099
                0x0000000040291e28        0x4 fs/built-in.o
 .data.prev_bg_bmap_idx.7715
                0x0000000040291e2c        0x4 fs/built-in.o
 .data.prev_bg_bmap_idx.7730
                0x0000000040291e30        0x4 fs/built-in.o
 .data.prev_bg_bmap_idx.7752
                0x0000000040291e34        0x4 fs/built-in.o
 .data.prev_bg_bmap_idx.7787
                0x0000000040291e38        0x4 fs/built-in.o
 .data.first_node
                0x0000000040291e3c        0x4 fs/built-in.o
 .data.efi_boot_services
                0x0000000040291e40      0x178 lib/built-in.o
 .data.efi_event_queue
                0x0000000040291fb8       0x10 lib/built-in.o
                0x0000000040291fb8                efi_event_queue
 .data.efi_obj_list
                0x0000000040291fc8       0x10 lib/built-in.o
                0x0000000040291fc8                efi_obj_list
 .data.efi_register_notify_events
                0x0000000040291fd8       0x10 lib/built-in.o
                0x0000000040291fd8                efi_register_notify_events
 .data.efi_tpl  0x0000000040291fe8        0x8 lib/built-in.o
 .data.entry_count
                0x0000000040291ff0        0x4 lib/built-in.o
 .data.timers_enabled
                0x0000000040291ff4        0x1 lib/built-in.o
 *fill*         0x0000000040291ff5        0x3 
 .data.cin_notify_functions
                0x0000000040291ff8       0x10 lib/built-in.o
 .data.efi_con_in
                0x0000000040292008       0x18 lib/built-in.o
                0x0000000040292008                efi_con_in
 .data.efi_con_in_ex
                0x0000000040292020       0x30 lib/built-in.o
 .data.efi_con_mode
                0x0000000040292050       0x18 lib/built-in.o
 .data.efi_con_out
                0x0000000040292068       0x50 lib/built-in.o
                0x0000000040292068                efi_con_out
 .data.efi_cout_modes
                0x00000000402920b8       0x48 lib/built-in.o
 .data.efi_keyboard_layout_list
                0x0000000040292100       0x10 lib/built-in.o
 .data.efi_package_lists
                0x0000000040292110       0x10 lib/built-in.o
 .data.efi_mem  0x0000000040292120       0x10 lib/built-in.o
                0x0000000040292120                efi_mem
 .data.efi_obj_list_initialized
                0x0000000040292130        0x8 lib/built-in.o
 .data.capitalization_table
                0x0000000040292138      0xed0 lib/built-in.o
 .data.sha256_padding
                0x0000000040293008       0x40 lib/built-in.o
 .data.y        0x0000000040293048        0x4 lib/built-in.o
 .data.first_call.7575
                0x000000004029304c        0x4 net/built-in.o
 .data.net_native_vlan
                0x0000000040293050        0x2 net/built-in.o
                0x0000000040293050                net_native_vlan
 .data.net_our_vlan
                0x0000000040293052        0x2 net/built-in.o
                0x0000000040293052                net_our_vlan
 .data.nfs_offset
                0x0000000040293054        0x4 net/built-in.o
 .data.supported_nfs_versions
                0x0000000040293058        0x1 net/built-in.o
 *fill*         0x0000000040293059        0x1 
 .data.tftp_block_size
                0x000000004029305a        0x2 net/built-in.o
 .data.tftp_block_size_option
                0x000000004029305c        0x2 net/built-in.o
 *fill*         0x000000004029305e        0x2 
 .data.tftp_timeout_count_max
                0x0000000040293060        0x4 net/built-in.o
                0x0000000040293060                tftp_timeout_count_max
 .data.timeout_count_max
                0x0000000040293064        0x4 net/built-in.o
 .data.timeout_ms
                0x0000000040293068        0x8 net/built-in.o

.got            0x0000000040293070        0x8
 .got           0x0000000040293070        0x8 arch/arm/cpu/armv8/start.o
                0x0000000040293070                _GLOBAL_OFFSET_TABLE_

.got.plt        0x0000000040293078       0x18
 .got.plt       0x0000000040293078       0x18 arch/arm/cpu/armv8/start.o
                0x0000000040293090                . = ALIGN (0x8)
                0x0000000040293090                . = .
                0x0000000040293090                . = ALIGN (0x8)

.u_boot_list    0x0000000040293090     0x3798
 *(SORT_BY_NAME(.u_boot_list*))
 .u_boot_list_2_cmd_1
                0x0000000040293090        0x0 cmd/built-in.o
 .u_boot_list_2_cmd_1
                0x0000000040293090        0x0 common/built-in.o
 .u_boot_list_2_cmd_2_base
                0x0000000040293090       0x38 cmd/built-in.o
                0x0000000040293090                _u_boot_list_2_cmd_2_base
 .u_boot_list_2_cmd_2_bdinfo
                0x00000000402930c8       0x38 cmd/built-in.o
                0x00000000402930c8                _u_boot_list_2_cmd_2_bdinfo
 .u_boot_list_2_cmd_2_blkcache
                0x0000000040293100       0x38 cmd/built-in.o
                0x0000000040293100                _u_boot_list_2_cmd_2_blkcache
 .u_boot_list_2_cmd_2_boot
                0x0000000040293138       0x38 cmd/built-in.o
                0x0000000040293138                _u_boot_list_2_cmd_2_boot
 .u_boot_list_2_cmd_2_bootaux
                0x0000000040293170       0x38 arch/arm/mach-imx/built-in.o
                0x0000000040293170                _u_boot_list_2_cmd_2_bootaux
 .u_boot_list_2_cmd_2_bootd
                0x00000000402931a8       0x38 cmd/built-in.o
                0x00000000402931a8                _u_boot_list_2_cmd_2_bootd
 .u_boot_list_2_cmd_2_bootefi
                0x00000000402931e0       0x38 cmd/built-in.o
                0x00000000402931e0                _u_boot_list_2_cmd_2_bootefi
 .u_boot_list_2_cmd_2_bootelf
                0x0000000040293218       0x38 cmd/built-in.o
                0x0000000040293218                _u_boot_list_2_cmd_2_bootelf
 .u_boot_list_2_cmd_2_booti
                0x0000000040293250       0x38 cmd/built-in.o
                0x0000000040293250                _u_boot_list_2_cmd_2_booti
 .u_boot_list_2_cmd_2_bootm
                0x0000000040293288       0x38 cmd/built-in.o
                0x0000000040293288                _u_boot_list_2_cmd_2_bootm
 .u_boot_list_2_cmd_2_bootp
                0x00000000402932c0       0x38 cmd/built-in.o
                0x00000000402932c0                _u_boot_list_2_cmd_2_bootp
 .u_boot_list_2_cmd_2_bootvx
                0x00000000402932f8       0x38 cmd/built-in.o
                0x00000000402932f8                _u_boot_list_2_cmd_2_bootvx
 .u_boot_list_2_cmd_2_clk
                0x0000000040293330       0x38 cmd/built-in.o
                0x0000000040293330                _u_boot_list_2_cmd_2_clk
 .u_boot_list_2_cmd_2_clocks
                0x0000000040293368       0x38 arch/arm/mach-imx/built-in.o
                0x0000000040293368                _u_boot_list_2_cmd_2_clocks
 .u_boot_list_2_cmd_2_cmp
                0x00000000402933a0       0x38 cmd/built-in.o
                0x00000000402933a0                _u_boot_list_2_cmd_2_cmp
 .u_boot_list_2_cmd_2_coninfo
                0x00000000402933d8       0x38 cmd/built-in.o
                0x00000000402933d8                _u_boot_list_2_cmd_2_coninfo
 .u_boot_list_2_cmd_2_cp
                0x0000000040293410       0x38 cmd/built-in.o
                0x0000000040293410                _u_boot_list_2_cmd_2_cp
 .u_boot_list_2_cmd_2_crc32
                0x0000000040293448       0x38 cmd/built-in.o
                0x0000000040293448                _u_boot_list_2_cmd_2_crc32
 .u_boot_list_2_cmd_2_dcache
                0x0000000040293480       0x38 cmd/built-in.o
                0x0000000040293480                _u_boot_list_2_cmd_2_dcache
 .u_boot_list_2_cmd_2_dhcp
                0x00000000402934b8       0x38 cmd/built-in.o
                0x00000000402934b8                _u_boot_list_2_cmd_2_dhcp
 .u_boot_list_2_cmd_2_dm
                0x00000000402934f0       0x38 cmd/built-in.o
                0x00000000402934f0                _u_boot_list_2_cmd_2_dm
 .u_boot_list_2_cmd_2_echo
                0x0000000040293528       0x38 cmd/built-in.o
                0x0000000040293528                _u_boot_list_2_cmd_2_echo
 .u_boot_list_2_cmd_2_editenv
                0x0000000040293560       0x38 cmd/built-in.o
                0x0000000040293560                _u_boot_list_2_cmd_2_editenv
 .u_boot_list_2_cmd_2_env
                0x0000000040293598       0x38 cmd/built-in.o
                0x0000000040293598                _u_boot_list_2_cmd_2_env
 .u_boot_list_2_cmd_2_exit
                0x00000000402935d0       0x38 cmd/built-in.o
                0x00000000402935d0                _u_boot_list_2_cmd_2_exit
 .u_boot_list_2_cmd_2_ext4load
                0x0000000040293608       0x38 cmd/built-in.o
                0x0000000040293608                _u_boot_list_2_cmd_2_ext4load
 .u_boot_list_2_cmd_2_ext4ls
                0x0000000040293640       0x38 cmd/built-in.o
                0x0000000040293640                _u_boot_list_2_cmd_2_ext4ls
 .u_boot_list_2_cmd_2_ext4size
                0x0000000040293678       0x38 cmd/built-in.o
                0x0000000040293678                _u_boot_list_2_cmd_2_ext4size
 .u_boot_list_2_cmd_2_ext4write
                0x00000000402936b0       0x38 cmd/built-in.o
                0x00000000402936b0                _u_boot_list_2_cmd_2_ext4write
 .u_boot_list_2_cmd_2_false
                0x00000000402936e8       0x38 cmd/built-in.o
                0x00000000402936e8                _u_boot_list_2_cmd_2_false
 .u_boot_list_2_cmd_2_fastboot
                0x0000000040293720       0x38 cmd/built-in.o
                0x0000000040293720                _u_boot_list_2_cmd_2_fastboot
 .u_boot_list_2_cmd_2_fatinfo
                0x0000000040293758       0x38 cmd/built-in.o
                0x0000000040293758                _u_boot_list_2_cmd_2_fatinfo
 .u_boot_list_2_cmd_2_fatload
                0x0000000040293790       0x38 cmd/built-in.o
                0x0000000040293790                _u_boot_list_2_cmd_2_fatload
 .u_boot_list_2_cmd_2_fatls
                0x00000000402937c8       0x38 cmd/built-in.o
                0x00000000402937c8                _u_boot_list_2_cmd_2_fatls
 .u_boot_list_2_cmd_2_fatmkdir
                0x0000000040293800       0x38 cmd/built-in.o
                0x0000000040293800                _u_boot_list_2_cmd_2_fatmkdir
 .u_boot_list_2_cmd_2_fatrm
                0x0000000040293838       0x38 cmd/built-in.o
                0x0000000040293838                _u_boot_list_2_cmd_2_fatrm
 .u_boot_list_2_cmd_2_fatsize
                0x0000000040293870       0x38 cmd/built-in.o
                0x0000000040293870                _u_boot_list_2_cmd_2_fatsize
 .u_boot_list_2_cmd_2_fatwrite
                0x00000000402938a8       0x38 cmd/built-in.o
                0x00000000402938a8                _u_boot_list_2_cmd_2_fatwrite
 .u_boot_list_2_cmd_2_fdt
                0x00000000402938e0       0x38 cmd/built-in.o
                0x00000000402938e0                _u_boot_list_2_cmd_2_fdt
 .u_boot_list_2_cmd_2_fstype
                0x0000000040293918       0x38 cmd/built-in.o
                0x0000000040293918                _u_boot_list_2_cmd_2_fstype
 .u_boot_list_2_cmd_2_fuse
                0x0000000040293950       0x38 cmd/built-in.o
                0x0000000040293950                _u_boot_list_2_cmd_2_fuse
 .u_boot_list_2_cmd_2_go
                0x0000000040293988       0x38 cmd/built-in.o
                0x0000000040293988                _u_boot_list_2_cmd_2_go
 .u_boot_list_2_cmd_2_gpio
                0x00000000402939c0       0x38 cmd/built-in.o
                0x00000000402939c0                _u_boot_list_2_cmd_2_gpio
 .u_boot_list_2_cmd_2_gpt
                0x00000000402939f8       0x38 cmd/built-in.o
                0x00000000402939f8                _u_boot_list_2_cmd_2_gpt
 .u_boot_list_2_cmd_2_gzwrite
                0x0000000040293a30       0x38 cmd/built-in.o
                0x0000000040293a30                _u_boot_list_2_cmd_2_gzwrite
 .u_boot_list_2_cmd_2_help
                0x0000000040293a68       0x38 cmd/built-in.o
                0x0000000040293a68                _u_boot_list_2_cmd_2_help
 .u_boot_list_2_cmd_2_i2c
                0x0000000040293aa0       0x38 cmd/built-in.o
                0x0000000040293aa0                _u_boot_list_2_cmd_2_i2c
 .u_boot_list_2_cmd_2_icache
                0x0000000040293ad8       0x38 cmd/built-in.o
                0x0000000040293ad8                _u_boot_list_2_cmd_2_icache
 .u_boot_list_2_cmd_2_iminfo
                0x0000000040293b10       0x38 cmd/built-in.o
                0x0000000040293b10                _u_boot_list_2_cmd_2_iminfo
 .u_boot_list_2_cmd_2_imxtract
                0x0000000040293b48       0x38 cmd/built-in.o
                0x0000000040293b48                _u_boot_list_2_cmd_2_imxtract
 .u_boot_list_2_cmd_2_itest
                0x0000000040293b80       0x38 cmd/built-in.o
                0x0000000040293b80                _u_boot_list_2_cmd_2_itest
 .u_boot_list_2_cmd_2_ln
                0x0000000040293bb8       0x38 cmd/built-in.o
                0x0000000040293bb8                _u_boot_list_2_cmd_2_ln
 .u_boot_list_2_cmd_2_load
                0x0000000040293bf0       0x38 cmd/built-in.o
                0x0000000040293bf0                _u_boot_list_2_cmd_2_load
 .u_boot_list_2_cmd_2_loadb
                0x0000000040293c28       0x38 cmd/built-in.o
                0x0000000040293c28                _u_boot_list_2_cmd_2_loadb
 .u_boot_list_2_cmd_2_loads
                0x0000000040293c60       0x38 cmd/built-in.o
                0x0000000040293c60                _u_boot_list_2_cmd_2_loads
 .u_boot_list_2_cmd_2_loadx
                0x0000000040293c98       0x38 cmd/built-in.o
                0x0000000040293c98                _u_boot_list_2_cmd_2_loadx
 .u_boot_list_2_cmd_2_loady
                0x0000000040293cd0       0x38 cmd/built-in.o
                0x0000000040293cd0                _u_boot_list_2_cmd_2_loady
 .u_boot_list_2_cmd_2_loop
                0x0000000040293d08       0x38 cmd/built-in.o
                0x0000000040293d08                _u_boot_list_2_cmd_2_loop
 .u_boot_list_2_cmd_2_ls
                0x0000000040293d40       0x38 cmd/built-in.o
                0x0000000040293d40                _u_boot_list_2_cmd_2_ls
 .u_boot_list_2_cmd_2_lzmadec
                0x0000000040293d78       0x38 cmd/built-in.o
                0x0000000040293d78                _u_boot_list_2_cmd_2_lzmadec
 .u_boot_list_2_cmd_2_md
                0x0000000040293db0       0x38 cmd/built-in.o
                0x0000000040293db0                _u_boot_list_2_cmd_2_md
 .u_boot_list_2_cmd_2_mdio
                0x0000000040293de8       0x38 cmd/built-in.o
                0x0000000040293de8                _u_boot_list_2_cmd_2_mdio
 .u_boot_list_2_cmd_2_mii
                0x0000000040293e20       0x38 cmd/built-in.o
                0x0000000040293e20                _u_boot_list_2_cmd_2_mii
 .u_boot_list_2_cmd_2_mm
                0x0000000040293e58       0x38 cmd/built-in.o
                0x0000000040293e58                _u_boot_list_2_cmd_2_mm
 .u_boot_list_2_cmd_2_mmc
                0x0000000040293e90       0x38 cmd/built-in.o
                0x0000000040293e90                _u_boot_list_2_cmd_2_mmc
 .u_boot_list_2_cmd_2_mmcinfo
                0x0000000040293ec8       0x38 cmd/built-in.o
                0x0000000040293ec8                _u_boot_list_2_cmd_2_mmcinfo
 .u_boot_list_2_cmd_2_mtest
                0x0000000040293f00       0x38 cmd/built-in.o
                0x0000000040293f00                _u_boot_list_2_cmd_2_mtest
 .u_boot_list_2_cmd_2_mw
                0x0000000040293f38       0x38 cmd/built-in.o
                0x0000000040293f38                _u_boot_list_2_cmd_2_mw
 .u_boot_list_2_cmd_2_nfs
                0x0000000040293f70       0x38 cmd/built-in.o
                0x0000000040293f70                _u_boot_list_2_cmd_2_nfs
 .u_boot_list_2_cmd_2_nm
                0x0000000040293fa8       0x38 cmd/built-in.o
                0x0000000040293fa8                _u_boot_list_2_cmd_2_nm
 .u_boot_list_2_cmd_2_ping
                0x0000000040293fe0       0x38 cmd/built-in.o
                0x0000000040293fe0                _u_boot_list_2_cmd_2_ping
 .u_boot_list_2_cmd_2_pinmux
                0x0000000040294018       0x38 cmd/built-in.o
                0x0000000040294018                _u_boot_list_2_cmd_2_pinmux
 .u_boot_list_2_cmd_2_printenv
                0x0000000040294050       0x38 cmd/built-in.o
                0x0000000040294050                _u_boot_list_2_cmd_2_printenv
 .u_boot_list_2_cmd_2_question_mark
                0x0000000040294088       0x38 cmd/built-in.o
                0x0000000040294088                _u_boot_list_2_cmd_2_question_mark
 .u_boot_list_2_cmd_2_random
                0x00000000402940c0       0x38 cmd/built-in.o
                0x00000000402940c0                _u_boot_list_2_cmd_2_random
 .u_boot_list_2_cmd_2_read
                0x00000000402940f8       0x38 cmd/built-in.o
                0x00000000402940f8                _u_boot_list_2_cmd_2_read
 .u_boot_list_2_cmd_2_regulator
                0x0000000040294130       0x38 cmd/built-in.o
                0x0000000040294130                _u_boot_list_2_cmd_2_regulator
 .u_boot_list_2_cmd_2_reset
                0x0000000040294168       0x38 cmd/built-in.o
                0x0000000040294168                _u_boot_list_2_cmd_2_reset
 .u_boot_list_2_cmd_2_run
                0x00000000402941a0       0x38 cmd/built-in.o
                0x00000000402941a0                _u_boot_list_2_cmd_2_run
 .u_boot_list_2_cmd_2_save
                0x00000000402941d8       0x38 cmd/built-in.o
                0x00000000402941d8                _u_boot_list_2_cmd_2_save
 .u_boot_list_2_cmd_2_saveenv
                0x0000000040294210       0x38 cmd/built-in.o
                0x0000000040294210                _u_boot_list_2_cmd_2_saveenv
 .u_boot_list_2_cmd_2_setenv
                0x0000000040294248       0x38 cmd/built-in.o
                0x0000000040294248                _u_boot_list_2_cmd_2_setenv
 .u_boot_list_2_cmd_2_setexpr
                0x0000000040294280       0x38 cmd/built-in.o
                0x0000000040294280                _u_boot_list_2_cmd_2_setexpr
 .u_boot_list_2_cmd_2_showvar
                0x00000000402942b8       0x38 common/built-in.o
                0x00000000402942b8                _u_boot_list_2_cmd_2_showvar
 .u_boot_list_2_cmd_2_size
                0x00000000402942f0       0x38 cmd/built-in.o
                0x00000000402942f0                _u_boot_list_2_cmd_2_size
 .u_boot_list_2_cmd_2_sleep
                0x0000000040294328       0x38 cmd/built-in.o
                0x0000000040294328                _u_boot_list_2_cmd_2_sleep
 .u_boot_list_2_cmd_2_source
                0x0000000040294360       0x38 cmd/built-in.o
                0x0000000040294360                _u_boot_list_2_cmd_2_source
 .u_boot_list_2_cmd_2_test
                0x0000000040294398       0x38 cmd/built-in.o
                0x0000000040294398                _u_boot_list_2_cmd_2_test
 .u_boot_list_2_cmd_2_tftpboot
                0x00000000402943d0       0x38 cmd/built-in.o
                0x00000000402943d0                _u_boot_list_2_cmd_2_tftpboot
 .u_boot_list_2_cmd_2_true
                0x0000000040294408       0x38 cmd/built-in.o
                0x0000000040294408                _u_boot_list_2_cmd_2_true
 .u_boot_list_2_cmd_2_ums
                0x0000000040294440       0x38 cmd/built-in.o
                0x0000000040294440                _u_boot_list_2_cmd_2_ums
 .u_boot_list_2_cmd_2_unzip
                0x0000000040294478       0x38 cmd/built-in.o
                0x0000000040294478                _u_boot_list_2_cmd_2_unzip
 .u_boot_list_2_cmd_2_usb
                0x00000000402944b0       0x38 cmd/built-in.o
                0x00000000402944b0                _u_boot_list_2_cmd_2_usb
 .u_boot_list_2_cmd_2_usbboot
                0x00000000402944e8       0x38 cmd/built-in.o
                0x00000000402944e8                _u_boot_list_2_cmd_2_usbboot
 .u_boot_list_2_cmd_2_version
                0x0000000040294520       0x38 cmd/built-in.o
                0x0000000040294520                _u_boot_list_2_cmd_2_version
 .u_boot_list_2_cmd_3
                0x0000000040294558        0x0 cmd/built-in.o
 .u_boot_list_2_cmd_3
                0x0000000040294558        0x0 common/built-in.o
 .u_boot_list_2_driver_1
                0x0000000040294558        0x0 drivers/built-in.o
 .u_boot_list_2_driver_1
                0x0000000040294558        0x0 lib/built-in.o
 .u_boot_list_2_driver_2_ccf_clk_divider
                0x0000000040294558       0x80 drivers/built-in.o
                0x0000000040294558                _u_boot_list_2_driver_2_ccf_clk_divider
 .u_boot_list_2_driver_2_ccf_clk_mux
                0x00000000402945d8       0x80 drivers/built-in.o
                0x00000000402945d8                _u_boot_list_2_driver_2_ccf_clk_mux
 .u_boot_list_2_driver_2_ci_udc_otg
                0x0000000040294658       0x80 drivers/usb/gadget/built-in.o
                0x0000000040294658                _u_boot_list_2_driver_2_ci_udc_otg
 .u_boot_list_2_driver_2_clk_composite
                0x00000000402946d8       0x80 drivers/built-in.o
                0x00000000402946d8                _u_boot_list_2_driver_2_clk_composite
 .u_boot_list_2_driver_2_clk_fixed_factor
                0x0000000040294758       0x80 drivers/built-in.o
                0x0000000040294758                _u_boot_list_2_driver_2_clk_fixed_factor
 .u_boot_list_2_driver_2_clk_fixed_rate
                0x00000000402947d8       0x80 drivers/built-in.o
                0x00000000402947d8                _u_boot_list_2_driver_2_clk_fixed_rate
 .u_boot_list_2_driver_2_clk_gate
                0x0000000040294858       0x80 drivers/built-in.o
                0x0000000040294858                _u_boot_list_2_driver_2_clk_gate
 .u_boot_list_2_driver_2_clk_gate2
                0x00000000402948d8       0x80 drivers/built-in.o
                0x00000000402948d8                _u_boot_list_2_driver_2_clk_gate2
 .u_boot_list_2_driver_2_clk_pfd
                0x0000000040294958       0x80 drivers/built-in.o
                0x0000000040294958                _u_boot_list_2_driver_2_clk_pfd
 .u_boot_list_2_driver_2_clk_pll1416x
                0x00000000402949d8       0x80 drivers/built-in.o
                0x00000000402949d8                _u_boot_list_2_driver_2_clk_pll1416x
 .u_boot_list_2_driver_2_clk_pll1443x
                0x0000000040294a58       0x80 drivers/built-in.o
                0x0000000040294a58                _u_boot_list_2_driver_2_clk_pll1443x
 .u_boot_list_2_driver_2_clk_pllv3_av
                0x0000000040294ad8       0x80 drivers/built-in.o
                0x0000000040294ad8                _u_boot_list_2_driver_2_clk_pllv3_av
 .u_boot_list_2_driver_2_clk_pllv3_generic
                0x0000000040294b58       0x80 drivers/built-in.o
                0x0000000040294b58                _u_boot_list_2_driver_2_clk_pllv3_generic
 .u_boot_list_2_driver_2_clk_pllv3_sys
                0x0000000040294bd8       0x80 drivers/built-in.o
                0x0000000040294bd8                _u_boot_list_2_driver_2_clk_pllv3_sys
 .u_boot_list_2_driver_2_clk_pllv3_usb
                0x0000000040294c58       0x80 drivers/built-in.o
                0x0000000040294c58                _u_boot_list_2_driver_2_clk_pllv3_usb
 .u_boot_list_2_driver_2_efi_blk
                0x0000000040294cd8       0x80 lib/built-in.o
                0x0000000040294cd8                _u_boot_list_2_driver_2_efi_blk
 .u_boot_list_2_driver_2_efi_block
                0x0000000040294d58       0x80 lib/built-in.o
                0x0000000040294d58                _u_boot_list_2_driver_2_efi_block
 .u_boot_list_2_driver_2_fecmxc_gem
                0x0000000040294dd8       0x80 drivers/net/built-in.o
                0x0000000040294dd8                _u_boot_list_2_driver_2_fecmxc_gem
 .u_boot_list_2_driver_2_fixed_regulator
                0x0000000040294e58       0x80 drivers/power/regulator/built-in.o
                0x0000000040294e58                _u_boot_list_2_driver_2_fixed_regulator
 .u_boot_list_2_driver_2_fsl_esdhc
                0x0000000040294ed8       0x80 drivers/built-in.o
                0x0000000040294ed8                _u_boot_list_2_driver_2_fsl_esdhc
 .u_boot_list_2_driver_2_generic_syscon
                0x0000000040294f58       0x80 drivers/built-in.o
                0x0000000040294f58                _u_boot_list_2_driver_2_generic_syscon
 .u_boot_list_2_driver_2_gpio_mxc
                0x0000000040294fd8       0x80 drivers/gpio/built-in.o
                0x0000000040294fd8                _u_boot_list_2_driver_2_gpio_mxc
 .u_boot_list_2_driver_2_gpio_regulator
                0x0000000040295058       0x80 drivers/power/regulator/built-in.o
                0x0000000040295058                _u_boot_list_2_driver_2_gpio_regulator
 .u_boot_list_2_driver_2_i2c_generic_chip_drv
                0x00000000402950d8       0x80 drivers/i2c/built-in.o
                0x00000000402950d8                _u_boot_list_2_driver_2_i2c_generic_chip_drv
 .u_boot_list_2_driver_2_i2c_mxc
                0x0000000040295158       0x80 drivers/i2c/built-in.o
                0x0000000040295158                _u_boot_list_2_driver_2_i2c_mxc
 .u_boot_list_2_driver_2_imx7_reset
                0x00000000402951d8       0x80 drivers/built-in.o
                0x00000000402951d8                _u_boot_list_2_driver_2_imx7_reset
 .u_boot_list_2_driver_2_imx8mm_clk
                0x0000000040295258       0x80 drivers/built-in.o
                0x0000000040295258                _u_boot_list_2_driver_2_imx8mm_clk
 .u_boot_list_2_driver_2_imx8mq_pinctrl
                0x00000000402952d8       0x80 drivers/built-in.o
                0x00000000402952d8                _u_boot_list_2_driver_2_imx8mq_pinctrl
 .u_boot_list_2_driver_2_imx_clk_fixed_factor
                0x0000000040295358       0x80 drivers/built-in.o
                0x0000000040295358                _u_boot_list_2_driver_2_imx_clk_fixed_factor
 .u_boot_list_2_driver_2_mmc_blk
                0x00000000402953d8       0x80 drivers/built-in.o
                0x00000000402953d8                _u_boot_list_2_driver_2_mmc_blk
 .u_boot_list_2_driver_2_nxp_tmu
                0x0000000040295458       0x80 drivers/built-in.o
                0x0000000040295458                _u_boot_list_2_driver_2_nxp_tmu
 .u_boot_list_2_driver_2_pinconfig_generic
                0x00000000402954d8       0x80 drivers/built-in.o
                0x00000000402954d8                _u_boot_list_2_driver_2_pinconfig_generic
 .u_boot_list_2_driver_2_psci
                0x0000000040295558       0x80 drivers/built-in.o
                0x0000000040295558                _u_boot_list_2_driver_2_psci
 .u_boot_list_2_driver_2_psci_sysreset
                0x00000000402955d8       0x80 drivers/built-in.o
                0x00000000402955d8                _u_boot_list_2_driver_2_psci_sysreset
 .u_boot_list_2_driver_2_root_driver
                0x0000000040295658       0x80 drivers/built-in.o
                0x0000000040295658                _u_boot_list_2_driver_2_root_driver
 .u_boot_list_2_driver_2_simple_bus_drv
                0x00000000402956d8       0x80 drivers/built-in.o
                0x00000000402956d8                _u_boot_list_2_driver_2_simple_bus_drv
 .u_boot_list_2_driver_2_usb_dev_generic_drv
                0x0000000040295758       0x80 drivers/usb/host/built-in.o
                0x0000000040295758                _u_boot_list_2_driver_2_usb_dev_generic_drv
 .u_boot_list_2_driver_2_usb_generic_hub
                0x00000000402957d8       0x80 common/built-in.o
                0x00000000402957d8                _u_boot_list_2_driver_2_usb_generic_hub
 .u_boot_list_2_driver_2_usb_mass_storage
                0x0000000040295858       0x80 common/built-in.o
                0x0000000040295858                _u_boot_list_2_driver_2_usb_mass_storage
 .u_boot_list_2_driver_2_usb_mx6
                0x00000000402958d8       0x80 drivers/usb/host/built-in.o
                0x00000000402958d8                _u_boot_list_2_driver_2_usb_mx6
 .u_boot_list_2_driver_2_usb_storage_blk
                0x0000000040295958       0x80 common/built-in.o
                0x0000000040295958                _u_boot_list_2_driver_2_usb_storage_blk
 .u_boot_list_2_driver_3
                0x00000000402959d8        0x0 drivers/built-in.o
 .u_boot_list_2_driver_3
                0x00000000402959d8        0x0 lib/built-in.o
 .u_boot_list_2_driver_info_1
                0x00000000402959d8        0x0 drivers/built-in.o
 .u_boot_list_2_driver_info_3
                0x00000000402959d8        0x0 drivers/built-in.o
 .u_boot_list_2_env_clbk_1
                0x00000000402959d8        0x0 env/built-in.o
 .u_boot_list_2_env_clbk_2_baudrate
                0x00000000402959d8       0x10 drivers/serial/built-in.o
                0x00000000402959d8                _u_boot_list_2_env_clbk_2_baudrate
 .u_boot_list_2_env_clbk_2_callbacks
                0x00000000402959e8       0x10 env/built-in.o
                0x00000000402959e8                _u_boot_list_2_env_clbk_2_callbacks
 .u_boot_list_2_env_clbk_2_console
                0x00000000402959f8       0x10 common/built-in.o
                0x00000000402959f8                _u_boot_list_2_env_clbk_2_console
 .u_boot_list_2_env_clbk_2_ethaddr
                0x0000000040295a08       0x10 net/built-in.o
                0x0000000040295a08                _u_boot_list_2_env_clbk_2_ethaddr
 .u_boot_list_2_env_clbk_2_flags
                0x0000000040295a18       0x10 env/built-in.o
                0x0000000040295a18                _u_boot_list_2_env_clbk_2_flags
 .u_boot_list_2_env_clbk_2_gatewayip
                0x0000000040295a28       0x10 net/built-in.o
                0x0000000040295a28                _u_boot_list_2_env_clbk_2_gatewayip
 .u_boot_list_2_env_clbk_2_ipaddr
                0x0000000040295a38       0x10 net/built-in.o
                0x0000000040295a38                _u_boot_list_2_env_clbk_2_ipaddr
 .u_boot_list_2_env_clbk_2_loadaddr
                0x0000000040295a48       0x10 common/built-in.o
                0x0000000040295a48                _u_boot_list_2_env_clbk_2_loadaddr
 .u_boot_list_2_env_clbk_2_netmask
                0x0000000040295a58       0x10 net/built-in.o
                0x0000000040295a58                _u_boot_list_2_env_clbk_2_netmask
 .u_boot_list_2_env_clbk_2_nvlan
                0x0000000040295a68       0x10 net/built-in.o
                0x0000000040295a68                _u_boot_list_2_env_clbk_2_nvlan
 .u_boot_list_2_env_clbk_2_serialno
                0x0000000040295a78       0x10 drivers/usb/gadget/built-in.o
                0x0000000040295a78                _u_boot_list_2_env_clbk_2_serialno
 .u_boot_list_2_env_clbk_2_serverip
                0x0000000040295a88       0x10 net/built-in.o
                0x0000000040295a88                _u_boot_list_2_env_clbk_2_serverip
 .u_boot_list_2_env_clbk_2_vlan
                0x0000000040295a98       0x10 net/built-in.o
                0x0000000040295a98                _u_boot_list_2_env_clbk_2_vlan
 .u_boot_list_2_env_clbk_3
                0x0000000040295aa8        0x0 env/built-in.o
 .u_boot_list_2_env_driver_1
                0x0000000040295aa8        0x0 env/built-in.o
 .u_boot_list_2_env_driver_2_mmc
                0x0000000040295aa8       0x30 env/built-in.o
                0x0000000040295aa8                _u_boot_list_2_env_driver_2_mmc
 .u_boot_list_2_env_driver_3
                0x0000000040295ad8        0x0 env/built-in.o
 .u_boot_list_2_fit_loadable_1
                0x0000000040295ad8        0x0 common/built-in.o
 .u_boot_list_2_fit_loadable_3
                0x0000000040295ad8        0x0 common/built-in.o
 .u_boot_list_2_g_dnl_bind_callbacks_1
                0x0000000040295ad8        0x0 drivers/usb/gadget/built-in.o
 .u_boot_list_2_g_dnl_bind_callbacks_2___usb_function_name_usb_dnl_fastboot
                0x0000000040295ad8       0x10 drivers/usb/gadget/built-in.o
                0x0000000040295ad8                _u_boot_list_2_g_dnl_bind_callbacks_2___usb_function_name_usb_dnl_fastboot
 .u_boot_list_2_g_dnl_bind_callbacks_2___usb_function_name_usb_dnl_ums
                0x0000000040295ae8       0x10 drivers/usb/gadget/built-in.o
                0x0000000040295ae8                _u_boot_list_2_g_dnl_bind_callbacks_2___usb_function_name_usb_dnl_ums
 .u_boot_list_2_part_driver_1
                0x0000000040295af8        0x0 disk/built-in.o
 .u_boot_list_2_part_driver_2_a_efi
                0x0000000040295af8       0x28 disk/built-in.o
                0x0000000040295af8                _u_boot_list_2_part_driver_2_a_efi
 .u_boot_list_2_part_driver_2_dos
                0x0000000040295b20       0x28 disk/built-in.o
                0x0000000040295b20                _u_boot_list_2_part_driver_2_dos
 .u_boot_list_2_part_driver_3
                0x0000000040295b48        0x0 disk/built-in.o
 .u_boot_list_2_uclass_1
                0x0000000040295b48        0x0 drivers/built-in.o
 .u_boot_list_2_uclass_2_blk
                0x0000000040295b48       0x88 drivers/built-in.o
                0x0000000040295b48                _u_boot_list_2_uclass_2_blk
 .u_boot_list_2_uclass_2_clk
                0x0000000040295bd0       0x88 drivers/built-in.o
                0x0000000040295bd0                _u_boot_list_2_uclass_2_clk
 .u_boot_list_2_uclass_2_efi
                0x0000000040295c58       0x88 lib/built-in.o
                0x0000000040295c58                _u_boot_list_2_uclass_2_efi
 .u_boot_list_2_uclass_2_eth
                0x0000000040295ce0       0x88 net/built-in.o
                0x0000000040295ce0                _u_boot_list_2_uclass_2_eth
 .u_boot_list_2_uclass_2_firmware
                0x0000000040295d68       0x88 drivers/built-in.o
                0x0000000040295d68                _u_boot_list_2_uclass_2_firmware
 .u_boot_list_2_uclass_2_gpio
                0x0000000040295df0       0x88 drivers/gpio/built-in.o
                0x0000000040295df0                _u_boot_list_2_uclass_2_gpio
 .u_boot_list_2_uclass_2_i2c
                0x0000000040295e78       0x88 drivers/i2c/built-in.o
                0x0000000040295e78                _u_boot_list_2_uclass_2_i2c
 .u_boot_list_2_uclass_2_i2c_generic
                0x0000000040295f00       0x88 drivers/i2c/built-in.o
                0x0000000040295f00                _u_boot_list_2_uclass_2_i2c_generic
 .u_boot_list_2_uclass_2_mmc
                0x0000000040295f88       0x88 drivers/built-in.o
                0x0000000040295f88                _u_boot_list_2_uclass_2_mmc
 .u_boot_list_2_uclass_2_nop
                0x0000000040296010       0x88 drivers/built-in.o
                0x0000000040296010                _u_boot_list_2_uclass_2_nop
 .u_boot_list_2_uclass_2_pinconfig
                0x0000000040296098       0x88 drivers/built-in.o
                0x0000000040296098                _u_boot_list_2_uclass_2_pinconfig
 .u_boot_list_2_uclass_2_pinctrl
                0x0000000040296120       0x88 drivers/built-in.o
                0x0000000040296120                _u_boot_list_2_uclass_2_pinctrl
 .u_boot_list_2_uclass_2_regulator
                0x00000000402961a8       0x88 drivers/power/regulator/built-in.o
                0x00000000402961a8                _u_boot_list_2_uclass_2_regulator
 .u_boot_list_2_uclass_2_reset
                0x0000000040296230       0x88 drivers/built-in.o
                0x0000000040296230                _u_boot_list_2_uclass_2_reset
 .u_boot_list_2_uclass_2_root
                0x00000000402962b8       0x88 drivers/built-in.o
                0x00000000402962b8                _u_boot_list_2_uclass_2_root
 .u_boot_list_2_uclass_2_simple_bus
                0x0000000040296340       0x88 drivers/built-in.o
                0x0000000040296340                _u_boot_list_2_uclass_2_simple_bus
 .u_boot_list_2_uclass_2_syscon
                0x00000000402963c8       0x88 drivers/built-in.o
                0x00000000402963c8                _u_boot_list_2_uclass_2_syscon
 .u_boot_list_2_uclass_2_sysreset
                0x0000000040296450       0x88 drivers/built-in.o
                0x0000000040296450                _u_boot_list_2_uclass_2_sysreset
 .u_boot_list_2_uclass_2_thermal
                0x00000000402964d8       0x88 drivers/built-in.o
                0x00000000402964d8                _u_boot_list_2_uclass_2_thermal
 .u_boot_list_2_uclass_2_usb
                0x0000000040296560       0x88 drivers/usb/host/built-in.o
                0x0000000040296560                _u_boot_list_2_uclass_2_usb
 .u_boot_list_2_uclass_2_usb_dev_generic
                0x00000000402965e8       0x88 drivers/usb/host/built-in.o
                0x00000000402965e8                _u_boot_list_2_uclass_2_usb_dev_generic
 .u_boot_list_2_uclass_2_usb_gadget_generic
                0x0000000040296670       0x88 drivers/usb/gadget/udc/built-in.o
                0x0000000040296670                _u_boot_list_2_uclass_2_usb_gadget_generic
 .u_boot_list_2_uclass_2_usb_hub
                0x00000000402966f8       0x88 common/built-in.o
                0x00000000402966f8                _u_boot_list_2_uclass_2_usb_hub
 .u_boot_list_2_uclass_2_usb_mass_storage
                0x0000000040296780       0x88 common/built-in.o
                0x0000000040296780                _u_boot_list_2_uclass_2_usb_mass_storage
 .u_boot_list_2_uclass_3
                0x0000000040296808        0x0 drivers/built-in.o
 .u_boot_list_2_usb_driver_entry_1
                0x0000000040296808        0x0 drivers/usb/host/built-in.o
 .u_boot_list_2_usb_driver_entry_2_usb_generic_hub
                0x0000000040296808       0x10 common/built-in.o
                0x0000000040296808                _u_boot_list_2_usb_driver_entry_2_usb_generic_hub
 .u_boot_list_2_usb_driver_entry_2_usb_mass_storage
                0x0000000040296818       0x10 common/built-in.o
                0x0000000040296818                _u_boot_list_2_usb_driver_entry_2_usb_mass_storage
 .u_boot_list_2_usb_driver_entry_3
                0x0000000040296828        0x0 drivers/usb/host/built-in.o
                0x0000000040296828                . = ALIGN (0x8)

.efi_runtime_rel
                0x0000000040296828      0x1b0
                0x0000000040296828                __efi_runtime_rel_start = .
 *(.rel*.efi_runtime)
 .rela.data.efi_runtime
                0x0000000040296828      0x1b0 arch/arm/cpu/armv8/start.o
 *(.rel*.efi_runtime.*)
                0x00000000402969d8                __efi_runtime_rel_stop = .
                0x00000000402969d8                . = ALIGN (0x8)

.image_copy_end
                0x00000000402969d8        0x0
 *(.__image_copy_end)
 .__image_copy_end
                0x00000000402969d8        0x0 arch/arm/lib/built-in.o
                0x00000000402969d8                . = ALIGN (0x8)

.rel_dyn_start  0x00000000402969d8        0x0
 *(.__rel_dyn_start)
 .__rel_dyn_start
                0x00000000402969d8        0x0 arch/arm/lib/built-in.o

.rela.dyn       0x00000000402969d8     0xe928
 *(.rela*)
 .rela.got      0x00000000402969d8        0x0 arch/arm/cpu/armv8/start.o
 .rela.plt      0x00000000402969d8        0x0 arch/arm/cpu/armv8/start.o
 .rela.bss      0x00000000402969d8        0x0 arch/arm/cpu/armv8/start.o
 .rela.data.rel.ro
                0x00000000402969d8        0x0 arch/arm/cpu/armv8/start.o
 .rela.ifunc    0x00000000402969d8        0x0 arch/arm/cpu/armv8/start.o
 .rela.text     0x00000000402969d8       0x30 arch/arm/cpu/armv8/start.o
 .rela.u_boot_list_2_cmd_2_bootaux
                0x0000000040296a08       0x78 arch/arm/cpu/armv8/start.o
 .rela.data.mem_map
                0x0000000040296a80       0x18 arch/arm/cpu/armv8/start.o
 .rela.u_boot_list_2_cmd_2_clocks
                0x0000000040296a98       0x78 arch/arm/cpu/armv8/start.o
 .rela.rodata.fdt_member_table
                0x0000000040296b10       0xf0 arch/arm/cpu/armv8/start.o
 .rela.rodata.op_table
                0x0000000040296c00      0x138 arch/arm/cpu/armv8/start.o
 .rela.rodata.mii_reg_desc_tbl
                0x0000000040296d38      0x180 arch/arm/cpu/armv8/start.o
 .rela.rodata.reg_0_desc_tbl
                0x0000000040296eb8       0xf0 arch/arm/cpu/armv8/start.o
 .rela.rodata.reg_10_desc_tbl
                0x0000000040296fa8       0xc0 arch/arm/cpu/armv8/start.o
 .rela.rodata.reg_1_desc_tbl
                0x0000000040297068      0x180 arch/arm/cpu/armv8/start.o
 .rela.rodata.reg_2_desc_tbl
                0x00000000402971e8       0x18 arch/arm/cpu/armv8/start.o
 .rela.rodata.reg_3_desc_tbl
                0x0000000040297200       0x48 arch/arm/cpu/armv8/start.o
 .rela.rodata.reg_4_desc_tbl
                0x0000000040297248      0x120 arch/arm/cpu/armv8/start.o
 .rela.rodata.reg_5_desc_tbl
                0x0000000040297368      0x120 arch/arm/cpu/armv8/start.o
 .rela.rodata.reg_9_desc_tbl
                0x0000000040297488       0xc0 arch/arm/cpu/armv8/start.o
 .rela.rodata.op_adv
                0x0000000040297548      0x180 arch/arm/cpu/armv8/start.o
 .rela.rodata.CSWTCH.40
                0x00000000402976c8       0x78 arch/arm/cpu/armv8/start.o
 .rela.u_boot_list_2_cmd_2_go
                0x0000000040297740       0x78 arch/arm/cpu/armv8/start.o
 .rela.u_boot_list_2_cmd_2_reset
                0x00000000402977b8       0x78 arch/arm/cpu/armv8/start.o
 .rela.data.cmd_bootm_sub
                0x0000000040297830      0x360 arch/arm/cpu/armv8/start.o
 .rela.u_boot_list_2_cmd_2_boot
                0x0000000040297b90       0x78 arch/arm/cpu/armv8/start.o
 .rela.u_boot_list_2_cmd_2_bootd
                0x0000000040297c08       0x78 arch/arm/cpu/armv8/start.o
 .rela.u_boot_list_2_cmd_2_bootm
                0x0000000040297c80       0x78 arch/arm/cpu/armv8/start.o
 .rela.u_boot_list_2_cmd_2_iminfo
                0x0000000040297cf8       0x78 arch/arm/cpu/armv8/start.o
 .rela.u_boot_list_2_cmd_2_help
                0x0000000040297d70       0x78 arch/arm/cpu/armv8/start.o
 .rela.u_boot_list_2_cmd_2_question_mark
                0x0000000040297de8       0x78 arch/arm/cpu/armv8/start.o
 .rela.u_boot_list_2_cmd_2_version
                0x0000000040297e60       0x78 arch/arm/cpu/armv8/start.o
 .rela.u_boot_list_2_cmd_2_source
                0x0000000040297ed8       0x78 arch/arm/cpu/armv8/start.o
 .rela.u_boot_list_2_cmd_2_bdinfo
                0x0000000040297f50       0x78 arch/arm/cpu/armv8/start.o
 .rela.data.cmd_blkc_sub
                0x0000000040297fc8       0xf0 arch/arm/cpu/armv8/start.o
 .rela.u_boot_list_2_cmd_2_blkcache
                0x00000000402980b8       0x78 arch/arm/cpu/armv8/start.o
 .rela.u_boot_list_2_cmd_2_bootefi
                0x0000000040298130       0x78 arch/arm/cpu/armv8/start.o
 .rela.u_boot_list_2_cmd_2_booti
                0x00000000402981a8       0x78 arch/arm/cpu/armv8/start.o
 .rela.u_boot_list_2_cmd_2_dcache
                0x0000000040298220       0x78 arch/arm/cpu/armv8/start.o
 .rela.u_boot_list_2_cmd_2_icache
                0x0000000040298298       0x78 arch/arm/cpu/armv8/start.o
 .rela.data.cmd_clk_sub
                0x0000000040298310       0x78 arch/arm/cpu/armv8/start.o
 .rela.u_boot_list_2_cmd_2_clk
                0x0000000040298388       0x78 arch/arm/cpu/armv8/start.o
 .rela.u_boot_list_2_cmd_2_coninfo
                0x0000000040298400       0x78 arch/arm/cpu/armv8/start.o
 .rela.data.test_commands
                0x0000000040298478      0x1e0 arch/arm/cpu/armv8/start.o
 .rela.u_boot_list_2_cmd_2_dm
                0x0000000040298658       0x78 arch/arm/cpu/armv8/start.o
 .rela.u_boot_list_2_cmd_2_echo
                0x00000000402986d0       0x78 arch/arm/cpu/armv8/start.o
 .rela.u_boot_list_2_cmd_2_bootelf
                0x0000000040298748       0x78 arch/arm/cpu/armv8/start.o
 .rela.u_boot_list_2_cmd_2_bootvx
                0x00000000402987c0       0x78 arch/arm/cpu/armv8/start.o
 .rela.u_boot_list_2_cmd_2_exit
                0x0000000040298838       0x78 arch/arm/cpu/armv8/start.o
 .rela.u_boot_list_2_cmd_2_ext4load
                0x00000000402988b0       0x78 arch/arm/cpu/armv8/start.o
 .rela.u_boot_list_2_cmd_2_ext4ls
                0x0000000040298928       0x78 arch/arm/cpu/armv8/start.o
 .rela.u_boot_list_2_cmd_2_ext4size
                0x00000000402989a0       0x78 arch/arm/cpu/armv8/start.o
 .rela.u_boot_list_2_cmd_2_ext4write
                0x0000000040298a18       0x78 arch/arm/cpu/armv8/start.o
 .rela.u_boot_list_2_cmd_2_fatinfo
                0x0000000040298a90       0x78 arch/arm/cpu/armv8/start.o
 .rela.u_boot_list_2_cmd_2_fatload
                0x0000000040298b08       0x78 arch/arm/cpu/armv8/start.o
 .rela.u_boot_list_2_cmd_2_fatls
                0x0000000040298b80       0x78 arch/arm/cpu/armv8/start.o
 .rela.u_boot_list_2_cmd_2_fatmkdir
                0x0000000040298bf8       0x78 arch/arm/cpu/armv8/start.o
 .rela.u_boot_list_2_cmd_2_fatrm
                0x0000000040298c70       0x78 arch/arm/cpu/armv8/start.o
 .rela.u_boot_list_2_cmd_2_fatsize
                0x0000000040298ce8       0x78 arch/arm/cpu/armv8/start.o
 .rela.u_boot_list_2_cmd_2_fatwrite
                0x0000000040298d60       0x78 arch/arm/cpu/armv8/start.o
 .rela.u_boot_list_2_cmd_2_fdt
                0x0000000040298dd8       0x78 arch/arm/cpu/armv8/start.o
 .rela.u_boot_list_2_cmd_2_fstype
                0x0000000040298e50       0x78 arch/arm/cpu/armv8/start.o
 .rela.u_boot_list_2_cmd_2_ln
                0x0000000040298ec8       0x78 arch/arm/cpu/armv8/start.o
 .rela.u_boot_list_2_cmd_2_load
                0x0000000040298f40       0x78 arch/arm/cpu/armv8/start.o
 .rela.u_boot_list_2_cmd_2_ls
                0x0000000040298fb8       0x78 arch/arm/cpu/armv8/start.o
 .rela.u_boot_list_2_cmd_2_save
                0x0000000040299030       0x78 arch/arm/cpu/armv8/start.o
 .rela.u_boot_list_2_cmd_2_size
                0x00000000402990a8       0x78 arch/arm/cpu/armv8/start.o
 .rela.u_boot_list_2_cmd_2_fuse
                0x0000000040299120       0x78 arch/arm/cpu/armv8/start.o
 .rela.u_boot_list_2_cmd_2_gpio
                0x0000000040299198       0x78 arch/arm/cpu/armv8/start.o
 .rela.data.cmd_i2c_sub
                0x0000000040299210      0x708 arch/arm/cpu/armv8/start.o
 .rela.u_boot_list_2_cmd_2_i2c
                0x0000000040299918       0x78 arch/arm/cpu/armv8/start.o
 .rela.u_boot_list_2_cmd_2_itest
                0x0000000040299990       0x78 arch/arm/cpu/armv8/start.o
 .rela.u_boot_list_2_cmd_2_loadb
                0x0000000040299a08       0x78 arch/arm/cpu/armv8/start.o
 .rela.u_boot_list_2_cmd_2_loads
                0x0000000040299a80       0x78 arch/arm/cpu/armv8/start.o
 .rela.u_boot_list_2_cmd_2_loadx
                0x0000000040299af8       0x78 arch/arm/cpu/armv8/start.o
 .rela.u_boot_list_2_cmd_2_loady
                0x0000000040299b70       0x78 arch/arm/cpu/armv8/start.o
 .rela.u_boot_list_2_cmd_2_base
                0x0000000040299be8       0x78 arch/arm/cpu/armv8/start.o
 .rela.u_boot_list_2_cmd_2_cmp
                0x0000000040299c60       0x78 arch/arm/cpu/armv8/start.o
 .rela.u_boot_list_2_cmd_2_cp
                0x0000000040299cd8       0x78 arch/arm/cpu/armv8/start.o
 .rela.u_boot_list_2_cmd_2_crc32
                0x0000000040299d50       0x78 arch/arm/cpu/armv8/start.o
 .rela.u_boot_list_2_cmd_2_loop
                0x0000000040299dc8       0x78 arch/arm/cpu/armv8/start.o
 .rela.u_boot_list_2_cmd_2_md
                0x0000000040299e40       0x78 arch/arm/cpu/armv8/start.o
 .rela.u_boot_list_2_cmd_2_mm
                0x0000000040299eb8       0x78 arch/arm/cpu/armv8/start.o
 .rela.u_boot_list_2_cmd_2_mtest
                0x0000000040299f30       0x78 arch/arm/cpu/armv8/start.o
 .rela.u_boot_list_2_cmd_2_mw
                0x0000000040299fa8       0x78 arch/arm/cpu/armv8/start.o
 .rela.u_boot_list_2_cmd_2_nm
                0x000000004029a020       0x78 arch/arm/cpu/armv8/start.o
 .rela.u_boot_list_2_cmd_2_random
                0x000000004029a098       0x78 arch/arm/cpu/armv8/start.o
 .rela.u_boot_list_2_cmd_2_mii
                0x000000004029a110       0x78 arch/arm/cpu/armv8/start.o
 .rela.u_boot_list_2_cmd_2_mdio
                0x000000004029a188       0x78 arch/arm/cpu/armv8/start.o
 .rela.u_boot_list_2_cmd_2_sleep
                0x000000004029a200       0x78 arch/arm/cpu/armv8/start.o
 .rela.data.cmd_mmc
                0x000000004029a278      0x690 arch/arm/cpu/armv8/start.o
 .rela.u_boot_list_2_cmd_2_mmc
                0x000000004029a908       0x78 arch/arm/cpu/armv8/start.o
 .rela.u_boot_list_2_cmd_2_mmcinfo
                0x000000004029a980       0x78 arch/arm/cpu/armv8/start.o
 .rela.u_boot_list_2_cmd_2_bootp
                0x000000004029a9f8       0x78 arch/arm/cpu/armv8/start.o
 .rela.u_boot_list_2_cmd_2_dhcp
                0x000000004029aa70       0x78 arch/arm/cpu/armv8/start.o
 .rela.u_boot_list_2_cmd_2_nfs
                0x000000004029aae8       0x78 arch/arm/cpu/armv8/start.o
 .rela.u_boot_list_2_cmd_2_ping
                0x000000004029ab60       0x78 arch/arm/cpu/armv8/start.o
 .rela.u_boot_list_2_cmd_2_tftpboot
                0x000000004029abd8       0x78 arch/arm/cpu/armv8/start.o
 .rela.data.pinmux_subcmd
                0x000000004029ac50      0x168 arch/arm/cpu/armv8/start.o
 .rela.u_boot_list_2_cmd_2_pinmux
                0x000000004029adb8       0x78 arch/arm/cpu/armv8/start.o
 .rela.u_boot_list_2_cmd_2_read
                0x000000004029ae30       0x78 arch/arm/cpu/armv8/start.o
 .rela.u_boot_list_2_cmd_2_setexpr
                0x000000004029aea8       0x78 arch/arm/cpu/armv8/start.o
 .rela.u_boot_list_2_cmd_2_false
                0x000000004029af20       0x60 arch/arm/cpu/armv8/start.o
 .rela.u_boot_list_2_cmd_2_test
                0x000000004029af80       0x78 arch/arm/cpu/armv8/start.o
 .rela.u_boot_list_2_cmd_2_true
                0x000000004029aff8       0x60 arch/arm/cpu/armv8/start.o
 .rela.u_boot_list_2_cmd_2_gzwrite
                0x000000004029b058       0x78 arch/arm/cpu/armv8/start.o
 .rela.u_boot_list_2_cmd_2_unzip
                0x000000004029b0d0       0x78 arch/arm/cpu/armv8/start.o
 .rela.u_boot_list_2_cmd_2_lzmadec
                0x000000004029b148       0x78 arch/arm/cpu/armv8/start.o
 .rela.u_boot_list_2_cmd_2_usb
                0x000000004029b1c0       0x78 arch/arm/cpu/armv8/start.o
 .rela.u_boot_list_2_cmd_2_usbboot
                0x000000004029b238       0x78 arch/arm/cpu/armv8/start.o
 .rela.u_boot_list_2_cmd_2_fastboot
                0x000000004029b2b0       0x78 arch/arm/cpu/armv8/start.o
 .rela.u_boot_list_2_cmd_2_ums
                0x000000004029b328       0x78 arch/arm/cpu/armv8/start.o
 .rela.u_boot_list_2_cmd_2_imxtract
                0x000000004029b3a0       0x78 arch/arm/cpu/armv8/start.o
 .rela.data.disk_partitions
                0x000000004029b418       0x30 arch/arm/cpu/armv8/start.o
 .rela.u_boot_list_2_cmd_2_gpt
                0x000000004029b448       0x78 arch/arm/cpu/armv8/start.o
 .rela.data.subcmd
                0x000000004029b4c0      0x438 arch/arm/cpu/armv8/start.o
 .rela.u_boot_list_2_cmd_2_regulator
                0x000000004029b8f8       0x78 arch/arm/cpu/armv8/start.o
 .rela.data.cmd_env_sub
                0x000000004029b970      0x4b0 arch/arm/cpu/armv8/start.o
 .rela.u_boot_list_2_cmd_2_editenv
                0x000000004029be20       0x90 arch/arm/cpu/armv8/start.o
 .rela.u_boot_list_2_cmd_2_env
                0x000000004029beb0       0x78 arch/arm/cpu/armv8/start.o
 .rela.u_boot_list_2_cmd_2_printenv
                0x000000004029bf28       0x90 arch/arm/cpu/armv8/start.o
 .rela.u_boot_list_2_cmd_2_run
                0x000000004029bfb8       0x90 arch/arm/cpu/armv8/start.o
 .rela.u_boot_list_2_cmd_2_saveenv
                0x000000004029c048       0x78 arch/arm/cpu/armv8/start.o
 .rela.u_boot_list_2_cmd_2_setenv
                0x000000004029c0c0       0x90 arch/arm/cpu/armv8/start.o
 .rela.rodata.init_sequence_f
                0x000000004029c150      0x480 arch/arm/cpu/armv8/start.o
 .rela.rodata.boot_os
                0x000000004029c5d0       0xc0 arch/arm/cpu/armv8/start.o
 .rela.rodata.usb_hub_ids
                0x000000004029c690       0x18 arch/arm/cpu/armv8/start.o
 .rela.rodata.usb_mass_storage_ids
                0x000000004029c6a8       0x18 arch/arm/cpu/armv8/start.o
 .rela.rodata.usb_storage_ops
                0x000000004029c6c0       0x30 arch/arm/cpu/armv8/start.o
 .rela.rodata.uimage_arch
                0x000000004029c6f0      0x510 arch/arm/cpu/armv8/start.o
 .rela.rodata.uimage_comp
                0x000000004029cc00      0x150 arch/arm/cpu/armv8/start.o
 .rela.rodata.uimage_os
                0x000000004029cd50      0x2a0 arch/arm/cpu/armv8/start.o
 .rela.rodata.uimage_type
                0x000000004029cff0      0x780 arch/arm/cpu/armv8/start.o
 .rela.rodata.CSWTCH.180
                0x000000004029d770      0x2b8 arch/arm/cpu/armv8/start.o
 .rela.rodata.CSWTCH.27
                0x000000004029da28       0xc0 arch/arm/cpu/armv8/start.o
 .rela.data.hash_algo
                0x000000004029dae8      0x1e0 arch/arm/cpu/armv8/start.o
 .rela.data.reserved_list
                0x000000004029dcc8      0x108 arch/arm/cpu/armv8/start.o
 .rela.u_boot_list_2_cmd_2_showvar
                0x000000004029ddd0       0x78 arch/arm/cpu/armv8/start.o
 .rela.data.init_sequence_r
                0x000000004029de48      0x318 arch/arm/cpu/armv8/start.o
 .rela.data.of_busses
                0x000000004029e160       0x78 arch/arm/cpu/armv8/start.o
 .rela.data.usb_scan_list
                0x000000004029e1d8       0x30 arch/arm/cpu/armv8/start.o
 .rela.u_boot_list_2_driver_2_usb_generic_hub
                0x000000004029e208       0x30 arch/arm/cpu/armv8/start.o
 .rela.u_boot_list_2_uclass_2_usb_hub
                0x000000004029e238       0x60 arch/arm/cpu/armv8/start.o
 .rela.u_boot_list_2_usb_driver_entry_2_usb_generic_hub
                0x000000004029e298       0x30 arch/arm/cpu/armv8/start.o
 .rela.u_boot_list_2_driver_2_usb_mass_storage
                0x000000004029e2c8       0x48 arch/arm/cpu/armv8/start.o
 .rela.u_boot_list_2_driver_2_usb_storage_blk
                0x000000004029e310       0x30 arch/arm/cpu/armv8/start.o
 .rela.u_boot_list_2_uclass_2_usb_mass_storage
                0x000000004029e340       0x18 arch/arm/cpu/armv8/start.o
 .rela.u_boot_list_2_usb_driver_entry_2_usb_mass_storage
                0x000000004029e358       0x30 arch/arm/cpu/armv8/start.o
 .rela.u_boot_list_2_env_clbk_2_console
                0x000000004029e388       0x30 arch/arm/cpu/armv8/start.o
 .rela.data.av_
                0x000000004029e3b8     0x1800 arch/arm/cpu/armv8/start.o
 .rela.u_boot_list_2_env_clbk_2_loadaddr
                0x000000004029fbb8       0x30 arch/arm/cpu/armv8/start.o
 .rela.data.stdio_names
                0x000000004029fbe8       0x48 arch/arm/cpu/armv8/start.o
 .rela.rodata.CSWTCH.29
                0x000000004029fc30       0xc0 arch/arm/cpu/armv8/start.o
 .rela.u_boot_list_2_part_driver_2_dos
                0x000000004029fcf0       0x60 arch/arm/cpu/armv8/start.o
 .rela.u_boot_list_2_part_driver_2_a_efi
                0x000000004029fd50       0x60 arch/arm/cpu/armv8/start.o
 .rela.rodata.clk_fixed_rate_match
                0x000000004029fdb0       0x18 arch/arm/cpu/armv8/start.o
 .rela.rodata.clk_fixed_rate_ops
                0x000000004029fdc8       0x30 arch/arm/cpu/armv8/start.o
 .rela.rodata.clk_fixed_factor_match
                0x000000004029fdf8       0x18 arch/arm/cpu/armv8/start.o
 .rela.rodata.clk_fixed_factor_ops
                0x000000004029fe10       0x18 arch/arm/cpu/armv8/start.o
 .rela.rodata.clk_divider_ops
                0x000000004029fe28       0x30 arch/arm/cpu/armv8/start.o
 .rela.rodata.clk_mux_ops
                0x000000004029fe58       0x30 arch/arm/cpu/armv8/start.o
 .rela.rodata.clk_gate_ops
                0x000000004029fe88       0x48 arch/arm/cpu/armv8/start.o
 .rela.rodata.ccf_clk_fixed_factor_ops
                0x000000004029fed0       0x18 arch/arm/cpu/armv8/start.o
 .rela.rodata.clk_gate2_ops
                0x000000004029fee8       0x60 arch/arm/cpu/armv8/start.o
 .rela.rodata.clk_pllv3_av_ops
                0x000000004029ff48       0x60 arch/arm/cpu/armv8/start.o
 .rela.rodata.clk_pllv3_generic_ops
                0x000000004029ffa8       0x60 arch/arm/cpu/armv8/start.o
 .rela.rodata.clk_pllv3_sys_ops
                0x00000000402a0008       0x60 arch/arm/cpu/armv8/start.o
 .rela.rodata.clk_pfd_ops
                0x00000000402a0068       0x30 arch/arm/cpu/armv8/start.o
 .rela.rodata.imx8mm_clk_ids
                0x00000000402a0098       0x18 arch/arm/cpu/armv8/start.o
 .rela.rodata.clk_pll1416x_ops
                0x00000000402a00b0       0x60 arch/arm/cpu/armv8/start.o
 .rela.rodata.clk_pll1443x_ops
                0x00000000402a0110       0x60 arch/arm/cpu/armv8/start.o
 .rela.rodata.imx8m_clk_composite_divider_ops
                0x00000000402a0170       0x30 arch/arm/cpu/armv8/start.o
 .rela.rodata.root_info
                0x00000000402a01a0       0x18 arch/arm/cpu/armv8/start.o
 .rela.rodata.generic_simple_bus_ids
                0x00000000402a01b8       0x30 arch/arm/cpu/armv8/start.o
 .rela.rodata.generic_syscon_ids
                0x00000000402a01e8       0x18 arch/arm/cpu/armv8/start.o
 .rela.rodata.psci_of_match
                0x00000000402a0200       0x48 arch/arm/cpu/armv8/start.o
 .rela.rodata.imx_pinctrl_ops
                0x00000000402a0248       0x18 arch/arm/cpu/armv8/start.o
 .rela.rodata.imx8m_pinctrl_match
                0x00000000402a0260       0xc0 arch/arm/cpu/armv8/start.o
 .rela.rodata.if_typename_str
                0x00000000402a0320      0x120 arch/arm/cpu/armv8/start.o
 .rela.rodata.bootm_args.7235
                0x00000000402a0440       0x30 arch/arm/cpu/armv8/start.o
 .rela.rodata.commands
                0x00000000402a0470      0x240 arch/arm/cpu/armv8/start.o
 .rela.rodata.names.8561
                0x00000000402a06b0      0x138 arch/arm/cpu/armv8/start.o
 .rela.rodata.mmc_blk_ops
                0x00000000402a07e8       0x60 arch/arm/cpu/armv8/start.o
 .rela.rodata.fsl_esdhc_ids
                0x00000000402a0848      0x1b0 arch/arm/cpu/armv8/start.o
 .rela.rodata.fsl_esdhc_ops
                0x00000000402a09f8       0x78 arch/arm/cpu/armv8/start.o
 .rela.rodata.imx7_reset_ids
                0x00000000402a0a70       0x30 arch/arm/cpu/armv8/start.o
 .rela.rodata.imx7_reset_reset_ops
                0x00000000402a0aa0       0x60 arch/arm/cpu/armv8/start.o
 .rela.rodata.nxp_tmu_ids
                0x00000000402a0b00       0x48 arch/arm/cpu/armv8/start.o
 .rela.rodata.nxp_tmu_ops
                0x00000000402a0b48       0x18 arch/arm/cpu/armv8/start.o
 .rela.u_boot_list_2_uclass_2_clk
                0x00000000402a0b60       0x30 arch/arm/cpu/armv8/start.o
 .rela.u_boot_list_2_driver_2_clk_fixed_rate
                0x00000000402a0b90       0x60 arch/arm/cpu/armv8/start.o
 .rela.u_boot_list_2_driver_2_clk_fixed_factor
                0x00000000402a0bf0       0x60 arch/arm/cpu/armv8/start.o
 .rela.u_boot_list_2_driver_2_ccf_clk_divider
                0x00000000402a0c50       0x30 arch/arm/cpu/armv8/start.o
 .rela.u_boot_list_2_driver_2_ccf_clk_mux
                0x00000000402a0c80       0x30 arch/arm/cpu/armv8/start.o
 .rela.u_boot_list_2_driver_2_clk_gate
                0x00000000402a0cb0       0x30 arch/arm/cpu/armv8/start.o
 .rela.u_boot_list_2_driver_2_imx_clk_fixed_factor
                0x00000000402a0ce0       0x30 arch/arm/cpu/armv8/start.o
 .rela.u_boot_list_2_driver_2_clk_composite
                0x00000000402a0d10       0x30 arch/arm/cpu/armv8/start.o
 .rela.u_boot_list_2_driver_2_clk_gate2
                0x00000000402a0d40       0x30 arch/arm/cpu/armv8/start.o
 .rela.u_boot_list_2_driver_2_clk_pllv3_av
                0x00000000402a0d70       0x30 arch/arm/cpu/armv8/start.o
 .rela.u_boot_list_2_driver_2_clk_pllv3_generic
                0x00000000402a0da0       0x30 arch/arm/cpu/armv8/start.o
 .rela.u_boot_list_2_driver_2_clk_pllv3_sys
                0x00000000402a0dd0       0x30 arch/arm/cpu/armv8/start.o
 .rela.u_boot_list_2_driver_2_clk_pllv3_usb
                0x00000000402a0e00       0x30 arch/arm/cpu/armv8/start.o
 .rela.u_boot_list_2_driver_2_clk_pfd
                0x00000000402a0e30       0x30 arch/arm/cpu/armv8/start.o
 .rela.data.arm_pll_bypass_sels
                0x00000000402a0e60       0x30 arch/arm/cpu/armv8/start.o
 .rela.data.dram_pll_bypass_sels
                0x00000000402a0e90       0x30 arch/arm/cpu/armv8/start.o
 .rela.data.imx8mm_a53_sels
                0x00000000402a0ec0       0xc0 arch/arm/cpu/armv8/start.o
 .rela.data.imx8mm_ahb_sels
                0x00000000402a0f80       0xc0 arch/arm/cpu/armv8/start.o
 .rela.data.imx8mm_arm_pll
                0x00000000402a1040       0x18 arch/arm/cpu/armv8/start.o
 .rela.data.imx8mm_clk_ops
                0x00000000402a1058       0x78 arch/arm/cpu/armv8/start.o
 .rela.data.imx8mm_dram_pll
                0x00000000402a10d0       0x18 arch/arm/cpu/armv8/start.o
 .rela.data.imx8mm_enet_axi_sels
                0x00000000402a10e8       0xc0 arch/arm/cpu/armv8/start.o
 .rela.data.imx8mm_enet_phy_sels
                0x00000000402a11a8       0xa8 arch/arm/cpu/armv8/start.o
 .rela.data.imx8mm_enet_ref_sels
                0x00000000402a1250       0xc0 arch/arm/cpu/armv8/start.o
 .rela.data.imx8mm_enet_timer_sels
                0x00000000402a1310       0xc0 arch/arm/cpu/armv8/start.o
 .rela.data.imx8mm_i2c1_sels
                0x00000000402a13d0       0xc0 arch/arm/cpu/armv8/start.o
 .rela.data.imx8mm_i2c2_sels
                0x00000000402a1490       0xc0 arch/arm/cpu/armv8/start.o
 .rela.data.imx8mm_i2c3_sels
                0x00000000402a1550       0xc0 arch/arm/cpu/armv8/start.o
 .rela.data.imx8mm_i2c4_sels
                0x00000000402a1610       0xc0 arch/arm/cpu/armv8/start.o
 .rela.data.imx8mm_nand_usdhc_sels
                0x00000000402a16d0       0xc0 arch/arm/cpu/armv8/start.o
 .rela.data.imx8mm_qspi_sels
                0x00000000402a1790       0xc0 arch/arm/cpu/armv8/start.o
 .rela.data.imx8mm_sys_pll
                0x00000000402a1850       0x18 arch/arm/cpu/armv8/start.o
 .rela.data.imx8mm_usb_bus_sels
                0x00000000402a1868       0xc0 arch/arm/cpu/armv8/start.o
 .rela.data.imx8mm_usb_core_sels
                0x00000000402a1928       0xc0 arch/arm/cpu/armv8/start.o
 .rela.data.imx8mm_usb_phy_sels
                0x00000000402a19e8       0xc0 arch/arm/cpu/armv8/start.o
 .rela.data.imx8mm_usdhc1_sels
                0x00000000402a1aa8       0xc0 arch/arm/cpu/armv8/start.o
 .rela.data.imx8mm_usdhc2_sels
                0x00000000402a1b68       0xc0 arch/arm/cpu/armv8/start.o
 .rela.data.imx8mm_usdhc3_sels
                0x00000000402a1c28       0xc0 arch/arm/cpu/armv8/start.o
 .rela.data.imx8mm_wdog_sels
                0x00000000402a1ce8       0xc0 arch/arm/cpu/armv8/start.o
 .rela.data.pll_ref_sels
                0x00000000402a1da8       0x60 arch/arm/cpu/armv8/start.o
 .rela.data.sys_pll1_bypass_sels
                0x00000000402a1e08       0x30 arch/arm/cpu/armv8/start.o
 .rela.data.sys_pll2_bypass_sels
                0x00000000402a1e38       0x30 arch/arm/cpu/armv8/start.o
 .rela.data.sys_pll3_bypass_sels
                0x00000000402a1e68       0x30 arch/arm/cpu/armv8/start.o
 .rela.u_boot_list_2_driver_2_imx8mm_clk
                0x00000000402a1e98       0x60 arch/arm/cpu/armv8/start.o
 .rela.u_boot_list_2_driver_2_clk_pll1416x
                0x00000000402a1ef8       0x30 arch/arm/cpu/armv8/start.o
 .rela.u_boot_list_2_driver_2_clk_pll1443x
                0x00000000402a1f28       0x30 arch/arm/cpu/armv8/start.o
 .rela.u_boot_list_2_driver_2_root_driver
                0x00000000402a1f58       0x18 arch/arm/cpu/armv8/start.o
 .rela.u_boot_list_2_uclass_2_root
                0x00000000402a1f70       0x18 arch/arm/cpu/armv8/start.o
 .rela.u_boot_list_2_uclass_2_nop
                0x00000000402a1f88       0x18 arch/arm/cpu/armv8/start.o
 .rela.u_boot_list_2_driver_2_simple_bus_drv
                0x00000000402a1fa0       0x30 arch/arm/cpu/armv8/start.o
 .rela.u_boot_list_2_uclass_2_simple_bus
                0x00000000402a1fd0       0x30 arch/arm/cpu/armv8/start.o
 .rela.u_boot_list_2_driver_2_generic_syscon
                0x00000000402a2000       0x48 arch/arm/cpu/armv8/start.o
 .rela.u_boot_list_2_uclass_2_syscon
                0x00000000402a2048       0x30 arch/arm/cpu/armv8/start.o
 .rela.u_boot_list_2_uclass_2_sysreset
                0x00000000402a2078       0x30 arch/arm/cpu/armv8/start.o
 .rela.data.psci_sysreset_ops
                0x00000000402a20a8       0x18 arch/arm/cpu/armv8/start.o
 .rela.u_boot_list_2_driver_2_psci_sysreset
                0x00000000402a20c0       0x30 arch/arm/cpu/armv8/start.o
 .rela.u_boot_list_2_uclass_2_firmware
                0x00000000402a20f0       0x30 arch/arm/cpu/armv8/start.o
 .rela.u_boot_list_2_driver_2_psci
                0x00000000402a2120       0x60 arch/arm/cpu/armv8/start.o
 .rela.u_boot_list_2_driver_2_pinconfig_generic
                0x00000000402a2180       0x18 arch/arm/cpu/armv8/start.o
 .rela.u_boot_list_2_uclass_2_pinconfig
                0x00000000402a2198       0x30 arch/arm/cpu/armv8/start.o
 .rela.u_boot_list_2_uclass_2_pinctrl
                0x00000000402a21c8       0x30 arch/arm/cpu/armv8/start.o
 .rela.u_boot_list_2_driver_2_imx8mq_pinctrl
                0x00000000402a21f8       0x78 arch/arm/cpu/armv8/start.o
 .rela.u_boot_list_2_uclass_2_blk
                0x00000000402a2270       0x30 arch/arm/cpu/armv8/start.o
 .rela.data.block_cache
                0x00000000402a22a0       0x30 arch/arm/cpu/armv8/start.o
 .rela.data.g_fastboot_stdio
                0x00000000402a22d0       0x30 arch/arm/cpu/armv8/start.o
 .rela.data.fastboot_common_var
                0x00000000402a2300      0x150 arch/arm/cpu/armv8/start.o
 .rela.u_boot_list_2_driver_2_mmc_blk
                0x00000000402a2450       0x60 arch/arm/cpu/armv8/start.o
 .rela.u_boot_list_2_uclass_2_mmc
                0x00000000402a24b0       0x18 arch/arm/cpu/armv8/start.o
 .rela.u_boot_list_2_driver_2_fsl_esdhc
                0x00000000402a24c8       0x78 arch/arm/cpu/armv8/start.o
 .rela.u_boot_list_2_uclass_2_reset
                0x00000000402a2540       0x18 arch/arm/cpu/armv8/start.o
 .rela.u_boot_list_2_driver_2_imx7_reset
                0x00000000402a2558       0x60 arch/arm/cpu/armv8/start.o
 .rela.u_boot_list_2_uclass_2_thermal
                0x00000000402a25b8       0x18 arch/arm/cpu/armv8/start.o
 .rela.u_boot_list_2_driver_2_nxp_tmu
                0x00000000402a25d0       0x78 arch/arm/cpu/armv8/start.o
 .rela.rodata.gpio_function
                0x00000000402a2648       0x78 arch/arm/cpu/armv8/start.o
 .rela.rodata.gpio_mxc_ops
                0x00000000402a26c0       0x78 arch/arm/cpu/armv8/start.o
 .rela.rodata.mxc_gpio_ids
                0x00000000402a2738       0x18 arch/arm/cpu/armv8/start.o
 .rela.u_boot_list_2_uclass_2_gpio
                0x00000000402a2750       0x60 arch/arm/cpu/armv8/start.o
 .rela.u_boot_list_2_driver_2_gpio_mxc
                0x00000000402a27b0       0x90 arch/arm/cpu/armv8/start.o
 .rela.rodata.mxc_i2c_ids
                0x00000000402a2840       0x30 arch/arm/cpu/armv8/start.o
 .rela.rodata.mxc_i2c_ops
                0x00000000402a2870       0x48 arch/arm/cpu/armv8/start.o
 .rela.u_boot_list_2_driver_2_i2c_generic_chip_drv
                0x00000000402a28b8       0x18 arch/arm/cpu/armv8/start.o
 .rela.u_boot_list_2_uclass_2_i2c
                0x00000000402a28d0       0x90 arch/arm/cpu/armv8/start.o
 .rela.u_boot_list_2_uclass_2_i2c_generic
                0x00000000402a2960       0x18 arch/arm/cpu/armv8/start.o
 .rela.u_boot_list_2_driver_2_i2c_mxc
                0x00000000402a2978       0x60 arch/arm/cpu/armv8/start.o
 .rela.rodata.fecmxc_ids
                0x00000000402a29d8       0xd8 arch/arm/cpu/armv8/start.o
 .rela.rodata.fecmxc_ops
                0x00000000402a2ab0       0xa8 arch/arm/cpu/armv8/start.o
 .rela.u_boot_list_2_driver_2_fecmxc_gem
                0x00000000402a2b58       0x90 arch/arm/cpu/armv8/start.o
 .rela.rodata.phy_interface_strings
                0x00000000402a2be8      0x258 arch/arm/cpu/armv8/start.o
 .rela.data.genphy_driver
                0x00000000402a2e40       0x60 arch/arm/cpu/armv8/start.o
 .rela.data.phy_drivers
                0x00000000402a2ea0       0x30 arch/arm/cpu/armv8/start.o
 .rela.data.AR8021_driver
                0x00000000402a2ed0       0x60 arch/arm/cpu/armv8/start.o
 .rela.data.AR8031_driver
                0x00000000402a2f30       0x60 arch/arm/cpu/armv8/start.o
 .rela.data.AR8035_driver
                0x00000000402a2f90       0x60 arch/arm/cpu/armv8/start.o
 .rela.rodata.fixed_regulator_ids
                0x00000000402a2ff0       0x18 arch/arm/cpu/armv8/start.o
 .rela.rodata.fixed_regulator_ops
                0x00000000402a3008       0x60 arch/arm/cpu/armv8/start.o
 .rela.rodata.gpio_regulator_ids
                0x00000000402a3068       0x18 arch/arm/cpu/armv8/start.o
 .rela.rodata.gpio_regulator_ops
                0x00000000402a3080       0x60 arch/arm/cpu/armv8/start.o
 .rela.u_boot_list_2_uclass_2_regulator
                0x00000000402a30e0       0x48 arch/arm/cpu/armv8/start.o
 .rela.u_boot_list_2_driver_2_fixed_regulator
                0x00000000402a3128       0x60 arch/arm/cpu/armv8/start.o
 .rela.u_boot_list_2_driver_2_gpio_regulator
                0x00000000402a3188       0x60 arch/arm/cpu/armv8/start.o
 .rela.u_boot_list_2_env_clbk_2_baudrate
                0x00000000402a31e8       0x30 arch/arm/cpu/armv8/start.o
 .rela.data.mxc_serial_drv
                0x00000000402a3218       0x90 arch/arm/cpu/armv8/start.o
 .rela.rodata.usb_dr_modes
                0x00000000402a32a8       0x60 arch/arm/cpu/armv8/start.o
 .rela.rodata.ci_ep_init
                0x00000000402a3308       0xf0 arch/arm/cpu/armv8/start.o
 .rela.rodata.ci_udc_otg_ids
                0x00000000402a33f8       0x18 arch/arm/cpu/armv8/start.o
 .rela.data.ci_ep_ops
                0x00000000402a3410       0x90 arch/arm/cpu/armv8/start.o
 .rela.data.ci_udc_ops
                0x00000000402a34a0       0x48 arch/arm/cpu/armv8/start.o
 .rela.data.controller
                0x00000000402a34e8       0x30 arch/arm/cpu/armv8/start.o
 .rela.u_boot_list_2_driver_2_ci_udc_otg
                0x00000000402a3518       0x90 arch/arm/cpu/armv8/start.o
 .rela.data.composite_driver
                0x00000000402a35a8       0xa8 arch/arm/cpu/armv8/start.o
 .rela.data.g_dnl_composite_strings
                0x00000000402a3650       0x18 arch/arm/cpu/armv8/start.o
 .rela.data.g_dnl_driver
                0x00000000402a3668       0x60 arch/arm/cpu/armv8/start.o
 .rela.data.g_dnl_string_defs
                0x00000000402a36c8       0x48 arch/arm/cpu/armv8/start.o
 .rela.data.g_dnl_string_tab
                0x00000000402a3710       0x18 arch/arm/cpu/armv8/start.o
 .rela.u_boot_list_2_env_clbk_2_serialno
                0x00000000402a3728       0x30 arch/arm/cpu/armv8/start.o
 .rela.data.fsg_fs_function
                0x00000000402a3758       0x48 arch/arm/cpu/armv8/start.o
 .rela.data.fsg_hs_function
                0x00000000402a37a0       0x48 arch/arm/cpu/armv8/start.o
 .rela.data.fsg_strings
                0x00000000402a37e8       0x18 arch/arm/cpu/armv8/start.o
 .rela.data.fsg_strings_array
                0x00000000402a3800       0x18 arch/arm/cpu/armv8/start.o
 .rela.data.fsg_stringtab
                0x00000000402a3818       0x18 arch/arm/cpu/armv8/start.o
 .rela.u_boot_list_2_g_dnl_bind_callbacks_2___usb_function_name_usb_dnl_ums
                0x00000000402a3830       0x30 arch/arm/cpu/armv8/start.o
 .rela.data.fastboot_string_defs
                0x00000000402a3860       0x18 arch/arm/cpu/armv8/start.o
 .rela.data.fastboot_strings
                0x00000000402a3878       0x18 arch/arm/cpu/armv8/start.o
 .rela.data.fb_ext_prop
                0x00000000402a3890       0x30 arch/arm/cpu/armv8/start.o
 .rela.data.fb_fs_function
                0x00000000402a38c0       0x48 arch/arm/cpu/armv8/start.o
 .rela.data.fb_hs_function
                0x00000000402a3908       0x48 arch/arm/cpu/armv8/start.o
 .rela.data.fb_os_desc
                0x00000000402a3950       0x18 arch/arm/cpu/armv8/start.o
 .rela.data.fb_os_desc_table
                0x00000000402a3968       0x18 arch/arm/cpu/armv8/start.o
 .rela.data.fb_ss_function
                0x00000000402a3980       0x78 arch/arm/cpu/armv8/start.o
 .rela.data.stringtab_fastboot
                0x00000000402a39f8       0x18 arch/arm/cpu/armv8/start.o
 .rela.u_boot_list_2_g_dnl_bind_callbacks_2___usb_function_name_usb_dnl_fastboot
                0x00000000402a3a10       0x30 arch/arm/cpu/armv8/start.o
 .rela.data.udc_list
                0x00000000402a3a40       0x30 arch/arm/cpu/armv8/start.o
 .rela.u_boot_list_2_uclass_2_usb_gadget_generic
                0x00000000402a3a70       0x18 arch/arm/cpu/armv8/start.o
 .rela.rodata.CSWTCH.129
                0x00000000402a3a88       0x48 arch/arm/cpu/armv8/start.o
 .rela.rodata.mx6_ehci_ops
                0x00000000402a3ad0       0x30 arch/arm/cpu/armv8/start.o
 .rela.rodata.mx6_usb_ids
                0x00000000402a3b00       0x18 arch/arm/cpu/armv8/start.o
 .rela.u_boot_list_2_driver_2_usb_dev_generic_drv
                0x00000000402a3b18       0x18 arch/arm/cpu/armv8/start.o
 .rela.u_boot_list_2_uclass_2_usb
                0x00000000402a3b30       0x60 arch/arm/cpu/armv8/start.o
 .rela.u_boot_list_2_uclass_2_usb_dev_generic
                0x00000000402a3b90       0x18 arch/arm/cpu/armv8/start.o
 .rela.data.ehci_usb_ops
                0x00000000402a3ba8       0xc0 arch/arm/cpu/armv8/start.o
 .rela.u_boot_list_2_driver_2_usb_mx6
                0x00000000402a3c68       0xa8 arch/arm/cpu/armv8/start.o
 .rela.data.env_htab
                0x00000000402a3d10       0x18 arch/arm/cpu/armv8/start.o
 .rela.u_boot_list_2_env_clbk_2_flags
                0x00000000402a3d28       0x30 arch/arm/cpu/armv8/start.o
 .rela.u_boot_list_2_env_clbk_2_callbacks
                0x00000000402a3d58       0x30 arch/arm/cpu/armv8/start.o
 .rela.u_boot_list_2_env_driver_2_mmc
                0x00000000402a3d88       0x48 arch/arm/cpu/armv8/start.o
 .rela.data.fstypes
                0x00000000402a3dd0      0x3d8 arch/arm/cpu/armv8/start.o
 .rela.rodata.driver_ops
                0x00000000402a41a8       0x48 arch/arm/cpu/armv8/start.o
 .rela.rodata.efi_blk_ops
                0x00000000402a41f0       0x30 arch/arm/cpu/armv8/start.o
 .rela.rodata.efi_device_path_to_text
                0x00000000402a4220       0x30 arch/arm/cpu/armv8/start.o
 .rela.rodata.efi_device_path_utilities
                0x00000000402a4250       0xc0 arch/arm/cpu/armv8/start.o
 .rela.rodata.efi_file_handle_protocol
                0x00000000402a4310      0x150 arch/arm/cpu/armv8/start.o
 .rela.rodata.efi_hii_database
                0x00000000402a4460      0x108 arch/arm/cpu/armv8/start.o
 .rela.rodata.efi_hii_string
                0x00000000402a4568       0x78 arch/arm/cpu/armv8/start.o
 .rela.rodata.efi_hii_config_routing
                0x00000000402a45e0       0x90 arch/arm/cpu/armv8/start.o
 .rela.rodata.efi_unicode_collation_protocol2
                0x00000000402a4670       0xa8 arch/arm/cpu/armv8/start.o
 .rela.rodata.fdt_errtable
                0x00000000402a4718      0x1b0 arch/arm/cpu/armv8/start.o
 .rela.rodata.smbios_write_funcs
                0x00000000402a48c8       0xa8 arch/arm/cpu/armv8/start.o
 .rela.u_boot_list_2_uclass_2_efi
                0x00000000402a4970       0x48 arch/arm/cpu/armv8/start.o
 .rela.u_boot_list_2_driver_2_efi_blk
                0x00000000402a49b8       0x30 arch/arm/cpu/armv8/start.o
 .rela.u_boot_list_2_driver_2_efi_block
                0x00000000402a49e8       0x30 arch/arm/cpu/armv8/start.o
 .rela.data.efi_boot_services
                0x00000000402a4a18      0x408 arch/arm/cpu/armv8/start.o
 .rela.data.efi_event_queue
                0x00000000402a4e20       0x30 arch/arm/cpu/armv8/start.o
 .rela.data.efi_obj_list
                0x00000000402a4e50       0x30 arch/arm/cpu/armv8/start.o
 .rela.data.efi_register_notify_events
                0x00000000402a4e80       0x30 arch/arm/cpu/armv8/start.o
 .rela.data.cin_notify_functions
                0x00000000402a4eb0       0x30 arch/arm/cpu/armv8/start.o
 .rela.data.efi_con_in
                0x00000000402a4ee0       0x30 arch/arm/cpu/armv8/start.o
 .rela.data.efi_con_in_ex
                0x00000000402a4f10       0x78 arch/arm/cpu/armv8/start.o
 .rela.data.efi_con_out
                0x00000000402a4f88       0xf0 arch/arm/cpu/armv8/start.o
 .rela.data.efi_keyboard_layout_list
                0x00000000402a5078       0x30 arch/arm/cpu/armv8/start.o
 .rela.data.efi_package_lists
                0x00000000402a50a8       0x30 arch/arm/cpu/armv8/start.o
 .rela.data.efi_mem
                0x00000000402a50d8       0x30 arch/arm/cpu/armv8/start.o
 .rela.data.efi_runtime_mmio
                0x00000000402a5108       0x30 arch/arm/cpu/armv8/start.o
 .rela.u_boot_list_2_env_clbk_2_ethaddr
                0x00000000402a5138       0x30 arch/arm/cpu/armv8/start.o
 .rela.u_boot_list_2_uclass_2_eth
                0x00000000402a5168       0x78 arch/arm/cpu/armv8/start.o
 .rela.u_boot_list_2_env_clbk_2_gatewayip
                0x00000000402a51e0       0x30 arch/arm/cpu/armv8/start.o
 .rela.u_boot_list_2_env_clbk_2_ipaddr
                0x00000000402a5210       0x30 arch/arm/cpu/armv8/start.o
 .rela.u_boot_list_2_env_clbk_2_netmask
                0x00000000402a5240       0x30 arch/arm/cpu/armv8/start.o
 .rela.u_boot_list_2_env_clbk_2_nvlan
                0x00000000402a5270       0x30 arch/arm/cpu/armv8/start.o
 .rela.u_boot_list_2_env_clbk_2_serverip
                0x00000000402a52a0       0x30 arch/arm/cpu/armv8/start.o
 .rela.u_boot_list_2_env_clbk_2_vlan
                0x00000000402a52d0       0x30 arch/arm/cpu/armv8/start.o

.rel_dyn_end    0x00000000402a5300        0x0
 *(.__rel_dyn_end)
 .__rel_dyn_end
                0x00000000402a5300        0x0 arch/arm/lib/built-in.o
                0x00000000402a5300                _end = .
                0x00000000402a5300                . = ALIGN (0x8)

.bss_start      0x00000000402a5300        0x0
 *(.__bss_start)
 .__bss_start   0x00000000402a5300        0x0 arch/arm/lib/built-in.o
                0x00000000402a5300                __bss_start

.bss            0x00000000402a5300    0x21860
 *(.bss*)
 .bss.params    0x00000000402a5300        0x8 arch/arm/lib/built-in.o
 .bss.bootefi_device_path
                0x00000000402a5308        0x8 cmd/built-in.o
 .bss.bootefi_image_path
                0x00000000402a5310        0x8 cmd/built-in.o
 .bss.data.7425
                0x00000000402a5318      0x400 cmd/built-in.o
 .bss.working_fdt
                0x00000000402a5718        0x8 cmd/built-in.o
                0x00000000402a5718                working_fdt
 .bss.i2c_cur_bus
                0x00000000402a5720        0x8 cmd/built-in.o
 .bss.i2c_dp_last_addr
                0x00000000402a5728        0x4 cmd/built-in.o
 .bss.i2c_dp_last_alen
                0x00000000402a572c        0x4 cmd/built-in.o
 .bss.i2c_dp_last_chip
                0x00000000402a5730        0x4 cmd/built-in.o
 .bss.i2c_mm_last_addr
                0x00000000402a5734        0x4 cmd/built-in.o
 .bss.i2c_mm_last_alen
                0x00000000402a5738        0x4 cmd/built-in.o
 .bss.i2c_mm_last_chip
                0x00000000402a573c        0x4 cmd/built-in.o
 .bss.a_b       0x00000000402a5740       0x18 cmd/built-in.o
 .bss.bin_start_address
                0x00000000402a5758        0x8 cmd/built-in.o
 .bss.his_eol   0x00000000402a5760        0x1 cmd/built-in.o
 .bss.his_pad_char
                0x00000000402a5761        0x1 cmd/built-in.o
 *fill*         0x00000000402a5762        0x2 
 .bss.his_pad_count
                0x00000000402a5764        0x4 cmd/built-in.o
 .bss.his_quote
                0x00000000402a5768        0x1 cmd/built-in.o
 *fill*         0x00000000402a5769        0x3 
 .bss.k_data_escape
                0x00000000402a576c        0x4 cmd/built-in.o
 .bss.k_data_escape_saved
                0x00000000402a5770        0x4 cmd/built-in.o
 *fill*         0x00000000402a5774        0x4 
 .bss.os_data_addr
                0x00000000402a5778        0x8 cmd/built-in.o
 .bss.os_data_addr_saved
                0x00000000402a5780        0x8 cmd/built-in.o
 .bss.os_data_char
                0x00000000402a5788        0x8 cmd/built-in.o
 .bss.os_data_init
                0x00000000402a5790        0x8 cmd/built-in.o
 .bss.os_data_state
                0x00000000402a5798        0x4 cmd/built-in.o
 .bss.os_data_state_saved
                0x00000000402a579c        0x4 cmd/built-in.o
 .bss.send_parms
                0x00000000402a57a0       0x14 cmd/built-in.o
 *fill*         0x00000000402a57b4        0x4 
 .bss.send_ptr  0x00000000402a57b8        0x8 cmd/built-in.o
 .bss.base_address
                0x00000000402a57c0        0x8 cmd/built-in.o
 .bss.dp_last_addr
                0x00000000402a57c8        0x8 cmd/built-in.o
 .bss.dp_last_size
                0x00000000402a57d0        0x8 cmd/built-in.o
 .bss.mm_last_addr
                0x00000000402a57d8        0x8 cmd/built-in.o
 .bss.mm_last_size
                0x00000000402a57e0        0x8 cmd/built-in.o
 .bss.last_addr_hi
                0x00000000402a57e8        0x8 cmd/built-in.o
 .bss.last_addr_lo
                0x00000000402a57f0        0x8 cmd/built-in.o
 .bss.last_data
                0x00000000402a57f8        0x8 cmd/built-in.o
 .bss.last_mask
                0x00000000402a5800        0x4 cmd/built-in.o
 .bss.last_op   0x00000000402a5804        0x4 cmd/built-in.o
 .bss.last_reg_hi
                0x00000000402a5808        0x8 cmd/built-in.o
 .bss.last_reg_lo
                0x00000000402a5810        0x8 cmd/built-in.o
 .bss.last_devad_hi
                0x00000000402a5818        0x4 cmd/built-in.o
 .bss.last_devad_lo
                0x00000000402a581c        0x4 cmd/built-in.o
 .bss.currdev   0x00000000402a5820       0x10 cmd/built-in.o
 .bss.ums       0x00000000402a5830        0x8 cmd/built-in.o
 .bss.ums_count
                0x00000000402a5838        0x4 cmd/built-in.o
 .bss.buf.7759  0x00000000402a583c       0x28 common/built-in.o
 .bss.do_repeat
                0x00000000402a5864        0x4 common/built-in.o
 .bss.flag_repeat
                0x00000000402a5868        0x4 common/built-in.o
 *fill*         0x00000000402a586c        0x4 
 .bss.ifs       0x00000000402a5870        0x8 common/built-in.o
 .bss.last_return_code
                0x00000000402a5878        0x4 common/built-in.o
 .bss.map       0x00000000402a587c      0x100 common/built-in.o
 .bss.the_command.7559
                0x00000000402a597c      0x801 common/built-in.o
 *fill*         0x00000000402a617d        0x3 
 .bss.top_vars  0x00000000402a6180        0x8 common/built-in.o
 .bss.stored_bootdelay
                0x00000000402a6188        0x4 common/built-in.o
 *fill*         0x00000000402a618c        0x4 
 .bss.monitor_flash_len
                0x00000000402a6190        0x8 common/built-in.o
                0x00000000402a6190                monitor_flash_len
 .bss.images    0x00000000402a6198      0x280 common/built-in.o
                0x00000000402a6198                images
 .bss.current_mii
                0x00000000402a6418        0x8 common/built-in.o
 .bss.mii_devs  0x00000000402a6420       0x10 common/built-in.o
 .bss.usb_started
                0x00000000402a6430        0x1 common/built-in.o
                0x00000000402a6430                usb_started
 *fill*         0x00000000402a6431        0x3 
 .bss.running.8979
                0x00000000402a6434        0x4 common/built-in.o
 .bss.CBWTag    0x00000000402a6438        0x4 common/built-in.o
 *fill*         0x00000000402a643c        0x4 
 .bss.usb_ccb   0x00000000402a6440      0x100 common/built-in.o
 .bss.usb_max_devs
                0x00000000402a6540        0x4 common/built-in.o
 .bss.console_buffer
                0x00000000402a6544      0x801 common/built-in.o
                0x00000000402a6544                console_buffer
 *fill*         0x00000000402a6d45        0x3 
 .bss.hist_add_idx
                0x00000000402a6d48        0x4 common/built-in.o
 .bss.hist_lines
                0x00000000402a6d4c     0xa014 common/built-in.o
 .bss.hist_list
                0x00000000402b0d60       0xa0 common/built-in.o
 .bss.hist_max  0x00000000402b0e00        0x4 common/built-in.o
 .bss.hist_num  0x00000000402b0e04        0x4 common/built-in.o
 .bss.initted.7360
                0x00000000402b0e08        0x4 common/built-in.o
 .bss.cd_count  0x00000000402b0e0c        0xc common/built-in.o
                0x00000000402b0e0c                cd_count
 .bss.console_devices
                0x00000000402b0e18       0x18 common/built-in.o
                0x00000000402b0e18                console_devices
 .bss.ctrlc_disabled
                0x00000000402b0e30        0x4 common/built-in.o
 .bss.ctrlc_was_pressed
                0x00000000402b0e34        0x4 common/built-in.o
 .bss.tstcdev   0x00000000402b0e38        0x8 common/built-in.o
 .bss.current_mallinfo
                0x00000000402b0e40       0x28 common/built-in.o
 .bss.max_sbrked_mem
                0x00000000402b0e68        0x8 common/built-in.o
 .bss.max_total_mem
                0x00000000402b0e70        0x8 common/built-in.o
 .bss.mem_malloc_brk
                0x00000000402b0e78        0x8 common/built-in.o
                0x00000000402b0e78                mem_malloc_brk
 .bss.mem_malloc_end
                0x00000000402b0e80        0x8 common/built-in.o
                0x00000000402b0e80                mem_malloc_end
 .bss.mem_malloc_start
                0x00000000402b0e88        0x8 common/built-in.o
                0x00000000402b0e88                mem_malloc_start
 .bss.top_pad   0x00000000402b0e90        0x8 common/built-in.o
 .bss.andr_tmp_str
                0x00000000402b0e98      0x201 common/built-in.o
 *fill*         0x00000000402b1099        0x7 
 .bss.devs      0x00000000402b10a0       0x70 common/built-in.o
 .bss.stdio_devices
                0x00000000402b1110       0x18 common/built-in.o
                0x00000000402b1110                stdio_devices
 .bss.env_complete_buf
                0x00000000402b1128      0x200 common/built-in.o
 .bss.tmp_buf   0x00000000402b1328      0x801 common/built-in.o
 *fill*         0x00000000402b1b29        0x7 
 .bss.xyz       0x00000000402b1b30      0x448 common/built-in.o
 .bss.name.7376
                0x00000000402b1f78       0x25 disk/built-in.o
 *fill*         0x00000000402b1f9d        0x3 
 .bss.clk_composite_ops
                0x00000000402b1fa0       0x40 drivers/built-in.o
                0x00000000402b1fa0                clk_composite_ops
 .bss.boot_addr_start.7234
                0x00000000402b1fe0       0x14 drivers/built-in.o
 *fill*         0x00000000402b1ff4        0x4 
 .bss.fastboot_buf_addr
                0x00000000402b1ff8        0x8 drivers/built-in.o
                0x00000000402b1ff8                fastboot_buf_addr
 .bss.fastboot_buf_size
                0x00000000402b2000        0x4 drivers/built-in.o
                0x00000000402b2000                fastboot_buf_size
 *fill*         0x00000000402b2004        0x4 
 .bss.fastboot_progress_callback
                0x00000000402b2008        0x8 drivers/built-in.o
                0x00000000402b2008                fastboot_progress_callback
 .bss.metrics   0x00000000402b2010       0x1c drivers/built-in.o
                0x00000000402b2010                metrics
 .bss.fastboot_bytes_expected
                0x00000000402b202c        0x4 drivers/built-in.o
 .bss.fastboot_bytes_received
                0x00000000402b2030        0x4 drivers/built-in.o
 .bss.g_a_cmd_buff
                0x00000000402b2034       0x40 drivers/built-in.o
 .bss.boot_dev_part.10415
                0x00000000402b2074       0x20 drivers/built-in.o
 .bss.serial    0x00000000402b2094       0x20 drivers/built-in.o
 .bss.g_pcount  0x00000000402b20b4        0x4 drivers/built-in.o
                0x00000000402b20b4                g_pcount
 .bss.g_ptable  0x00000000402b20b8      0xc00 drivers/built-in.o
                0x00000000402b20b8                g_ptable
 .bss.initialized.9124
                0x00000000402b2cb8        0x4 drivers/built-in.o
 *fill*         0x00000000402b2cbc        0x4 
 .bss.serial_current
                0x00000000402b2cc0        0x8 drivers/serial/built-in.o
 .bss.serial_devices
                0x00000000402b2cc8        0x8 drivers/serial/built-in.o
 .bss.epnum     0x00000000402b2cd0        0x4 drivers/usb/gadget/built-in.o
 *fill*         0x00000000402b2cd4        0x4 
 .bss.composite
                0x00000000402b2cd8        0x8 drivers/usb/gadget/built-in.o
 .bss.g_dnl_detach_request
                0x00000000402b2ce0        0x1 drivers/usb/gadget/built-in.o
 .bss.g_dnl_serial
                0x00000000402b2ce1      0x100 drivers/usb/gadget/built-in.o
 *fill*         0x00000000402b2de1        0x3 
 .bss.controller_index
                0x00000000402b2de4        0x4 drivers/usb/gadget/built-in.o
 .bss.state.9187
                0x00000000402b2de8        0x4 drivers/usb/gadget/built-in.o
 *fill*         0x00000000402b2dec        0x4 
 .bss.the_fsg_common
                0x00000000402b2df0        0x8 drivers/usb/gadget/built-in.o
 .bss.ums       0x00000000402b2df8        0x8 drivers/usb/gadget/built-in.o
 .bss.ums_count
                0x00000000402b2e00        0x4 drivers/usb/gadget/built-in.o
 .bss.unknown.9443
                0x00000000402b2e04       0x10 drivers/usb/gadget/built-in.o
 *fill*         0x00000000402b2e14        0x4 
 .bss.fastboot_func
                0x00000000402b2e18        0x8 drivers/usb/gadget/built-in.o
 .bss.dev_array
                0x00000000402b2e20       0x20 drivers/usb/gadget/udc/built-in.o
 .bss.asynch_allowed
                0x00000000402b2e40        0x1 drivers/usb/host/built-in.o
 *fill*         0x00000000402b2e41        0x7 
 .bss.flags_list
                0x00000000402b2e48        0x8 env/built-in.o
 .bss.callback_list
                0x00000000402b2e50        0x8 env/built-in.o
 .bss.fs_dev_desc
                0x00000000402b2e58        0x8 fs/built-in.o
 .bss.fs_dev_part
                0x00000000402b2e60        0x4 fs/built-in.o
 *fill*         0x00000000402b2e64        0x4 
 .bss.fs_partition
                0x00000000402b2e68       0x88 fs/built-in.o
 .bss.fs_type   0x00000000402b2ef0        0x4 fs/built-in.o
 *fill*         0x00000000402b2ef4        0x4 
 .bss.ext_fs    0x00000000402b2ef8       0x68 fs/built-in.o
                0x00000000402b2ef8                ext_fs
 .bss.ext4fs_file
                0x00000000402b2f60        0x8 fs/built-in.o
                0x00000000402b2f60                ext4fs_file
 .bss.ext4fs_indir1_block
                0x00000000402b2f68        0x8 fs/built-in.o
                0x00000000402b2f68                ext4fs_indir1_block
 .bss.ext4fs_indir1_size
                0x00000000402b2f70        0x4 fs/built-in.o
                0x00000000402b2f70                ext4fs_indir1_size
 *fill*         0x00000000402b2f74        0x4 
 .bss.ext4fs_indir2_block
                0x00000000402b2f78        0x8 fs/built-in.o
                0x00000000402b2f78                ext4fs_indir2_block
 .bss.ext4fs_indir2_size
                0x00000000402b2f80        0x4 fs/built-in.o
                0x00000000402b2f80                ext4fs_indir2_size
 *fill*         0x00000000402b2f84        0x4 
 .bss.ext4fs_indir3_block
                0x00000000402b2f88        0x8 fs/built-in.o
                0x00000000402b2f88                ext4fs_indir3_block
 .bss.ext4fs_indir3_size
                0x00000000402b2f90        0x4 fs/built-in.o
                0x00000000402b2f90                ext4fs_indir3_size
 *fill*         0x00000000402b2f94        0x4 
 .bss.ext4fs_root
                0x00000000402b2f98        0x8 fs/built-in.o
                0x00000000402b2f98                ext4fs_root
 .bss.g_parent_inode
                0x00000000402b2fa0        0x8 fs/built-in.o
                0x00000000402b2fa0                g_parent_inode
 .bss.symlinknest
                0x00000000402b2fa8        0x4 fs/built-in.o
 *fill*         0x00000000402b2fac        0x4 
 .bss.part_info
                0x00000000402b2fb0        0x8 fs/built-in.o
 .bss.part_offset
                0x00000000402b2fb8        0x8 fs/built-in.o
                0x00000000402b2fb8                part_offset
 .bss.dirty_block_ptr
                0x00000000402b2fc0      0x320 fs/built-in.o
                0x00000000402b2fc0                dirty_block_ptr
 .bss.gd_index  0x00000000402b32e0        0x4 fs/built-in.o
                0x00000000402b32e0                gd_index
 .bss.gindex    0x00000000402b32e4        0x4 fs/built-in.o
                0x00000000402b32e4                gindex
 .bss.journal_ptr
                0x00000000402b32e8      0x320 fs/built-in.o
                0x00000000402b32e8                journal_ptr
 .bss.jrnl_blk_idx
                0x00000000402b3608        0x4 fs/built-in.o
                0x00000000402b3608                jrnl_blk_idx
 *fill*         0x00000000402b360c        0x4 
 .bss.prev_node
                0x00000000402b3610        0x8 fs/built-in.o
 .bss.revk_blk_list
                0x00000000402b3618        0x8 fs/built-in.o
 .bss.cur_dev   0x00000000402b3620        0x8 fs/built-in.o
 .bss.cur_part_info
                0x00000000402b3628       0x88 fs/built-in.o
 *fill*         0x00000000402b36b0       0x10 
 .bss.tmpbuf_cluster
                0x00000000402b36c0    0x10000 fs/built-in.o
 .bss.total_sector
                0x00000000402c36c0        0x4 fs/built-in.o
 *fill*         0x00000000402c36c4        0x4 
 .bss.rs        0x00000000402c36c8        0x8 lib/built-in.o
 .bss.app_gd    0x00000000402c36d0        0x8 lib/built-in.o
 .bss.current_image
                0x00000000402c36d8        0x8 lib/built-in.o
 .bss.efi_gd    0x00000000402c36e0        0x8 lib/built-in.o
 .bss.mono.9914
                0x00000000402c36e8        0x8 lib/built-in.o
 .bss.ret.9843  0x00000000402c36f0        0x8 lib/built-in.o
 .bss.console_timer_event
                0x00000000402c36f8        0x8 lib/built-in.o
 .bss.key_available
                0x00000000402c3700        0x1 lib/built-in.o
 *fill*         0x00000000402c3701        0x3 
 .bss.next_key  0x00000000402c3704        0xc lib/built-in.o
 .bss.efi_memory_map_key
                0x00000000402c3710        0x8 lib/built-in.o
                0x00000000402c3710                efi_memory_map_key
 .bss.efi_root  0x00000000402c3718        0x8 lib/built-in.o
                0x00000000402c3718                efi_root
 .bss.efi_variables_list
                0x00000000402c3720        0x8 lib/built-in.o
 .bss.watchdog_timer_event
                0x00000000402c3728        0x8 lib/built-in.o
 .bss.dhcp_ack  0x00000000402c3730        0x8 lib/built-in.o
 .bss.network_timer_event
                0x00000000402c3738        0x8 lib/built-in.o
 .bss.new_rx_packet
                0x00000000402c3740        0x1 lib/built-in.o
 *fill*         0x00000000402c3741        0x7 
 .bss.new_tx_packet
                0x00000000402c3748        0x8 lib/built-in.o
 .bss.transmit_buffer
                0x00000000402c3750        0x8 lib/built-in.o
 .bss.wait_for_packet
                0x00000000402c3758        0x8 lib/built-in.o
 .bss.errno     0x00000000402c3760        0x4 lib/built-in.o
                0x00000000402c3760                errno
 *fill*         0x00000000402c3764        0x4 
 .bss.___strtok
                0x00000000402c3768        0x8 lib/built-in.o
                0x00000000402c3768                ___strtok
 .bss.local.9443
                0x00000000402c3770       0x16 lib/built-in.o
 *fill*         0x00000000402c3786        0x2 
 .bss.arp_tx_packet
                0x00000000402c3788        0x8 net/built-in.o
                0x00000000402c3788                arp_tx_packet
 .bss.arp_tx_packet_buf
                0x00000000402c3790      0x640 net/built-in.o
 .bss.arp_wait_packet_ethaddr
                0x00000000402c3dd0        0x8 net/built-in.o
                0x00000000402c3dd0                arp_wait_packet_ethaddr
 .bss.arp_wait_timer_start
                0x00000000402c3dd8        0x8 net/built-in.o
                0x00000000402c3dd8                arp_wait_timer_start
 .bss.arp_wait_try
                0x00000000402c3de0        0x4 net/built-in.o
                0x00000000402c3de0                arp_wait_try
 .bss.arp_wait_tx_packet_size
                0x00000000402c3de4        0x4 net/built-in.o
                0x00000000402c3de4                arp_wait_tx_packet_size
 .bss.net_arp_wait_packet_ip
                0x00000000402c3de8        0x4 net/built-in.o
                0x00000000402c3de8                net_arp_wait_packet_ip
 .bss.net_arp_wait_reply_ip
                0x00000000402c3dec        0x4 net/built-in.o
 .bss.bootp_ids
                0x00000000402c3df0       0x10 net/built-in.o
                0x00000000402c3df0                bootp_ids
 .bss.bootp_num_ids
                0x00000000402c3e00        0x4 net/built-in.o
                0x00000000402c3e00                bootp_num_ids
 *fill*         0x00000000402c3e04        0x4 
 .bss.bootp_start
                0x00000000402c3e08        0x8 net/built-in.o
                0x00000000402c3e08                bootp_start
 .bss.bootp_timeout
                0x00000000402c3e10        0x8 net/built-in.o
                0x00000000402c3e10                bootp_timeout
 .bss.bootp_try
                0x00000000402c3e18        0x4 net/built-in.o
                0x00000000402c3e18                bootp_try
 .bss.dhcp_leasetime
                0x00000000402c3e1c        0x4 net/built-in.o
 .bss.dhcp_option_overload
                0x00000000402c3e20        0x1 net/built-in.o
 *fill*         0x00000000402c3e21        0x3 
 .bss.dhcp_server_ip
                0x00000000402c3e24        0x4 net/built-in.o
 .bss.dhcp_state
                0x00000000402c3e28        0x4 net/built-in.o
 .bss.net_hostname
                0x00000000402c3e2c       0x20 net/built-in.o
                0x00000000402c3e2c                net_hostname
 .bss.net_nis_domain
                0x00000000402c3e4c       0x20 net/built-in.o
                0x00000000402c3e4c                net_nis_domain
 .bss.net_root_path
                0x00000000402c3e6c       0x40 net/built-in.o
                0x00000000402c3e6c                net_root_path
 *fill*         0x00000000402c3eac        0x4 
 .bss.time_taken_max
                0x00000000402c3eb0        0x8 net/built-in.o
 .bss.eth_errno
                0x00000000402c3eb8        0x4 net/built-in.o
 *fill*         0x00000000402c3ebc        0x4 
 .bss.act.8475  0x00000000402c3ec0        0x8 net/built-in.o
 .bss.env_changed_id.8476
                0x00000000402c3ec8        0x4 net/built-in.o
 *fill*         0x00000000402c3ecc        0x4 
 .bss.first_failed.8470
                0x00000000402c3ed0        0x8 net/built-in.o
 .bss.arp_packet_handler
                0x00000000402c3ed8        0x8 net/built-in.o
 .bss.net_boot_file_expected_size_in_blocks
                0x00000000402c3ee0        0x4 net/built-in.o
                0x00000000402c3ee0                net_boot_file_expected_size_in_blocks
 .bss.net_boot_file_name
                0x00000000402c3ee4      0x400 net/built-in.o
                0x00000000402c3ee4                net_boot_file_name
 .bss.net_boot_file_name_explicit
                0x00000000402c42e4        0x1 net/built-in.o
                0x00000000402c42e4                net_boot_file_name_explicit
 *fill*         0x00000000402c42e5        0x3 
 .bss.net_boot_file_size
                0x00000000402c42e8        0x4 net/built-in.o
                0x00000000402c42e8                net_boot_file_size
 .bss.net_dev_exists
                0x00000000402c42ec        0x4 net/built-in.o
 .bss.net_dns_server
                0x00000000402c42f0        0x4 net/built-in.o
                0x00000000402c42f0                net_dns_server
 .bss.net_ethaddr
                0x00000000402c42f4        0x6 net/built-in.o
                0x00000000402c42f4                net_ethaddr
 *fill*         0x00000000402c42fa        0x2 
 .bss.net_gateway
                0x00000000402c42fc        0x4 net/built-in.o
                0x00000000402c42fc                net_gateway
 .bss.net_ip    0x00000000402c4300        0x4 net/built-in.o
                0x00000000402c4300                net_ip
 .bss.net_ip_id
                0x00000000402c4304        0x4 net/built-in.o
 .bss.net_netmask
                0x00000000402c4308        0x4 net/built-in.o
                0x00000000402c4308                net_netmask
 .bss.net_pkt_buf
                0x00000000402c430c     0x1e40 net/built-in.o
 .bss.net_restart_wrap
                0x00000000402c614c        0x4 net/built-in.o
                0x00000000402c614c                net_restart_wrap
 .bss.net_restarted
                0x00000000402c6150        0x4 net/built-in.o
 *fill*         0x00000000402c6154        0x4 
 .bss.net_rx_packet
                0x00000000402c6158        0x8 net/built-in.o
                0x00000000402c6158                net_rx_packet
 .bss.net_rx_packet_len
                0x00000000402c6160        0x4 net/built-in.o
                0x00000000402c6160                net_rx_packet_len
 *fill*         0x00000000402c6164        0x4 
 .bss.net_rx_packets
                0x00000000402c6168       0x20 net/built-in.o
                0x00000000402c6168                net_rx_packets
 .bss.net_server_ethaddr
                0x00000000402c6188        0x6 net/built-in.o
                0x00000000402c6188                net_server_ethaddr
 *fill*         0x00000000402c618e        0x2 
 .bss.net_server_ip
                0x00000000402c6190        0x4 net/built-in.o
                0x00000000402c6190                net_server_ip
 .bss.net_state
                0x00000000402c6194        0x4 net/built-in.o
                0x00000000402c6194                net_state
 .bss.net_try_count
                0x00000000402c6198        0x4 net/built-in.o
 *fill*         0x00000000402c619c        0x4 
 .bss.net_tx_packet
                0x00000000402c61a0        0x8 net/built-in.o
                0x00000000402c61a0                net_tx_packet
 .bss.push_packet
                0x00000000402c61a8        0x8 net/built-in.o
                0x00000000402c61a8                push_packet
 .bss.time_delta
                0x00000000402c61b0        0x8 net/built-in.o
 .bss.time_handler
                0x00000000402c61b8        0x8 net/built-in.o
 .bss.time_start
                0x00000000402c61c0       0x10 net/built-in.o
 .bss.udp_packet_handler
                0x00000000402c61d0        0x8 net/built-in.o
 .bss.dirfh     0x00000000402c61d8       0x20 net/built-in.o
 .bss.filefh    0x00000000402c61f8       0x40 net/built-in.o
 .bss.filefh3_length
                0x00000000402c6238        0x4 net/built-in.o
 .bss.fs_mounted
                0x00000000402c623c        0x4 net/built-in.o
 .bss.nfs_download_state
                0x00000000402c6240        0x4 net/built-in.o
 *fill*         0x00000000402c6244        0x4 
 .bss.nfs_filename
                0x00000000402c6248        0x8 net/built-in.o
 .bss.nfs_len   0x00000000402c6250        0x4 net/built-in.o
 .bss.nfs_our_port
                0x00000000402c6254        0x4 net/built-in.o
 .bss.nfs_path  0x00000000402c6258        0x8 net/built-in.o
 .bss.nfs_path_buff
                0x00000000402c6260      0x800 net/built-in.o
 .bss.nfs_server_ip
                0x00000000402c6a60        0x4 net/built-in.o
 .bss.nfs_server_mount_port
                0x00000000402c6a64        0x4 net/built-in.o
 .bss.nfs_server_port
                0x00000000402c6a68        0x4 net/built-in.o
 .bss.nfs_state
                0x00000000402c6a6c        0x4 net/built-in.o
 .bss.nfs_timeout_count
                0x00000000402c6a70        0x4 net/built-in.o
 *fill*         0x00000000402c6a74        0x4 
 .bss.rpc_id    0x00000000402c6a78        0x8 net/built-in.o
 .bss.net_ping_ip
                0x00000000402c6a80        0x4 net/built-in.o
                0x00000000402c6a80                net_ping_ip
 .bss.ping_seq_number
                0x00000000402c6a84        0x2 net/built-in.o
 .bss.default_filename
                0x00000000402c6a86        0xd net/built-in.o
 *fill*         0x00000000402c6a93        0x5 
 .bss.tftp_block_wrap
                0x00000000402c6a98        0x8 net/built-in.o
 .bss.tftp_block_wrap_offset
                0x00000000402c6aa0        0x8 net/built-in.o
 .bss.tftp_cur_block
                0x00000000402c6aa8        0x8 net/built-in.o
 .bss.tftp_filename
                0x00000000402c6ab0       0x80 net/built-in.o
 .bss.tftp_load_addr
                0x00000000402c6b30        0x8 net/built-in.o
 .bss.tftp_load_size
                0x00000000402c6b38        0x8 net/built-in.o
 .bss.tftp_our_port
                0x00000000402c6b40        0x4 net/built-in.o
 *fill*         0x00000000402c6b44        0x4 
 .bss.tftp_prev_block
                0x00000000402c6b48        0x8 net/built-in.o
 .bss.tftp_remote_ip
                0x00000000402c6b50        0x4 net/built-in.o
 .bss.tftp_remote_port
                0x00000000402c6b54        0x4 net/built-in.o
 .bss.tftp_state
                0x00000000402c6b58        0x4 net/built-in.o
 .bss.timeout_count
                0x00000000402c6b5c        0x4 net/built-in.o
                0x00000000402c6b60                . = ALIGN (0x8)

.dynbss         0x00000000402c6b60        0x0
 .dynbss        0x00000000402c6b60        0x0 arch/arm/cpu/armv8/start.o

.bss_end        0x00000000402c6b60        0x0
 *(.__bss_end)
 .__bss_end     0x00000000402c6b60        0x0 arch/arm/lib/built-in.o
                0x00000000402c6b60                __bss_end

/DISCARD/
 *(.dynsym)
 *(.dynstr*)
 *(.dynamic*)
 *(.plt*)
 *(.interp*)
 *(.gnu*)
LOAD arch/arm/cpu/armv8/start.o
START GROUP
LOAD arch/arm/cpu/built-in.o
LOAD arch/arm/cpu/armv8/built-in.o
LOAD arch/arm/lib/built-in.o
LOAD arch/arm/mach-imx/built-in.o
LOAD board/variscite/imx8mm_var_dart/built-in.o
LOAD cmd/built-in.o
LOAD common/built-in.o
LOAD disk/built-in.o
LOAD drivers/built-in.o
LOAD drivers/dma/built-in.o
LOAD drivers/gpio/built-in.o
LOAD drivers/i2c/built-in.o
LOAD drivers/net/built-in.o
LOAD drivers/net/phy/built-in.o
LOAD drivers/power/built-in.o
LOAD drivers/power/battery/built-in.o
LOAD drivers/power/domain/built-in.o
LOAD drivers/power/fuel_gauge/built-in.o
LOAD drivers/power/mfd/built-in.o
LOAD drivers/power/pmic/built-in.o
LOAD drivers/power/regulator/built-in.o
LOAD drivers/serial/built-in.o
LOAD drivers/spi/built-in.o
LOAD drivers/usb/cdns3/built-in.o
LOAD drivers/usb/common/built-in.o
LOAD drivers/usb/dwc3/built-in.o
LOAD drivers/usb/emul/built-in.o
LOAD drivers/usb/eth/built-in.o
LOAD drivers/usb/gadget/built-in.o
LOAD drivers/usb/gadget/udc/built-in.o
LOAD drivers/usb/host/built-in.o
LOAD drivers/usb/imx/built-in.o
LOAD drivers/usb/musb-new/built-in.o
LOAD drivers/usb/musb/built-in.o
LOAD drivers/usb/phy/built-in.o
LOAD drivers/usb/ulpi/built-in.o
LOAD env/built-in.o
LOAD fs/built-in.o
LOAD lib/built-in.o
LOAD net/built-in.o
END GROUP
LOAD /home/gslab/var-fslc-yocto/build_xwayland/tmp/work/imx8mm_var_dart-fslc-linux/u-boot-variscite/1.0-r0/recipe-sysroot/usr/lib/aarch64-fslc-linux/9.3.0/libgcc.a
OUTPUT(u-boot elf64-littleaarch64)
LOAD linker stubs

.debug_line     0x0000000000000000    0xaa113
 .debug_line    0x0000000000000000       0x8e arch/arm/cpu/armv8/start.o
 .debug_line    0x000000000000008e     0x21a1 arch/arm/cpu/armv8/built-in.o
 .debug_line    0x000000000000222f     0x1966 arch/arm/lib/built-in.o
 .debug_line    0x0000000000003b95     0x48ab arch/arm/mach-imx/built-in.o
 .debug_line    0x0000000000008440     0x177a board/variscite/imx8mm_var_dart/built-in.o
 .debug_line    0x0000000000009bba    0x12d59 cmd/built-in.o
 .debug_line    0x000000000001c913    0x1800c common/built-in.o
 .debug_line    0x000000000003491f     0x298b disk/built-in.o
 .debug_line    0x00000000000372aa    0x1f27c drivers/built-in.o
 .debug_line    0x0000000000056526     0x1943 drivers/gpio/built-in.o
 .debug_line    0x0000000000057e69     0x1d89 drivers/i2c/built-in.o
 .debug_line    0x0000000000059bf2     0x1494 drivers/net/built-in.o
 .debug_line    0x000000000005b086     0x1c10 drivers/net/phy/built-in.o
 .debug_line    0x000000000005cc96     0x1aea drivers/power/regulator/built-in.o
 .debug_line    0x000000000005e780      0xbad drivers/serial/built-in.o
 .debug_line    0x000000000005f32d      0x2fc drivers/usb/common/built-in.o
 .debug_line    0x000000000005f629     0x97ff drivers/usb/gadget/built-in.o
 .debug_line    0x0000000000068e28      0xc29 drivers/usb/gadget/udc/built-in.o
 .debug_line    0x0000000000069a51     0x3673 drivers/usb/host/built-in.o
 .debug_line    0x000000000006d0c4      0x39b drivers/usb/imx/built-in.o
 .debug_line    0x000000000006d45f     0x21f7 env/built-in.o
 .debug_line    0x000000000006f656     0xb167 fs/built-in.o
 .debug_line    0x000000000007a7bd    0x297be lib/built-in.o
 .debug_line    0x00000000000a3f7b     0x6198 net/built-in.o

.debug_info     0x0000000000000000   0x2cc122
 .debug_info    0x0000000000000000       0x2e arch/arm/cpu/armv8/start.o
 .debug_info    0x000000000000002e     0x72b6 arch/arm/cpu/armv8/built-in.o
 .debug_info    0x00000000000072e4     0xb453 arch/arm/lib/built-in.o
 .debug_info    0x0000000000012737    0x178a8 arch/arm/mach-imx/built-in.o
 .debug_info    0x0000000000029fdf     0xa33a board/variscite/imx8mm_var_dart/built-in.o
 .debug_info    0x0000000000034319    0x5b1a5 cmd/built-in.o
 .debug_info    0x000000000008f4be    0x5b22e common/built-in.o
 .debug_info    0x00000000000ea6ec     0x83fd disk/built-in.o
 .debug_info    0x00000000000f2ae9    0x907ae drivers/built-in.o
 .debug_info    0x0000000000183297     0x64d6 drivers/gpio/built-in.o
 .debug_info    0x000000000018976d     0x73bb drivers/i2c/built-in.o
 .debug_info    0x0000000000190b28     0x58e2 drivers/net/built-in.o
 .debug_info    0x000000000019640a     0x6449 drivers/net/phy/built-in.o
 .debug_info    0x000000000019c853     0x8b28 drivers/power/regulator/built-in.o
 .debug_info    0x00000000001a537b     0x3c9a drivers/serial/built-in.o
 .debug_info    0x00000000001a9015     0x1384 drivers/usb/common/built-in.o
 .debug_info    0x00000000001aa399    0x1ef22 drivers/usb/gadget/built-in.o
 .debug_info    0x00000000001c92bb     0x45f4 drivers/usb/gadget/udc/built-in.o
 .debug_info    0x00000000001cd8af     0xd794 drivers/usb/host/built-in.o
 .debug_info    0x00000000001db043     0x1bce drivers/usb/imx/built-in.o
 .debug_info    0x00000000001dcc11     0xa282 env/built-in.o
 .debug_info    0x00000000001e6e93    0x21c60 fs/built-in.o
 .debug_info    0x0000000000208af3    0xab424 lib/built-in.o
 .debug_info    0x00000000002b3f17    0x1820b net/built-in.o

.debug_abbrev   0x0000000000000000    0x51cc7
 .debug_abbrev  0x0000000000000000       0x14 arch/arm/cpu/armv8/start.o
 .debug_abbrev  0x0000000000000014     0x12fd arch/arm/cpu/armv8/built-in.o
 .debug_abbrev  0x0000000000001311     0x17f2 arch/arm/lib/built-in.o
 .debug_abbrev  0x0000000000002b03     0x2ba8 arch/arm/mach-imx/built-in.o
 .debug_abbrev  0x00000000000056ab     0x1382 board/variscite/imx8mm_var_dart/built-in.o
 .debug_abbrev  0x0000000000006a2d     0xbb97 cmd/built-in.o
 .debug_abbrev  0x00000000000125c4     0xa33a common/built-in.o
 .debug_abbrev  0x000000000001c8fe     0x11f7 disk/built-in.o
 .debug_abbrev  0x000000000001daf5    0x11671 drivers/built-in.o
 .debug_abbrev  0x000000000002f166      0xb05 drivers/gpio/built-in.o
 .debug_abbrev  0x000000000002fc6b      0xd22 drivers/i2c/built-in.o
 .debug_abbrev  0x000000000003098d      0x722 drivers/net/built-in.o
 .debug_abbrev  0x00000000000310af      0xa82 drivers/net/phy/built-in.o
 .debug_abbrev  0x0000000000031b31     0x10f6 drivers/power/regulator/built-in.o
 .debug_abbrev  0x0000000000032c27      0x9ee drivers/serial/built-in.o
 .debug_abbrev  0x0000000000033615      0x2f4 drivers/usb/common/built-in.o
 .debug_abbrev  0x0000000000033909     0x29e0 drivers/usb/gadget/built-in.o
 .debug_abbrev  0x00000000000362e9      0x9e5 drivers/usb/gadget/udc/built-in.o
 .debug_abbrev  0x0000000000036cce     0x148a drivers/usb/host/built-in.o
 .debug_abbrev  0x0000000000038158      0x37a drivers/usb/imx/built-in.o
 .debug_abbrev  0x00000000000384d2     0x1b14 env/built-in.o
 .debug_abbrev  0x0000000000039fe6     0x2eb5 fs/built-in.o
 .debug_abbrev  0x000000000003ce9b    0x122e7 lib/built-in.o
 .debug_abbrev  0x000000000004f182     0x2b45 net/built-in.o

.debug_aranges  0x0000000000000000     0xdc00
 .debug_aranges
                0x0000000000000000       0x30 arch/arm/cpu/armv8/start.o
 .debug_aranges
                0x0000000000000030      0x4d0 arch/arm/cpu/armv8/built-in.o
 .debug_aranges
                0x0000000000000500      0x380 arch/arm/lib/built-in.o
 .debug_aranges
                0x0000000000000880      0x770 arch/arm/mach-imx/built-in.o
 .debug_aranges
                0x0000000000000ff0      0x200 board/variscite/imx8mm_var_dart/built-in.o
 .debug_aranges
                0x00000000000011f0     0x1450 cmd/built-in.o
 .debug_aranges
                0x0000000000002640     0x20b0 common/built-in.o
 .debug_aranges
                0x00000000000046f0      0x2d0 disk/built-in.o
 .debug_aranges
                0x00000000000049c0     0x2a30 drivers/built-in.o
 .debug_aranges
                0x00000000000073f0      0x3a0 drivers/gpio/built-in.o
 .debug_aranges
                0x0000000000007790      0x290 drivers/i2c/built-in.o
 .debug_aranges
                0x0000000000007a20      0x140 drivers/net/built-in.o
 .debug_aranges
                0x0000000000007b60      0x1f0 drivers/net/phy/built-in.o
 .debug_aranges
                0x0000000000007d50      0x2e0 drivers/power/regulator/built-in.o
 .debug_aranges
                0x0000000000008030      0x200 drivers/serial/built-in.o
 .debug_aranges
                0x0000000000008230       0x40 drivers/usb/common/built-in.o
 .debug_aranges
                0x0000000000008270      0x7e0 drivers/usb/gadget/built-in.o
 .debug_aranges
                0x0000000000008a50      0x140 drivers/usb/gadget/udc/built-in.o
 .debug_aranges
                0x0000000000008b90      0x440 drivers/usb/host/built-in.o
 .debug_aranges
                0x0000000000008fd0       0x50 drivers/usb/imx/built-in.o
 .debug_aranges
                0x0000000000009020      0x330 env/built-in.o
 .debug_aranges
                0x0000000000009350      0xa60 fs/built-in.o
 .debug_aranges
                0x0000000000009db0     0x36c0 lib/built-in.o
 .debug_aranges
                0x000000000000d470      0x790 net/built-in.o

.debug_str      0x0000000000000000    0x2c7c5
 .debug_str     0x0000000000000000       0xad arch/arm/cpu/armv8/start.o
 .debug_str     0x00000000000000ad     0x16dd arch/arm/cpu/armv8/built-in.o
                                       0x5969 (size before relaxing)
 .debug_str     0x000000000000178a     0x2440 arch/arm/lib/built-in.o
                                       0xa2a4 (size before relaxing)
 .debug_str     0x0000000000003bca     0x3547 arch/arm/mach-imx/built-in.o
                                      0x12faf (size before relaxing)
 .debug_str     0x0000000000007111     0x5102 board/variscite/imx8mm_var_dart/built-in.o
                                       0xb64d (size before relaxing)
 .debug_str     0x000000000000c213     0x54f8 cmd/built-in.o
                                      0x408fc (size before relaxing)
 .debug_str     0x000000000001170b     0x4d48 common/built-in.o
                                      0x39b7f (size before relaxing)
 .debug_str     0x0000000000016453      0x74e disk/built-in.o
                                       0x4191 (size before relaxing)
 .debug_str     0x0000000000016ba1     0x5fed drivers/built-in.o
                                      0x5d482 (size before relaxing)
 .debug_str     0x000000000001cb8e      0x583 drivers/gpio/built-in.o
                                       0x3694 (size before relaxing)
 .debug_str     0x000000000001d111      0x5d3 drivers/i2c/built-in.o
                                       0x3877 (size before relaxing)
 .debug_str     0x000000000001d6e4      0x82c drivers/net/built-in.o
                                       0x25be (size before relaxing)
 .debug_str     0x000000000001df10      0x281 drivers/net/phy/built-in.o
                                       0x3703 (size before relaxing)
 .debug_str     0x000000000001e191      0x5e7 drivers/power/regulator/built-in.o
                                       0x66b0 (size before relaxing)
 .debug_str     0x000000000001e778      0x220 drivers/serial/built-in.o
                                       0x2d5b (size before relaxing)
 .debug_str     0x000000000001e998       0xb6 drivers/usb/common/built-in.o
                                       0x13d4 (size before relaxing)
 .debug_str     0x000000000001ea4e     0x2970 drivers/usb/gadget/built-in.o
                                       0xdbe1 (size before relaxing)
 .debug_str     0x00000000000213be      0x1ee drivers/usb/gadget/udc/built-in.o
                                       0x34ca (size before relaxing)
 .debug_str     0x00000000000215ac      0x72e drivers/usb/host/built-in.o
                                       0x68ec (size before relaxing)
 .debug_str     0x0000000000021cda       0xb2 drivers/usb/imx/built-in.o
                                       0x16df (size before relaxing)
 .debug_str     0x0000000000021d8c      0x7a5 env/built-in.o
                                       0x8480 (size before relaxing)
 .debug_str     0x0000000000022531     0x1ebd fs/built-in.o
                                      0x102b6 (size before relaxing)
 .debug_str     0x00000000000243ee     0x7028 lib/built-in.o
                                      0x670f0 (size before relaxing)
 .debug_str     0x000000000002b416     0x13af net/built-in.o
                                      0x10dd7 (size before relaxing)

.comment        0x0000000000000000       0x11
 .comment       0x0000000000000000       0x11 arch/arm/cpu/armv8/built-in.o
                                         0x6c (size before relaxing)
 .comment       0x0000000000000011       0x90 arch/arm/lib/built-in.o
 .comment       0x0000000000000011       0xd8 arch/arm/mach-imx/built-in.o
 .comment       0x0000000000000011       0x5a board/variscite/imx8mm_var_dart/built-in.o
 .comment       0x0000000000000011      0x33c cmd/built-in.o
 .comment       0x0000000000000011      0x264 common/built-in.o
 .comment       0x0000000000000011       0x36 disk/built-in.o
 .comment       0x0000000000000011      0x438 drivers/built-in.o
 .comment       0x0000000000000011       0x24 drivers/gpio/built-in.o
 .comment       0x0000000000000011       0x24 drivers/i2c/built-in.o
 .comment       0x0000000000000011       0x12 drivers/net/built-in.o
 .comment       0x0000000000000011       0x24 drivers/net/phy/built-in.o
 .comment       0x0000000000000011       0x48 drivers/power/regulator/built-in.o
 .comment       0x0000000000000011       0x24 drivers/serial/built-in.o
 .comment       0x0000000000000011       0x12 drivers/usb/common/built-in.o
 .comment       0x0000000000000011       0x7e drivers/usb/gadget/built-in.o
 .comment       0x0000000000000011       0x24 drivers/usb/gadget/udc/built-in.o
 .comment       0x0000000000000011       0x36 drivers/usb/host/built-in.o
 .comment       0x0000000000000011       0x12 drivers/usb/imx/built-in.o
 .comment       0x0000000000000011       0x6c env/built-in.o
 .comment       0x0000000000000011       0xa2 fs/built-in.o
 .comment       0x0000000000000011      0x534 lib/built-in.o
 .comment       0x0000000000000011       0x90 net/built-in.o

.note.GNU-stack
                0x0000000000000000        0x0
 .note.GNU-stack
                0x0000000000000000        0x0 arch/arm/cpu/armv8/built-in.o
 .note.GNU-stack
                0x0000000000000000        0x0 arch/arm/lib/built-in.o
 .note.GNU-stack
                0x0000000000000000        0x0 arch/arm/mach-imx/built-in.o
 .note.GNU-stack
                0x0000000000000000        0x0 board/variscite/imx8mm_var_dart/built-in.o
 .note.GNU-stack
                0x0000000000000000        0x0 cmd/built-in.o
 .note.GNU-stack
                0x0000000000000000        0x0 common/built-in.o
 .note.GNU-stack
                0x0000000000000000        0x0 disk/built-in.o
 .note.GNU-stack
                0x0000000000000000        0x0 drivers/built-in.o
 .note.GNU-stack
                0x0000000000000000        0x0 drivers/gpio/built-in.o
 .note.GNU-stack
                0x0000000000000000        0x0 drivers/i2c/built-in.o
 .note.GNU-stack
                0x0000000000000000        0x0 drivers/net/built-in.o
 .note.GNU-stack
                0x0000000000000000        0x0 drivers/net/phy/built-in.o
 .note.GNU-stack
                0x0000000000000000        0x0 drivers/power/regulator/built-in.o
 .note.GNU-stack
                0x0000000000000000        0x0 drivers/serial/built-in.o
 .note.GNU-stack
                0x0000000000000000        0x0 drivers/usb/common/built-in.o
 .note.GNU-stack
                0x0000000000000000        0x0 drivers/usb/gadget/built-in.o
 .note.GNU-stack
                0x0000000000000000        0x0 drivers/usb/gadget/udc/built-in.o
 .note.GNU-stack
                0x0000000000000000        0x0 drivers/usb/host/built-in.o
 .note.GNU-stack
                0x0000000000000000        0x0 drivers/usb/imx/built-in.o
 .note.GNU-stack
                0x0000000000000000        0x0 env/built-in.o
 .note.GNU-stack
                0x0000000000000000        0x0 fs/built-in.o
 .note.GNU-stack
                0x0000000000000000        0x0 lib/built-in.o
 .note.GNU-stack
                0x0000000000000000        0x0 net/built-in.o

.debug_loc      0x0000000000000000   0x19cefd
 .debug_loc     0x0000000000000000     0x2f17 arch/arm/cpu/armv8/built-in.o
 .debug_loc     0x0000000000002f17     0x1571 arch/arm/lib/built-in.o
 .debug_loc     0x0000000000004488     0x7253 arch/arm/mach-imx/built-in.o
 .debug_loc     0x000000000000b6db     0x124c board/variscite/imx8mm_var_dart/built-in.o
 .debug_loc     0x000000000000c927    0x2dd0c cmd/built-in.o
 .debug_loc     0x000000000003a633    0x3905a common/built-in.o
 .debug_loc     0x000000000007368d     0x68cf disk/built-in.o
 .debug_loc     0x0000000000079f5c    0x44ad7 drivers/built-in.o
 .debug_loc     0x00000000000bea33     0x4cae drivers/gpio/built-in.o
 .debug_loc     0x00000000000c36e1     0x53f7 drivers/i2c/built-in.o
 .debug_loc     0x00000000000c8ad8     0x3a91 drivers/net/built-in.o
 .debug_loc     0x00000000000cc569     0x4b91 drivers/net/phy/built-in.o
 .debug_loc     0x00000000000d10fa     0x39a0 drivers/power/regulator/built-in.o
 .debug_loc     0x00000000000d4a9a      0xe64 drivers/serial/built-in.o
 .debug_loc     0x00000000000d58fe      0x22a drivers/usb/common/built-in.o
 .debug_loc     0x00000000000d5b28    0x17775 drivers/usb/gadget/built-in.o
 .debug_loc     0x00000000000ed29d     0x14c7 drivers/usb/gadget/udc/built-in.o
 .debug_loc     0x00000000000ee764     0x98b9 drivers/usb/host/built-in.o
 .debug_loc     0x00000000000f801d      0x390 drivers/usb/imx/built-in.o
 .debug_loc     0x00000000000f83ad     0x41aa env/built-in.o
 .debug_loc     0x00000000000fc557    0x1dcb3 fs/built-in.o
 .debug_loc     0x000000000011a20a    0x77a48 lib/built-in.o
 .debug_loc     0x0000000000191c52     0xb2ab net/built-in.o

.debug_ranges   0x0000000000000000    0x30860
 .debug_ranges  0x0000000000000000      0xb30 arch/arm/cpu/armv8/built-in.o
 .debug_ranges  0x0000000000000b30      0x370 arch/arm/lib/built-in.o
 .debug_ranges  0x0000000000000ea0      0xbd0 arch/arm/mach-imx/built-in.o
 .debug_ranges  0x0000000000001a70      0x370 board/variscite/imx8mm_var_dart/built-in.o
 .debug_ranges  0x0000000000001de0     0x4de0 cmd/built-in.o
 .debug_ranges  0x0000000000006bc0     0x6620 common/built-in.o
 .debug_ranges  0x000000000000d1e0      0xd60 disk/built-in.o
 .debug_ranges  0x000000000000df40     0x9d60 drivers/built-in.o
 .debug_ranges  0x0000000000017ca0      0x500 drivers/gpio/built-in.o
 .debug_ranges  0x00000000000181a0      0x9a0 drivers/i2c/built-in.o
 .debug_ranges  0x0000000000018b40      0x930 drivers/net/built-in.o
 .debug_ranges  0x0000000000019470      0xb50 drivers/net/phy/built-in.o
 .debug_ranges  0x0000000000019fc0      0x3f0 drivers/power/regulator/built-in.o
 .debug_ranges  0x000000000001a3b0      0x2d0 drivers/serial/built-in.o
 .debug_ranges  0x000000000001a680       0x30 drivers/usb/common/built-in.o
 .debug_ranges  0x000000000001a6b0     0x4e70 drivers/usb/gadget/built-in.o
 .debug_ranges  0x000000000001f520      0x380 drivers/usb/gadget/udc/built-in.o
 .debug_ranges  0x000000000001f8a0     0x11c0 drivers/usb/host/built-in.o
 .debug_ranges  0x0000000000020a60       0x40 drivers/usb/imx/built-in.o
 .debug_ranges  0x0000000000020aa0      0x900 env/built-in.o
 .debug_ranges  0x00000000000213a0     0x29c0 fs/built-in.o
 .debug_ranges  0x0000000000023d60     0xaeb0 lib/built-in.o
 .debug_ranges  0x000000000002ec10     0x1c50 net/built-in.o
